ARM GAS  /tmp/ccO3W952.s 			page 1


   1              		.syntax unified
   2              		.cpu cortex-m4
   3              		.eabi_attribute 27, 1
   4              		.eabi_attribute 28, 1
   5              		.fpu fpv4-sp-d16
   6              		.eabi_attribute 20, 1
   7              		.eabi_attribute 21, 1
   8              		.eabi_attribute 23, 3
   9              		.eabi_attribute 24, 1
  10              		.eabi_attribute 25, 1
  11              		.eabi_attribute 26, 1
  12              		.eabi_attribute 30, 1
  13              		.eabi_attribute 34, 1
  14              		.eabi_attribute 18, 4
  15              		.thumb
  16              		.syntax unified
  17              		.file	"stm32f4xx_ll_sdmmc.c"
  18              		.text
  19              	.Ltext0:
  20              		.cfi_sections	.debug_frame
  21              		.section	.text.SDMMC_GetCmdError,"ax",%progbits
  22              		.align	2
  23              		.thumb
  24              		.thumb_func
  26              	SDMMC_GetCmdError:
  27              	.LFB162:
  28              		.file 1 "Drivers/STM32F4xx_HAL_Driver/Src/stm32f4xx_ll_sdmmc.c"
   1:Drivers/STM32F4xx_HAL_Driver/Src/stm32f4xx_ll_sdmmc.c **** /**
   2:Drivers/STM32F4xx_HAL_Driver/Src/stm32f4xx_ll_sdmmc.c ****   ******************************************************************************
   3:Drivers/STM32F4xx_HAL_Driver/Src/stm32f4xx_ll_sdmmc.c ****   * @file    stm32f4xx_ll_sdmmc.c
   4:Drivers/STM32F4xx_HAL_Driver/Src/stm32f4xx_ll_sdmmc.c ****   * @author  MCD Application Team
   5:Drivers/STM32F4xx_HAL_Driver/Src/stm32f4xx_ll_sdmmc.c ****   * @brief   SDMMC Low Layer HAL module driver.
   6:Drivers/STM32F4xx_HAL_Driver/Src/stm32f4xx_ll_sdmmc.c ****   *    
   7:Drivers/STM32F4xx_HAL_Driver/Src/stm32f4xx_ll_sdmmc.c ****   *          This file provides firmware functions to manage the following 
   8:Drivers/STM32F4xx_HAL_Driver/Src/stm32f4xx_ll_sdmmc.c ****   *          functionalities of the SDMMC peripheral:
   9:Drivers/STM32F4xx_HAL_Driver/Src/stm32f4xx_ll_sdmmc.c ****   *           + Initialization/de-initialization functions
  10:Drivers/STM32F4xx_HAL_Driver/Src/stm32f4xx_ll_sdmmc.c ****   *           + I/O operation functions
  11:Drivers/STM32F4xx_HAL_Driver/Src/stm32f4xx_ll_sdmmc.c ****   *           + Peripheral Control functions 
  12:Drivers/STM32F4xx_HAL_Driver/Src/stm32f4xx_ll_sdmmc.c ****   *           + Peripheral State functions
  13:Drivers/STM32F4xx_HAL_Driver/Src/stm32f4xx_ll_sdmmc.c ****   *         
  14:Drivers/STM32F4xx_HAL_Driver/Src/stm32f4xx_ll_sdmmc.c ****   @verbatim
  15:Drivers/STM32F4xx_HAL_Driver/Src/stm32f4xx_ll_sdmmc.c ****   ==============================================================================
  16:Drivers/STM32F4xx_HAL_Driver/Src/stm32f4xx_ll_sdmmc.c ****                        ##### SDMMC peripheral features #####
  17:Drivers/STM32F4xx_HAL_Driver/Src/stm32f4xx_ll_sdmmc.c ****   ==============================================================================        
  18:Drivers/STM32F4xx_HAL_Driver/Src/stm32f4xx_ll_sdmmc.c ****     [..] The SD/SDMMC MMC card host interface (SDMMC) provides an interface between the APB2
  19:Drivers/STM32F4xx_HAL_Driver/Src/stm32f4xx_ll_sdmmc.c ****          peripheral bus and MultiMedia cards (MMCs), SD memory cards, SDMMC cards and CE-ATA
  20:Drivers/STM32F4xx_HAL_Driver/Src/stm32f4xx_ll_sdmmc.c ****          devices.
  21:Drivers/STM32F4xx_HAL_Driver/Src/stm32f4xx_ll_sdmmc.c ****     
  22:Drivers/STM32F4xx_HAL_Driver/Src/stm32f4xx_ll_sdmmc.c ****     [..] The SDMMC features include the following:
  23:Drivers/STM32F4xx_HAL_Driver/Src/stm32f4xx_ll_sdmmc.c ****          (+) Full compliance with MultiMedia Card System Specification Version 4.2. Card support
  24:Drivers/STM32F4xx_HAL_Driver/Src/stm32f4xx_ll_sdmmc.c ****              for three different databus modes: 1-bit (default), 4-bit and 8-bit
  25:Drivers/STM32F4xx_HAL_Driver/Src/stm32f4xx_ll_sdmmc.c ****          (+) Full compatibility with previous versions of MultiMedia Cards (forward compatibility)
  26:Drivers/STM32F4xx_HAL_Driver/Src/stm32f4xx_ll_sdmmc.c ****          (+) Full compliance with SD Memory Card Specifications Version 2.0
  27:Drivers/STM32F4xx_HAL_Driver/Src/stm32f4xx_ll_sdmmc.c ****          (+) Full compliance with SD I/O Card Specification Version 2.0: card support for two
  28:Drivers/STM32F4xx_HAL_Driver/Src/stm32f4xx_ll_sdmmc.c ****              different data bus modes: 1-bit (default) and 4-bit
  29:Drivers/STM32F4xx_HAL_Driver/Src/stm32f4xx_ll_sdmmc.c ****          (+) Full support of the CE-ATA features (full compliance with CE-ATA digital protocol
  30:Drivers/STM32F4xx_HAL_Driver/Src/stm32f4xx_ll_sdmmc.c ****              Rev1.1)
ARM GAS  /tmp/ccO3W952.s 			page 2


  31:Drivers/STM32F4xx_HAL_Driver/Src/stm32f4xx_ll_sdmmc.c ****          (+) Data transfer up to 48 MHz for the 8 bit mode
  32:Drivers/STM32F4xx_HAL_Driver/Src/stm32f4xx_ll_sdmmc.c ****          (+) Data and command output enable signals to control external bidirectional drivers.
  33:Drivers/STM32F4xx_HAL_Driver/Src/stm32f4xx_ll_sdmmc.c ****                  
  34:Drivers/STM32F4xx_HAL_Driver/Src/stm32f4xx_ll_sdmmc.c ****    
  35:Drivers/STM32F4xx_HAL_Driver/Src/stm32f4xx_ll_sdmmc.c ****                            ##### How to use this driver #####
  36:Drivers/STM32F4xx_HAL_Driver/Src/stm32f4xx_ll_sdmmc.c ****   ==============================================================================
  37:Drivers/STM32F4xx_HAL_Driver/Src/stm32f4xx_ll_sdmmc.c ****     [..]
  38:Drivers/STM32F4xx_HAL_Driver/Src/stm32f4xx_ll_sdmmc.c ****       This driver is a considered as a driver of service for external devices drivers 
  39:Drivers/STM32F4xx_HAL_Driver/Src/stm32f4xx_ll_sdmmc.c ****       that interfaces with the SDMMC peripheral.
  40:Drivers/STM32F4xx_HAL_Driver/Src/stm32f4xx_ll_sdmmc.c ****       According to the device used (SD card/ MMC card / SDMMC card ...), a set of APIs 
  41:Drivers/STM32F4xx_HAL_Driver/Src/stm32f4xx_ll_sdmmc.c ****       is used in the device's driver to perform SDMMC operations and functionalities.
  42:Drivers/STM32F4xx_HAL_Driver/Src/stm32f4xx_ll_sdmmc.c ****    
  43:Drivers/STM32F4xx_HAL_Driver/Src/stm32f4xx_ll_sdmmc.c ****       This driver is almost transparent for the final user, it is only used to implement other
  44:Drivers/STM32F4xx_HAL_Driver/Src/stm32f4xx_ll_sdmmc.c ****       functionalities of the external device.
  45:Drivers/STM32F4xx_HAL_Driver/Src/stm32f4xx_ll_sdmmc.c ****    
  46:Drivers/STM32F4xx_HAL_Driver/Src/stm32f4xx_ll_sdmmc.c ****     [..]
  47:Drivers/STM32F4xx_HAL_Driver/Src/stm32f4xx_ll_sdmmc.c ****       (+) The SDMMC clock (SDMMCCLK = 48 MHz) is coming from a specific output of PLL 
  48:Drivers/STM32F4xx_HAL_Driver/Src/stm32f4xx_ll_sdmmc.c ****           (PLL48CLK). Before start working with SDMMC peripheral make sure that the
  49:Drivers/STM32F4xx_HAL_Driver/Src/stm32f4xx_ll_sdmmc.c ****           PLL is well configured.
  50:Drivers/STM32F4xx_HAL_Driver/Src/stm32f4xx_ll_sdmmc.c ****           The SDMMC peripheral uses two clock signals:
  51:Drivers/STM32F4xx_HAL_Driver/Src/stm32f4xx_ll_sdmmc.c ****           (++) SDMMC adapter clock (SDMMCCLK = 48 MHz)
  52:Drivers/STM32F4xx_HAL_Driver/Src/stm32f4xx_ll_sdmmc.c ****           (++) APB2 bus clock (PCLK2)
  53:Drivers/STM32F4xx_HAL_Driver/Src/stm32f4xx_ll_sdmmc.c ****        
  54:Drivers/STM32F4xx_HAL_Driver/Src/stm32f4xx_ll_sdmmc.c ****           -@@- PCLK2 and SDMMC_CK clock frequencies must respect the following condition:
  55:Drivers/STM32F4xx_HAL_Driver/Src/stm32f4xx_ll_sdmmc.c ****                Frequency(PCLK2) >= (3 / 8 x Frequency(SDMMC_CK))
  56:Drivers/STM32F4xx_HAL_Driver/Src/stm32f4xx_ll_sdmmc.c ****   
  57:Drivers/STM32F4xx_HAL_Driver/Src/stm32f4xx_ll_sdmmc.c ****       (+) Enable/Disable peripheral clock using RCC peripheral macros related to SDMMC
  58:Drivers/STM32F4xx_HAL_Driver/Src/stm32f4xx_ll_sdmmc.c ****           peripheral.
  59:Drivers/STM32F4xx_HAL_Driver/Src/stm32f4xx_ll_sdmmc.c **** 
  60:Drivers/STM32F4xx_HAL_Driver/Src/stm32f4xx_ll_sdmmc.c ****       (+) Enable the Power ON State using the SDIO_PowerState_ON(SDIOx) 
  61:Drivers/STM32F4xx_HAL_Driver/Src/stm32f4xx_ll_sdmmc.c ****           function and disable it using the function SDIO_PowerState_ON(SDIOx).
  62:Drivers/STM32F4xx_HAL_Driver/Src/stm32f4xx_ll_sdmmc.c ****                 
  63:Drivers/STM32F4xx_HAL_Driver/Src/stm32f4xx_ll_sdmmc.c ****       (+) Enable/Disable the clock using the __SDIO_ENABLE()/__SDIO_DISABLE() macros.
  64:Drivers/STM32F4xx_HAL_Driver/Src/stm32f4xx_ll_sdmmc.c ****   
  65:Drivers/STM32F4xx_HAL_Driver/Src/stm32f4xx_ll_sdmmc.c ****       (+) Enable/Disable the peripheral interrupts using the macros __SDIO_ENABLE_IT(hSDIO, IT) 
  66:Drivers/STM32F4xx_HAL_Driver/Src/stm32f4xx_ll_sdmmc.c ****           and __SDIO_DISABLE_IT(hSDIO, IT) if you need to use interrupt mode. 
  67:Drivers/STM32F4xx_HAL_Driver/Src/stm32f4xx_ll_sdmmc.c ****   
  68:Drivers/STM32F4xx_HAL_Driver/Src/stm32f4xx_ll_sdmmc.c ****       (+) When using the DMA mode 
  69:Drivers/STM32F4xx_HAL_Driver/Src/stm32f4xx_ll_sdmmc.c ****           (++) Configure the DMA in the MSP layer of the external device
  70:Drivers/STM32F4xx_HAL_Driver/Src/stm32f4xx_ll_sdmmc.c ****           (++) Active the needed channel Request 
  71:Drivers/STM32F4xx_HAL_Driver/Src/stm32f4xx_ll_sdmmc.c ****           (++) Enable the DMA using __SDIO_DMA_ENABLE() macro or Disable it using the macro
  72:Drivers/STM32F4xx_HAL_Driver/Src/stm32f4xx_ll_sdmmc.c ****                __SDIO_DMA_DISABLE().
  73:Drivers/STM32F4xx_HAL_Driver/Src/stm32f4xx_ll_sdmmc.c ****   
  74:Drivers/STM32F4xx_HAL_Driver/Src/stm32f4xx_ll_sdmmc.c ****       (+) To control the CPSM (Command Path State Machine) and send 
  75:Drivers/STM32F4xx_HAL_Driver/Src/stm32f4xx_ll_sdmmc.c ****           commands to the card use the SDIO_SendCommand(), 
  76:Drivers/STM32F4xx_HAL_Driver/Src/stm32f4xx_ll_sdmmc.c ****           SDIO_GetCommandResponse() and SDIO_GetResponse() functions. First, user has
  77:Drivers/STM32F4xx_HAL_Driver/Src/stm32f4xx_ll_sdmmc.c ****           to fill the command structure (pointer to SDIO_CmdInitTypeDef) according 
  78:Drivers/STM32F4xx_HAL_Driver/Src/stm32f4xx_ll_sdmmc.c ****           to the selected command to be sent.
  79:Drivers/STM32F4xx_HAL_Driver/Src/stm32f4xx_ll_sdmmc.c ****           The parameters that should be filled are:
  80:Drivers/STM32F4xx_HAL_Driver/Src/stm32f4xx_ll_sdmmc.c ****            (++) Command Argument
  81:Drivers/STM32F4xx_HAL_Driver/Src/stm32f4xx_ll_sdmmc.c ****            (++) Command Index
  82:Drivers/STM32F4xx_HAL_Driver/Src/stm32f4xx_ll_sdmmc.c ****            (++) Command Response type
  83:Drivers/STM32F4xx_HAL_Driver/Src/stm32f4xx_ll_sdmmc.c ****            (++) Command Wait
  84:Drivers/STM32F4xx_HAL_Driver/Src/stm32f4xx_ll_sdmmc.c ****            (++) CPSM Status (Enable or Disable).
  85:Drivers/STM32F4xx_HAL_Driver/Src/stm32f4xx_ll_sdmmc.c ****   
  86:Drivers/STM32F4xx_HAL_Driver/Src/stm32f4xx_ll_sdmmc.c ****           -@@- To check if the command is well received, read the SDIO_CMDRESP
  87:Drivers/STM32F4xx_HAL_Driver/Src/stm32f4xx_ll_sdmmc.c ****               register using the SDIO_GetCommandResponse().
ARM GAS  /tmp/ccO3W952.s 			page 3


  88:Drivers/STM32F4xx_HAL_Driver/Src/stm32f4xx_ll_sdmmc.c ****               The SDMMC responses registers (SDIO_RESP1 to SDIO_RESP2), use the
  89:Drivers/STM32F4xx_HAL_Driver/Src/stm32f4xx_ll_sdmmc.c ****               SDIO_GetResponse() function.
  90:Drivers/STM32F4xx_HAL_Driver/Src/stm32f4xx_ll_sdmmc.c ****   
  91:Drivers/STM32F4xx_HAL_Driver/Src/stm32f4xx_ll_sdmmc.c ****       (+) To control the DPSM (Data Path State Machine) and send/receive 
  92:Drivers/STM32F4xx_HAL_Driver/Src/stm32f4xx_ll_sdmmc.c ****            data to/from the card use the SDIO_ConfigData(), SDIO_GetDataCounter(), 
  93:Drivers/STM32F4xx_HAL_Driver/Src/stm32f4xx_ll_sdmmc.c ****           SDIO_ReadFIFO(), SDIO_WriteFIFO() and SDIO_GetFIFOCount() functions.
  94:Drivers/STM32F4xx_HAL_Driver/Src/stm32f4xx_ll_sdmmc.c ****   
  95:Drivers/STM32F4xx_HAL_Driver/Src/stm32f4xx_ll_sdmmc.c ****     *** Read Operations ***
  96:Drivers/STM32F4xx_HAL_Driver/Src/stm32f4xx_ll_sdmmc.c ****     =======================
  97:Drivers/STM32F4xx_HAL_Driver/Src/stm32f4xx_ll_sdmmc.c ****     [..]
  98:Drivers/STM32F4xx_HAL_Driver/Src/stm32f4xx_ll_sdmmc.c ****       (#) First, user has to fill the data structure (pointer to
  99:Drivers/STM32F4xx_HAL_Driver/Src/stm32f4xx_ll_sdmmc.c ****           SDIO_DataInitTypeDef) according to the selected data type to be received.
 100:Drivers/STM32F4xx_HAL_Driver/Src/stm32f4xx_ll_sdmmc.c ****           The parameters that should be filled are:
 101:Drivers/STM32F4xx_HAL_Driver/Src/stm32f4xx_ll_sdmmc.c ****            (++) Data TimeOut
 102:Drivers/STM32F4xx_HAL_Driver/Src/stm32f4xx_ll_sdmmc.c ****            (++) Data Length
 103:Drivers/STM32F4xx_HAL_Driver/Src/stm32f4xx_ll_sdmmc.c ****            (++) Data Block size
 104:Drivers/STM32F4xx_HAL_Driver/Src/stm32f4xx_ll_sdmmc.c ****            (++) Data Transfer direction: should be from card (To SDMMC)
 105:Drivers/STM32F4xx_HAL_Driver/Src/stm32f4xx_ll_sdmmc.c ****            (++) Data Transfer mode
 106:Drivers/STM32F4xx_HAL_Driver/Src/stm32f4xx_ll_sdmmc.c ****            (++) DPSM Status (Enable or Disable)
 107:Drivers/STM32F4xx_HAL_Driver/Src/stm32f4xx_ll_sdmmc.c ****                                      
 108:Drivers/STM32F4xx_HAL_Driver/Src/stm32f4xx_ll_sdmmc.c ****       (#) Configure the SDMMC resources to receive the data from the card
 109:Drivers/STM32F4xx_HAL_Driver/Src/stm32f4xx_ll_sdmmc.c ****           according to selected transfer mode (Refer to Step 8, 9 and 10).
 110:Drivers/STM32F4xx_HAL_Driver/Src/stm32f4xx_ll_sdmmc.c ****   
 111:Drivers/STM32F4xx_HAL_Driver/Src/stm32f4xx_ll_sdmmc.c ****       (#) Send the selected Read command (refer to step 11).
 112:Drivers/STM32F4xx_HAL_Driver/Src/stm32f4xx_ll_sdmmc.c ****                     
 113:Drivers/STM32F4xx_HAL_Driver/Src/stm32f4xx_ll_sdmmc.c ****       (#) Use the SDIO flags/interrupts to check the transfer status.
 114:Drivers/STM32F4xx_HAL_Driver/Src/stm32f4xx_ll_sdmmc.c ****   
 115:Drivers/STM32F4xx_HAL_Driver/Src/stm32f4xx_ll_sdmmc.c ****     *** Write Operations ***
 116:Drivers/STM32F4xx_HAL_Driver/Src/stm32f4xx_ll_sdmmc.c ****     ========================
 117:Drivers/STM32F4xx_HAL_Driver/Src/stm32f4xx_ll_sdmmc.c ****     [..]
 118:Drivers/STM32F4xx_HAL_Driver/Src/stm32f4xx_ll_sdmmc.c ****      (#) First, user has to fill the data structure (pointer to
 119:Drivers/STM32F4xx_HAL_Driver/Src/stm32f4xx_ll_sdmmc.c ****          SDIO_DataInitTypeDef) according to the selected data type to be received.
 120:Drivers/STM32F4xx_HAL_Driver/Src/stm32f4xx_ll_sdmmc.c ****          The parameters that should be filled are:
 121:Drivers/STM32F4xx_HAL_Driver/Src/stm32f4xx_ll_sdmmc.c ****           (++) Data TimeOut
 122:Drivers/STM32F4xx_HAL_Driver/Src/stm32f4xx_ll_sdmmc.c ****           (++) Data Length
 123:Drivers/STM32F4xx_HAL_Driver/Src/stm32f4xx_ll_sdmmc.c ****           (++) Data Block size
 124:Drivers/STM32F4xx_HAL_Driver/Src/stm32f4xx_ll_sdmmc.c ****           (++) Data Transfer direction:  should be to card (To CARD)
 125:Drivers/STM32F4xx_HAL_Driver/Src/stm32f4xx_ll_sdmmc.c ****           (++) Data Transfer mode
 126:Drivers/STM32F4xx_HAL_Driver/Src/stm32f4xx_ll_sdmmc.c ****           (++) DPSM Status (Enable or Disable)
 127:Drivers/STM32F4xx_HAL_Driver/Src/stm32f4xx_ll_sdmmc.c ****   
 128:Drivers/STM32F4xx_HAL_Driver/Src/stm32f4xx_ll_sdmmc.c ****      (#) Configure the SDMMC resources to send the data to the card according to 
 129:Drivers/STM32F4xx_HAL_Driver/Src/stm32f4xx_ll_sdmmc.c ****          selected transfer mode.
 130:Drivers/STM32F4xx_HAL_Driver/Src/stm32f4xx_ll_sdmmc.c ****                      
 131:Drivers/STM32F4xx_HAL_Driver/Src/stm32f4xx_ll_sdmmc.c ****      (#) Send the selected Write command.
 132:Drivers/STM32F4xx_HAL_Driver/Src/stm32f4xx_ll_sdmmc.c ****                     
 133:Drivers/STM32F4xx_HAL_Driver/Src/stm32f4xx_ll_sdmmc.c ****      (#) Use the SDIO flags/interrupts to check the transfer status.
 134:Drivers/STM32F4xx_HAL_Driver/Src/stm32f4xx_ll_sdmmc.c ****        
 135:Drivers/STM32F4xx_HAL_Driver/Src/stm32f4xx_ll_sdmmc.c ****     *** Command management operations ***
 136:Drivers/STM32F4xx_HAL_Driver/Src/stm32f4xx_ll_sdmmc.c ****     =====================================
 137:Drivers/STM32F4xx_HAL_Driver/Src/stm32f4xx_ll_sdmmc.c ****     [..]
 138:Drivers/STM32F4xx_HAL_Driver/Src/stm32f4xx_ll_sdmmc.c ****      (#) The commands used for Read/Write/Erase operations are managed in 
 139:Drivers/STM32F4xx_HAL_Driver/Src/stm32f4xx_ll_sdmmc.c ****          separate functions. 
 140:Drivers/STM32F4xx_HAL_Driver/Src/stm32f4xx_ll_sdmmc.c ****          Each function allows to send the needed command with the related argument,
 141:Drivers/STM32F4xx_HAL_Driver/Src/stm32f4xx_ll_sdmmc.c ****          then check the response.
 142:Drivers/STM32F4xx_HAL_Driver/Src/stm32f4xx_ll_sdmmc.c ****          By the same approach, you could implement a command and check the response.
 143:Drivers/STM32F4xx_HAL_Driver/Src/stm32f4xx_ll_sdmmc.c ****   
 144:Drivers/STM32F4xx_HAL_Driver/Src/stm32f4xx_ll_sdmmc.c ****   @endverbatim
ARM GAS  /tmp/ccO3W952.s 			page 4


 145:Drivers/STM32F4xx_HAL_Driver/Src/stm32f4xx_ll_sdmmc.c ****   ******************************************************************************
 146:Drivers/STM32F4xx_HAL_Driver/Src/stm32f4xx_ll_sdmmc.c ****   * @attention
 147:Drivers/STM32F4xx_HAL_Driver/Src/stm32f4xx_ll_sdmmc.c ****   *
 148:Drivers/STM32F4xx_HAL_Driver/Src/stm32f4xx_ll_sdmmc.c ****   * <h2><center>&copy; COPYRIGHT(c) 2017 STMicroelectronics</center></h2>
 149:Drivers/STM32F4xx_HAL_Driver/Src/stm32f4xx_ll_sdmmc.c ****   *
 150:Drivers/STM32F4xx_HAL_Driver/Src/stm32f4xx_ll_sdmmc.c ****   * Redistribution and use in source and binary forms, with or without modification,
 151:Drivers/STM32F4xx_HAL_Driver/Src/stm32f4xx_ll_sdmmc.c ****   * are permitted provided that the following conditions are met:
 152:Drivers/STM32F4xx_HAL_Driver/Src/stm32f4xx_ll_sdmmc.c ****   *   1. Redistributions of source code must retain the above copyright notice,
 153:Drivers/STM32F4xx_HAL_Driver/Src/stm32f4xx_ll_sdmmc.c ****   *      this list of conditions and the following disclaimer.
 154:Drivers/STM32F4xx_HAL_Driver/Src/stm32f4xx_ll_sdmmc.c ****   *   2. Redistributions in binary form must reproduce the above copyright notice,
 155:Drivers/STM32F4xx_HAL_Driver/Src/stm32f4xx_ll_sdmmc.c ****   *      this list of conditions and the following disclaimer in the documentation
 156:Drivers/STM32F4xx_HAL_Driver/Src/stm32f4xx_ll_sdmmc.c ****   *      and/or other materials provided with the distribution.
 157:Drivers/STM32F4xx_HAL_Driver/Src/stm32f4xx_ll_sdmmc.c ****   *   3. Neither the name of STMicroelectronics nor the names of its contributors
 158:Drivers/STM32F4xx_HAL_Driver/Src/stm32f4xx_ll_sdmmc.c ****   *      may be used to endorse or promote products derived from this software
 159:Drivers/STM32F4xx_HAL_Driver/Src/stm32f4xx_ll_sdmmc.c ****   *      without specific prior written permission.
 160:Drivers/STM32F4xx_HAL_Driver/Src/stm32f4xx_ll_sdmmc.c ****   *
 161:Drivers/STM32F4xx_HAL_Driver/Src/stm32f4xx_ll_sdmmc.c ****   * THIS SOFTWARE IS PROVIDED BY THE COPYRIGHT HOLDERS AND CONTRIBUTORS "AS IS"
 162:Drivers/STM32F4xx_HAL_Driver/Src/stm32f4xx_ll_sdmmc.c ****   * AND ANY EXPRESS OR IMPLIED WARRANTIES, INCLUDING, BUT NOT LIMITED TO, THE
 163:Drivers/STM32F4xx_HAL_Driver/Src/stm32f4xx_ll_sdmmc.c ****   * IMPLIED WARRANTIES OF MERCHANTABILITY AND FITNESS FOR A PARTICULAR PURPOSE ARE
 164:Drivers/STM32F4xx_HAL_Driver/Src/stm32f4xx_ll_sdmmc.c ****   * DISCLAIMED. IN NO EVENT SHALL THE COPYRIGHT HOLDER OR CONTRIBUTORS BE LIABLE
 165:Drivers/STM32F4xx_HAL_Driver/Src/stm32f4xx_ll_sdmmc.c ****   * FOR ANY DIRECT, INDIRECT, INCIDENTAL, SPECIAL, EXEMPLARY, OR CONSEQUENTIAL
 166:Drivers/STM32F4xx_HAL_Driver/Src/stm32f4xx_ll_sdmmc.c ****   * DAMAGES (INCLUDING, BUT NOT LIMITED TO, PROCUREMENT OF SUBSTITUTE GOODS OR
 167:Drivers/STM32F4xx_HAL_Driver/Src/stm32f4xx_ll_sdmmc.c ****   * SERVICES; LOSS OF USE, DATA, OR PROFITS; OR BUSINESS INTERRUPTION) HOWEVER
 168:Drivers/STM32F4xx_HAL_Driver/Src/stm32f4xx_ll_sdmmc.c ****   * CAUSED AND ON ANY THEORY OF LIABILITY, WHETHER IN CONTRACT, STRICT LIABILITY,
 169:Drivers/STM32F4xx_HAL_Driver/Src/stm32f4xx_ll_sdmmc.c ****   * OR TORT (INCLUDING NEGLIGENCE OR OTHERWISE) ARISING IN ANY WAY OUT OF THE USE
 170:Drivers/STM32F4xx_HAL_Driver/Src/stm32f4xx_ll_sdmmc.c ****   * OF THIS SOFTWARE, EVEN IF ADVISED OF THE POSSIBILITY OF SUCH DAMAGE.
 171:Drivers/STM32F4xx_HAL_Driver/Src/stm32f4xx_ll_sdmmc.c ****   *
 172:Drivers/STM32F4xx_HAL_Driver/Src/stm32f4xx_ll_sdmmc.c ****   ******************************************************************************
 173:Drivers/STM32F4xx_HAL_Driver/Src/stm32f4xx_ll_sdmmc.c ****   */ 
 174:Drivers/STM32F4xx_HAL_Driver/Src/stm32f4xx_ll_sdmmc.c **** 
 175:Drivers/STM32F4xx_HAL_Driver/Src/stm32f4xx_ll_sdmmc.c **** /* Includes ------------------------------------------------------------------*/
 176:Drivers/STM32F4xx_HAL_Driver/Src/stm32f4xx_ll_sdmmc.c **** #include "stm32f4xx_hal.h"
 177:Drivers/STM32F4xx_HAL_Driver/Src/stm32f4xx_ll_sdmmc.c **** 
 178:Drivers/STM32F4xx_HAL_Driver/Src/stm32f4xx_ll_sdmmc.c **** /** @addtogroup STM32F4xx_HAL_Driver
 179:Drivers/STM32F4xx_HAL_Driver/Src/stm32f4xx_ll_sdmmc.c ****   * @{
 180:Drivers/STM32F4xx_HAL_Driver/Src/stm32f4xx_ll_sdmmc.c ****   */
 181:Drivers/STM32F4xx_HAL_Driver/Src/stm32f4xx_ll_sdmmc.c **** 
 182:Drivers/STM32F4xx_HAL_Driver/Src/stm32f4xx_ll_sdmmc.c **** /** @defgroup SDMMC_LL SDMMC Low Layer
 183:Drivers/STM32F4xx_HAL_Driver/Src/stm32f4xx_ll_sdmmc.c ****   * @brief Low layer module for SD
 184:Drivers/STM32F4xx_HAL_Driver/Src/stm32f4xx_ll_sdmmc.c ****   * @{
 185:Drivers/STM32F4xx_HAL_Driver/Src/stm32f4xx_ll_sdmmc.c ****   */
 186:Drivers/STM32F4xx_HAL_Driver/Src/stm32f4xx_ll_sdmmc.c **** 
 187:Drivers/STM32F4xx_HAL_Driver/Src/stm32f4xx_ll_sdmmc.c **** #if defined(HAL_SD_MODULE_ENABLED) || defined(HAL_MMC_MODULE_ENABLED)
 188:Drivers/STM32F4xx_HAL_Driver/Src/stm32f4xx_ll_sdmmc.c **** #if defined(STM32F405xx) || defined(STM32F415xx) || defined(STM32F407xx) || defined(STM32F417xx) ||
 189:Drivers/STM32F4xx_HAL_Driver/Src/stm32f4xx_ll_sdmmc.c ****     defined(STM32F427xx) || defined(STM32F437xx) || defined(STM32F429xx) || defined(STM32F439xx) ||
 190:Drivers/STM32F4xx_HAL_Driver/Src/stm32f4xx_ll_sdmmc.c ****     defined(STM32F401xC) || defined(STM32F401xE) || defined(STM32F411xE) || defined(STM32F446xx) ||
 191:Drivers/STM32F4xx_HAL_Driver/Src/stm32f4xx_ll_sdmmc.c ****     defined(STM32F469xx) || defined(STM32F479xx) || defined(STM32F412Zx) || defined(STM32F412Vx) ||
 192:Drivers/STM32F4xx_HAL_Driver/Src/stm32f4xx_ll_sdmmc.c ****     defined(STM32F412Rx) || defined(STM32F412Cx) || defined(STM32F413xx) || defined(STM32F423xx)
 193:Drivers/STM32F4xx_HAL_Driver/Src/stm32f4xx_ll_sdmmc.c **** 
 194:Drivers/STM32F4xx_HAL_Driver/Src/stm32f4xx_ll_sdmmc.c **** /* Private typedef -----------------------------------------------------------*/
 195:Drivers/STM32F4xx_HAL_Driver/Src/stm32f4xx_ll_sdmmc.c **** /* Private define ------------------------------------------------------------*/
 196:Drivers/STM32F4xx_HAL_Driver/Src/stm32f4xx_ll_sdmmc.c **** /* Private macro -------------------------------------------------------------*/
 197:Drivers/STM32F4xx_HAL_Driver/Src/stm32f4xx_ll_sdmmc.c **** /* Private variables ---------------------------------------------------------*/
 198:Drivers/STM32F4xx_HAL_Driver/Src/stm32f4xx_ll_sdmmc.c **** /* Private function prototypes -----------------------------------------------*/
 199:Drivers/STM32F4xx_HAL_Driver/Src/stm32f4xx_ll_sdmmc.c **** static uint32_t SDMMC_GetCmdError(SDIO_TypeDef *SDIOx);
 200:Drivers/STM32F4xx_HAL_Driver/Src/stm32f4xx_ll_sdmmc.c **** static uint32_t SDMMC_GetCmdResp1(SDIO_TypeDef *SDIOx, uint8_t SD_CMD, uint32_t Timeout);
 201:Drivers/STM32F4xx_HAL_Driver/Src/stm32f4xx_ll_sdmmc.c **** static uint32_t SDMMC_GetCmdResp2(SDIO_TypeDef *SDIOx);
ARM GAS  /tmp/ccO3W952.s 			page 5


 202:Drivers/STM32F4xx_HAL_Driver/Src/stm32f4xx_ll_sdmmc.c **** static uint32_t SDMMC_GetCmdResp3(SDIO_TypeDef *SDIOx);
 203:Drivers/STM32F4xx_HAL_Driver/Src/stm32f4xx_ll_sdmmc.c **** static uint32_t SDMMC_GetCmdResp7(SDIO_TypeDef *SDIOx);
 204:Drivers/STM32F4xx_HAL_Driver/Src/stm32f4xx_ll_sdmmc.c **** static uint32_t SDMMC_GetCmdResp6(SDIO_TypeDef *SDIOx, uint8_t SD_CMD, uint16_t *pRCA);
 205:Drivers/STM32F4xx_HAL_Driver/Src/stm32f4xx_ll_sdmmc.c **** 
 206:Drivers/STM32F4xx_HAL_Driver/Src/stm32f4xx_ll_sdmmc.c **** /* Exported functions --------------------------------------------------------*/
 207:Drivers/STM32F4xx_HAL_Driver/Src/stm32f4xx_ll_sdmmc.c **** 
 208:Drivers/STM32F4xx_HAL_Driver/Src/stm32f4xx_ll_sdmmc.c **** /** @defgroup SDMMC_LL_Exported_Functions SDMMC Low Layer Exported Functions
 209:Drivers/STM32F4xx_HAL_Driver/Src/stm32f4xx_ll_sdmmc.c ****   * @{
 210:Drivers/STM32F4xx_HAL_Driver/Src/stm32f4xx_ll_sdmmc.c ****   */
 211:Drivers/STM32F4xx_HAL_Driver/Src/stm32f4xx_ll_sdmmc.c **** 
 212:Drivers/STM32F4xx_HAL_Driver/Src/stm32f4xx_ll_sdmmc.c **** /** @defgroup HAL_SDMMC_LL_Group1 Initialization de-initialization functions 
 213:Drivers/STM32F4xx_HAL_Driver/Src/stm32f4xx_ll_sdmmc.c ****  *  @brief    Initialization and Configuration functions 
 214:Drivers/STM32F4xx_HAL_Driver/Src/stm32f4xx_ll_sdmmc.c ****  *
 215:Drivers/STM32F4xx_HAL_Driver/Src/stm32f4xx_ll_sdmmc.c **** @verbatim    
 216:Drivers/STM32F4xx_HAL_Driver/Src/stm32f4xx_ll_sdmmc.c ****  ===============================================================================
 217:Drivers/STM32F4xx_HAL_Driver/Src/stm32f4xx_ll_sdmmc.c ****               ##### Initialization/de-initialization functions #####
 218:Drivers/STM32F4xx_HAL_Driver/Src/stm32f4xx_ll_sdmmc.c ****  ===============================================================================
 219:Drivers/STM32F4xx_HAL_Driver/Src/stm32f4xx_ll_sdmmc.c ****     [..]  This section provides functions allowing to:
 220:Drivers/STM32F4xx_HAL_Driver/Src/stm32f4xx_ll_sdmmc.c ****  
 221:Drivers/STM32F4xx_HAL_Driver/Src/stm32f4xx_ll_sdmmc.c **** @endverbatim
 222:Drivers/STM32F4xx_HAL_Driver/Src/stm32f4xx_ll_sdmmc.c ****   * @{
 223:Drivers/STM32F4xx_HAL_Driver/Src/stm32f4xx_ll_sdmmc.c ****   */
 224:Drivers/STM32F4xx_HAL_Driver/Src/stm32f4xx_ll_sdmmc.c **** 
 225:Drivers/STM32F4xx_HAL_Driver/Src/stm32f4xx_ll_sdmmc.c **** /**
 226:Drivers/STM32F4xx_HAL_Driver/Src/stm32f4xx_ll_sdmmc.c ****   * @brief  Initializes the SDMMC according to the specified
 227:Drivers/STM32F4xx_HAL_Driver/Src/stm32f4xx_ll_sdmmc.c ****   *         parameters in the SDMMC_InitTypeDef and create the associated handle.
 228:Drivers/STM32F4xx_HAL_Driver/Src/stm32f4xx_ll_sdmmc.c ****   * @param  SDIOx Pointer to SDMMC register base
 229:Drivers/STM32F4xx_HAL_Driver/Src/stm32f4xx_ll_sdmmc.c ****   * @param  Init SDMMC initialization structure   
 230:Drivers/STM32F4xx_HAL_Driver/Src/stm32f4xx_ll_sdmmc.c ****   * @retval HAL status
 231:Drivers/STM32F4xx_HAL_Driver/Src/stm32f4xx_ll_sdmmc.c ****   */
 232:Drivers/STM32F4xx_HAL_Driver/Src/stm32f4xx_ll_sdmmc.c **** HAL_StatusTypeDef SDIO_Init(SDIO_TypeDef *SDIOx, SDIO_InitTypeDef Init)
 233:Drivers/STM32F4xx_HAL_Driver/Src/stm32f4xx_ll_sdmmc.c **** {
 234:Drivers/STM32F4xx_HAL_Driver/Src/stm32f4xx_ll_sdmmc.c ****   uint32_t tmpreg = 0U;
 235:Drivers/STM32F4xx_HAL_Driver/Src/stm32f4xx_ll_sdmmc.c **** 
 236:Drivers/STM32F4xx_HAL_Driver/Src/stm32f4xx_ll_sdmmc.c ****   /* Check the parameters */
 237:Drivers/STM32F4xx_HAL_Driver/Src/stm32f4xx_ll_sdmmc.c ****   assert_param(IS_SDIO_ALL_INSTANCE(SDIOx));
 238:Drivers/STM32F4xx_HAL_Driver/Src/stm32f4xx_ll_sdmmc.c ****   assert_param(IS_SDIO_CLOCK_EDGE(Init.ClockEdge)); 
 239:Drivers/STM32F4xx_HAL_Driver/Src/stm32f4xx_ll_sdmmc.c ****   assert_param(IS_SDIO_CLOCK_BYPASS(Init.ClockBypass));
 240:Drivers/STM32F4xx_HAL_Driver/Src/stm32f4xx_ll_sdmmc.c ****   assert_param(IS_SDIO_CLOCK_POWER_SAVE(Init.ClockPowerSave));
 241:Drivers/STM32F4xx_HAL_Driver/Src/stm32f4xx_ll_sdmmc.c ****   assert_param(IS_SDIO_BUS_WIDE(Init.BusWide));
 242:Drivers/STM32F4xx_HAL_Driver/Src/stm32f4xx_ll_sdmmc.c ****   assert_param(IS_SDIO_HARDWARE_FLOW_CONTROL(Init.HardwareFlowControl));
 243:Drivers/STM32F4xx_HAL_Driver/Src/stm32f4xx_ll_sdmmc.c ****   assert_param(IS_SDIO_CLKDIV(Init.ClockDiv));
 244:Drivers/STM32F4xx_HAL_Driver/Src/stm32f4xx_ll_sdmmc.c ****   
 245:Drivers/STM32F4xx_HAL_Driver/Src/stm32f4xx_ll_sdmmc.c ****   /* Set SDMMC configuration parameters */
 246:Drivers/STM32F4xx_HAL_Driver/Src/stm32f4xx_ll_sdmmc.c ****   tmpreg |= (Init.ClockEdge           |\
 247:Drivers/STM32F4xx_HAL_Driver/Src/stm32f4xx_ll_sdmmc.c ****              Init.ClockBypass         |\
 248:Drivers/STM32F4xx_HAL_Driver/Src/stm32f4xx_ll_sdmmc.c ****              Init.ClockPowerSave      |\
 249:Drivers/STM32F4xx_HAL_Driver/Src/stm32f4xx_ll_sdmmc.c ****              Init.BusWide             |\
 250:Drivers/STM32F4xx_HAL_Driver/Src/stm32f4xx_ll_sdmmc.c ****              Init.HardwareFlowControl |\
 251:Drivers/STM32F4xx_HAL_Driver/Src/stm32f4xx_ll_sdmmc.c ****              Init.ClockDiv
 252:Drivers/STM32F4xx_HAL_Driver/Src/stm32f4xx_ll_sdmmc.c ****              ); 
 253:Drivers/STM32F4xx_HAL_Driver/Src/stm32f4xx_ll_sdmmc.c ****   
 254:Drivers/STM32F4xx_HAL_Driver/Src/stm32f4xx_ll_sdmmc.c ****   /* Write to SDMMC CLKCR */
 255:Drivers/STM32F4xx_HAL_Driver/Src/stm32f4xx_ll_sdmmc.c ****   MODIFY_REG(SDIOx->CLKCR, CLKCR_CLEAR_MASK, tmpreg);  
 256:Drivers/STM32F4xx_HAL_Driver/Src/stm32f4xx_ll_sdmmc.c **** 
 257:Drivers/STM32F4xx_HAL_Driver/Src/stm32f4xx_ll_sdmmc.c ****   return HAL_OK;
 258:Drivers/STM32F4xx_HAL_Driver/Src/stm32f4xx_ll_sdmmc.c **** }
ARM GAS  /tmp/ccO3W952.s 			page 6


 259:Drivers/STM32F4xx_HAL_Driver/Src/stm32f4xx_ll_sdmmc.c **** 
 260:Drivers/STM32F4xx_HAL_Driver/Src/stm32f4xx_ll_sdmmc.c **** 
 261:Drivers/STM32F4xx_HAL_Driver/Src/stm32f4xx_ll_sdmmc.c **** /**
 262:Drivers/STM32F4xx_HAL_Driver/Src/stm32f4xx_ll_sdmmc.c ****   * @}
 263:Drivers/STM32F4xx_HAL_Driver/Src/stm32f4xx_ll_sdmmc.c ****   */
 264:Drivers/STM32F4xx_HAL_Driver/Src/stm32f4xx_ll_sdmmc.c **** 
 265:Drivers/STM32F4xx_HAL_Driver/Src/stm32f4xx_ll_sdmmc.c **** /** @defgroup HAL_SDMMC_LL_Group2 IO operation functions 
 266:Drivers/STM32F4xx_HAL_Driver/Src/stm32f4xx_ll_sdmmc.c ****  *  @brief   Data transfers functions 
 267:Drivers/STM32F4xx_HAL_Driver/Src/stm32f4xx_ll_sdmmc.c ****  *
 268:Drivers/STM32F4xx_HAL_Driver/Src/stm32f4xx_ll_sdmmc.c **** @verbatim   
 269:Drivers/STM32F4xx_HAL_Driver/Src/stm32f4xx_ll_sdmmc.c ****  ===============================================================================
 270:Drivers/STM32F4xx_HAL_Driver/Src/stm32f4xx_ll_sdmmc.c ****                       ##### I/O operation functions #####
 271:Drivers/STM32F4xx_HAL_Driver/Src/stm32f4xx_ll_sdmmc.c ****  ===============================================================================  
 272:Drivers/STM32F4xx_HAL_Driver/Src/stm32f4xx_ll_sdmmc.c ****     [..]
 273:Drivers/STM32F4xx_HAL_Driver/Src/stm32f4xx_ll_sdmmc.c ****     This subsection provides a set of functions allowing to manage the SDMMC data 
 274:Drivers/STM32F4xx_HAL_Driver/Src/stm32f4xx_ll_sdmmc.c ****     transfers.
 275:Drivers/STM32F4xx_HAL_Driver/Src/stm32f4xx_ll_sdmmc.c **** 
 276:Drivers/STM32F4xx_HAL_Driver/Src/stm32f4xx_ll_sdmmc.c **** @endverbatim
 277:Drivers/STM32F4xx_HAL_Driver/Src/stm32f4xx_ll_sdmmc.c ****   * @{
 278:Drivers/STM32F4xx_HAL_Driver/Src/stm32f4xx_ll_sdmmc.c ****   */
 279:Drivers/STM32F4xx_HAL_Driver/Src/stm32f4xx_ll_sdmmc.c **** 
 280:Drivers/STM32F4xx_HAL_Driver/Src/stm32f4xx_ll_sdmmc.c **** /**
 281:Drivers/STM32F4xx_HAL_Driver/Src/stm32f4xx_ll_sdmmc.c ****   * @brief  Read data (word) from Rx FIFO in blocking mode (polling) 
 282:Drivers/STM32F4xx_HAL_Driver/Src/stm32f4xx_ll_sdmmc.c ****   * @param  SDIOx Pointer to SDMMC register base
 283:Drivers/STM32F4xx_HAL_Driver/Src/stm32f4xx_ll_sdmmc.c ****   * @retval HAL status
 284:Drivers/STM32F4xx_HAL_Driver/Src/stm32f4xx_ll_sdmmc.c ****   */
 285:Drivers/STM32F4xx_HAL_Driver/Src/stm32f4xx_ll_sdmmc.c **** uint32_t SDIO_ReadFIFO(SDIO_TypeDef *SDIOx)
 286:Drivers/STM32F4xx_HAL_Driver/Src/stm32f4xx_ll_sdmmc.c **** {
 287:Drivers/STM32F4xx_HAL_Driver/Src/stm32f4xx_ll_sdmmc.c ****   /* Read data from Rx FIFO */ 
 288:Drivers/STM32F4xx_HAL_Driver/Src/stm32f4xx_ll_sdmmc.c ****   return (SDIOx->FIFO);
 289:Drivers/STM32F4xx_HAL_Driver/Src/stm32f4xx_ll_sdmmc.c **** }
 290:Drivers/STM32F4xx_HAL_Driver/Src/stm32f4xx_ll_sdmmc.c **** 
 291:Drivers/STM32F4xx_HAL_Driver/Src/stm32f4xx_ll_sdmmc.c **** /**
 292:Drivers/STM32F4xx_HAL_Driver/Src/stm32f4xx_ll_sdmmc.c ****   * @brief  Write data (word) to Tx FIFO in blocking mode (polling) 
 293:Drivers/STM32F4xx_HAL_Driver/Src/stm32f4xx_ll_sdmmc.c ****   * @param  SDIOx Pointer to SDMMC register base
 294:Drivers/STM32F4xx_HAL_Driver/Src/stm32f4xx_ll_sdmmc.c ****   * @param  pWriteData pointer to data to write
 295:Drivers/STM32F4xx_HAL_Driver/Src/stm32f4xx_ll_sdmmc.c ****   * @retval HAL status
 296:Drivers/STM32F4xx_HAL_Driver/Src/stm32f4xx_ll_sdmmc.c ****   */
 297:Drivers/STM32F4xx_HAL_Driver/Src/stm32f4xx_ll_sdmmc.c **** HAL_StatusTypeDef SDIO_WriteFIFO(SDIO_TypeDef *SDIOx, uint32_t *pWriteData)
 298:Drivers/STM32F4xx_HAL_Driver/Src/stm32f4xx_ll_sdmmc.c **** { 
 299:Drivers/STM32F4xx_HAL_Driver/Src/stm32f4xx_ll_sdmmc.c ****   /* Write data to FIFO */ 
 300:Drivers/STM32F4xx_HAL_Driver/Src/stm32f4xx_ll_sdmmc.c ****   SDIOx->FIFO = *pWriteData;
 301:Drivers/STM32F4xx_HAL_Driver/Src/stm32f4xx_ll_sdmmc.c **** 
 302:Drivers/STM32F4xx_HAL_Driver/Src/stm32f4xx_ll_sdmmc.c ****   return HAL_OK;
 303:Drivers/STM32F4xx_HAL_Driver/Src/stm32f4xx_ll_sdmmc.c **** }
 304:Drivers/STM32F4xx_HAL_Driver/Src/stm32f4xx_ll_sdmmc.c **** 
 305:Drivers/STM32F4xx_HAL_Driver/Src/stm32f4xx_ll_sdmmc.c **** /**
 306:Drivers/STM32F4xx_HAL_Driver/Src/stm32f4xx_ll_sdmmc.c ****   * @}
 307:Drivers/STM32F4xx_HAL_Driver/Src/stm32f4xx_ll_sdmmc.c ****   */
 308:Drivers/STM32F4xx_HAL_Driver/Src/stm32f4xx_ll_sdmmc.c **** 
 309:Drivers/STM32F4xx_HAL_Driver/Src/stm32f4xx_ll_sdmmc.c **** /** @defgroup HAL_SDMMC_LL_Group3 Peripheral Control functions 
 310:Drivers/STM32F4xx_HAL_Driver/Src/stm32f4xx_ll_sdmmc.c ****  *  @brief   management functions 
 311:Drivers/STM32F4xx_HAL_Driver/Src/stm32f4xx_ll_sdmmc.c ****  *
 312:Drivers/STM32F4xx_HAL_Driver/Src/stm32f4xx_ll_sdmmc.c **** @verbatim   
 313:Drivers/STM32F4xx_HAL_Driver/Src/stm32f4xx_ll_sdmmc.c ****  ===============================================================================
 314:Drivers/STM32F4xx_HAL_Driver/Src/stm32f4xx_ll_sdmmc.c ****                       ##### Peripheral Control functions #####
 315:Drivers/STM32F4xx_HAL_Driver/Src/stm32f4xx_ll_sdmmc.c ****  ===============================================================================  
ARM GAS  /tmp/ccO3W952.s 			page 7


 316:Drivers/STM32F4xx_HAL_Driver/Src/stm32f4xx_ll_sdmmc.c ****     [..]
 317:Drivers/STM32F4xx_HAL_Driver/Src/stm32f4xx_ll_sdmmc.c ****     This subsection provides a set of functions allowing to control the SDMMC data 
 318:Drivers/STM32F4xx_HAL_Driver/Src/stm32f4xx_ll_sdmmc.c ****     transfers.
 319:Drivers/STM32F4xx_HAL_Driver/Src/stm32f4xx_ll_sdmmc.c **** 
 320:Drivers/STM32F4xx_HAL_Driver/Src/stm32f4xx_ll_sdmmc.c **** @endverbatim
 321:Drivers/STM32F4xx_HAL_Driver/Src/stm32f4xx_ll_sdmmc.c ****   * @{
 322:Drivers/STM32F4xx_HAL_Driver/Src/stm32f4xx_ll_sdmmc.c ****   */
 323:Drivers/STM32F4xx_HAL_Driver/Src/stm32f4xx_ll_sdmmc.c **** 
 324:Drivers/STM32F4xx_HAL_Driver/Src/stm32f4xx_ll_sdmmc.c **** /**
 325:Drivers/STM32F4xx_HAL_Driver/Src/stm32f4xx_ll_sdmmc.c ****   * @brief  Set SDMMC Power state to ON. 
 326:Drivers/STM32F4xx_HAL_Driver/Src/stm32f4xx_ll_sdmmc.c ****   * @param  SDIOx Pointer to SDMMC register base
 327:Drivers/STM32F4xx_HAL_Driver/Src/stm32f4xx_ll_sdmmc.c ****   * @retval HAL status
 328:Drivers/STM32F4xx_HAL_Driver/Src/stm32f4xx_ll_sdmmc.c ****   */
 329:Drivers/STM32F4xx_HAL_Driver/Src/stm32f4xx_ll_sdmmc.c **** HAL_StatusTypeDef SDIO_PowerState_ON(SDIO_TypeDef *SDIOx)
 330:Drivers/STM32F4xx_HAL_Driver/Src/stm32f4xx_ll_sdmmc.c **** {  
 331:Drivers/STM32F4xx_HAL_Driver/Src/stm32f4xx_ll_sdmmc.c ****   /* Set power state to ON */ 
 332:Drivers/STM32F4xx_HAL_Driver/Src/stm32f4xx_ll_sdmmc.c ****   SDIOx->POWER = SDIO_POWER_PWRCTRL;
 333:Drivers/STM32F4xx_HAL_Driver/Src/stm32f4xx_ll_sdmmc.c ****   
 334:Drivers/STM32F4xx_HAL_Driver/Src/stm32f4xx_ll_sdmmc.c ****   return HAL_OK;
 335:Drivers/STM32F4xx_HAL_Driver/Src/stm32f4xx_ll_sdmmc.c **** }
 336:Drivers/STM32F4xx_HAL_Driver/Src/stm32f4xx_ll_sdmmc.c **** 
 337:Drivers/STM32F4xx_HAL_Driver/Src/stm32f4xx_ll_sdmmc.c **** /**
 338:Drivers/STM32F4xx_HAL_Driver/Src/stm32f4xx_ll_sdmmc.c ****   * @brief  Set SDMMC Power state to OFF. 
 339:Drivers/STM32F4xx_HAL_Driver/Src/stm32f4xx_ll_sdmmc.c ****   * @param  SDIOx Pointer to SDMMC register base
 340:Drivers/STM32F4xx_HAL_Driver/Src/stm32f4xx_ll_sdmmc.c ****   * @retval HAL status
 341:Drivers/STM32F4xx_HAL_Driver/Src/stm32f4xx_ll_sdmmc.c ****   */
 342:Drivers/STM32F4xx_HAL_Driver/Src/stm32f4xx_ll_sdmmc.c **** HAL_StatusTypeDef SDIO_PowerState_OFF(SDIO_TypeDef *SDIOx)
 343:Drivers/STM32F4xx_HAL_Driver/Src/stm32f4xx_ll_sdmmc.c **** {
 344:Drivers/STM32F4xx_HAL_Driver/Src/stm32f4xx_ll_sdmmc.c ****   /* Set power state to OFF */
 345:Drivers/STM32F4xx_HAL_Driver/Src/stm32f4xx_ll_sdmmc.c ****   SDIOx->POWER = 0x00000000U;
 346:Drivers/STM32F4xx_HAL_Driver/Src/stm32f4xx_ll_sdmmc.c ****   
 347:Drivers/STM32F4xx_HAL_Driver/Src/stm32f4xx_ll_sdmmc.c ****   return HAL_OK;
 348:Drivers/STM32F4xx_HAL_Driver/Src/stm32f4xx_ll_sdmmc.c **** }
 349:Drivers/STM32F4xx_HAL_Driver/Src/stm32f4xx_ll_sdmmc.c **** 
 350:Drivers/STM32F4xx_HAL_Driver/Src/stm32f4xx_ll_sdmmc.c **** /**
 351:Drivers/STM32F4xx_HAL_Driver/Src/stm32f4xx_ll_sdmmc.c ****   * @brief  Get SDMMC Power state. 
 352:Drivers/STM32F4xx_HAL_Driver/Src/stm32f4xx_ll_sdmmc.c ****   * @param  SDIOx Pointer to SDMMC register base
 353:Drivers/STM32F4xx_HAL_Driver/Src/stm32f4xx_ll_sdmmc.c ****   * @retval Power status of the controller. The returned value can be one of the 
 354:Drivers/STM32F4xx_HAL_Driver/Src/stm32f4xx_ll_sdmmc.c ****   *         following values:
 355:Drivers/STM32F4xx_HAL_Driver/Src/stm32f4xx_ll_sdmmc.c ****   *            - 0x00: Power OFF
 356:Drivers/STM32F4xx_HAL_Driver/Src/stm32f4xx_ll_sdmmc.c ****   *            - 0x02: Power UP
 357:Drivers/STM32F4xx_HAL_Driver/Src/stm32f4xx_ll_sdmmc.c ****   *            - 0x03: Power ON 
 358:Drivers/STM32F4xx_HAL_Driver/Src/stm32f4xx_ll_sdmmc.c ****   */
 359:Drivers/STM32F4xx_HAL_Driver/Src/stm32f4xx_ll_sdmmc.c **** uint32_t SDIO_GetPowerState(SDIO_TypeDef *SDIOx)  
 360:Drivers/STM32F4xx_HAL_Driver/Src/stm32f4xx_ll_sdmmc.c **** {
 361:Drivers/STM32F4xx_HAL_Driver/Src/stm32f4xx_ll_sdmmc.c ****   return (SDIOx->POWER & SDIO_POWER_PWRCTRL);
 362:Drivers/STM32F4xx_HAL_Driver/Src/stm32f4xx_ll_sdmmc.c **** }
 363:Drivers/STM32F4xx_HAL_Driver/Src/stm32f4xx_ll_sdmmc.c **** 
 364:Drivers/STM32F4xx_HAL_Driver/Src/stm32f4xx_ll_sdmmc.c **** /**
 365:Drivers/STM32F4xx_HAL_Driver/Src/stm32f4xx_ll_sdmmc.c ****   * @brief  Configure the SDMMC command path according to the specified parameters in
 366:Drivers/STM32F4xx_HAL_Driver/Src/stm32f4xx_ll_sdmmc.c ****   *         SDIO_CmdInitTypeDef structure and send the command 
 367:Drivers/STM32F4xx_HAL_Driver/Src/stm32f4xx_ll_sdmmc.c ****   * @param  SDIOx Pointer to SDMMC register base
 368:Drivers/STM32F4xx_HAL_Driver/Src/stm32f4xx_ll_sdmmc.c ****   * @param  Command pointer to a SDIO_CmdInitTypeDef structure that contains 
 369:Drivers/STM32F4xx_HAL_Driver/Src/stm32f4xx_ll_sdmmc.c ****   *         the configuration information for the SDMMC command
 370:Drivers/STM32F4xx_HAL_Driver/Src/stm32f4xx_ll_sdmmc.c ****   * @retval HAL status
 371:Drivers/STM32F4xx_HAL_Driver/Src/stm32f4xx_ll_sdmmc.c ****   */
 372:Drivers/STM32F4xx_HAL_Driver/Src/stm32f4xx_ll_sdmmc.c **** HAL_StatusTypeDef SDIO_SendCommand(SDIO_TypeDef *SDIOx, SDIO_CmdInitTypeDef *Command)
ARM GAS  /tmp/ccO3W952.s 			page 8


 373:Drivers/STM32F4xx_HAL_Driver/Src/stm32f4xx_ll_sdmmc.c **** {
 374:Drivers/STM32F4xx_HAL_Driver/Src/stm32f4xx_ll_sdmmc.c ****   uint32_t tmpreg = 0U;
 375:Drivers/STM32F4xx_HAL_Driver/Src/stm32f4xx_ll_sdmmc.c ****   
 376:Drivers/STM32F4xx_HAL_Driver/Src/stm32f4xx_ll_sdmmc.c ****   /* Check the parameters */
 377:Drivers/STM32F4xx_HAL_Driver/Src/stm32f4xx_ll_sdmmc.c ****   assert_param(IS_SDIO_CMD_INDEX(Command->CmdIndex));
 378:Drivers/STM32F4xx_HAL_Driver/Src/stm32f4xx_ll_sdmmc.c ****   assert_param(IS_SDIO_RESPONSE(Command->Response));
 379:Drivers/STM32F4xx_HAL_Driver/Src/stm32f4xx_ll_sdmmc.c ****   assert_param(IS_SDIO_WAIT(Command->WaitForInterrupt));
 380:Drivers/STM32F4xx_HAL_Driver/Src/stm32f4xx_ll_sdmmc.c ****   assert_param(IS_SDIO_CPSM(Command->CPSM));
 381:Drivers/STM32F4xx_HAL_Driver/Src/stm32f4xx_ll_sdmmc.c **** 
 382:Drivers/STM32F4xx_HAL_Driver/Src/stm32f4xx_ll_sdmmc.c ****   /* Set the SDMMC Argument value */
 383:Drivers/STM32F4xx_HAL_Driver/Src/stm32f4xx_ll_sdmmc.c ****   SDIOx->ARG = Command->Argument;
 384:Drivers/STM32F4xx_HAL_Driver/Src/stm32f4xx_ll_sdmmc.c **** 
 385:Drivers/STM32F4xx_HAL_Driver/Src/stm32f4xx_ll_sdmmc.c ****   /* Set SDMMC command parameters */
 386:Drivers/STM32F4xx_HAL_Driver/Src/stm32f4xx_ll_sdmmc.c ****   tmpreg |= (uint32_t)(Command->CmdIndex         |\
 387:Drivers/STM32F4xx_HAL_Driver/Src/stm32f4xx_ll_sdmmc.c ****                        Command->Response         |\
 388:Drivers/STM32F4xx_HAL_Driver/Src/stm32f4xx_ll_sdmmc.c ****                        Command->WaitForInterrupt |\
 389:Drivers/STM32F4xx_HAL_Driver/Src/stm32f4xx_ll_sdmmc.c ****                        Command->CPSM);
 390:Drivers/STM32F4xx_HAL_Driver/Src/stm32f4xx_ll_sdmmc.c ****   
 391:Drivers/STM32F4xx_HAL_Driver/Src/stm32f4xx_ll_sdmmc.c ****   /* Write to SDMMC CMD register */
 392:Drivers/STM32F4xx_HAL_Driver/Src/stm32f4xx_ll_sdmmc.c ****   MODIFY_REG(SDIOx->CMD, CMD_CLEAR_MASK, tmpreg); 
 393:Drivers/STM32F4xx_HAL_Driver/Src/stm32f4xx_ll_sdmmc.c ****   
 394:Drivers/STM32F4xx_HAL_Driver/Src/stm32f4xx_ll_sdmmc.c ****   return HAL_OK;  
 395:Drivers/STM32F4xx_HAL_Driver/Src/stm32f4xx_ll_sdmmc.c **** }
 396:Drivers/STM32F4xx_HAL_Driver/Src/stm32f4xx_ll_sdmmc.c **** 
 397:Drivers/STM32F4xx_HAL_Driver/Src/stm32f4xx_ll_sdmmc.c **** /**
 398:Drivers/STM32F4xx_HAL_Driver/Src/stm32f4xx_ll_sdmmc.c ****   * @brief  Return the command index of last command for which response received
 399:Drivers/STM32F4xx_HAL_Driver/Src/stm32f4xx_ll_sdmmc.c ****   * @param  SDIOx Pointer to SDMMC register base
 400:Drivers/STM32F4xx_HAL_Driver/Src/stm32f4xx_ll_sdmmc.c ****   * @retval Command index of the last command response received
 401:Drivers/STM32F4xx_HAL_Driver/Src/stm32f4xx_ll_sdmmc.c ****   */
 402:Drivers/STM32F4xx_HAL_Driver/Src/stm32f4xx_ll_sdmmc.c **** uint8_t SDIO_GetCommandResponse(SDIO_TypeDef *SDIOx)
 403:Drivers/STM32F4xx_HAL_Driver/Src/stm32f4xx_ll_sdmmc.c **** {
 404:Drivers/STM32F4xx_HAL_Driver/Src/stm32f4xx_ll_sdmmc.c ****   return (uint8_t)(SDIOx->RESPCMD);
 405:Drivers/STM32F4xx_HAL_Driver/Src/stm32f4xx_ll_sdmmc.c **** }
 406:Drivers/STM32F4xx_HAL_Driver/Src/stm32f4xx_ll_sdmmc.c **** 
 407:Drivers/STM32F4xx_HAL_Driver/Src/stm32f4xx_ll_sdmmc.c **** 
 408:Drivers/STM32F4xx_HAL_Driver/Src/stm32f4xx_ll_sdmmc.c **** /**
 409:Drivers/STM32F4xx_HAL_Driver/Src/stm32f4xx_ll_sdmmc.c ****   * @brief  Return the response received from the card for the last command
 410:Drivers/STM32F4xx_HAL_Driver/Src/stm32f4xx_ll_sdmmc.c ****   * @param  SDIOx Pointer to SDMMC register base    
 411:Drivers/STM32F4xx_HAL_Driver/Src/stm32f4xx_ll_sdmmc.c ****   * @param  Response Specifies the SDMMC response register. 
 412:Drivers/STM32F4xx_HAL_Driver/Src/stm32f4xx_ll_sdmmc.c ****   *          This parameter can be one of the following values:
 413:Drivers/STM32F4xx_HAL_Driver/Src/stm32f4xx_ll_sdmmc.c ****   *            @arg SDIO_RESP1: Response Register 1
 414:Drivers/STM32F4xx_HAL_Driver/Src/stm32f4xx_ll_sdmmc.c ****   *            @arg SDIO_RESP1: Response Register 2
 415:Drivers/STM32F4xx_HAL_Driver/Src/stm32f4xx_ll_sdmmc.c ****   *            @arg SDIO_RESP1: Response Register 3
 416:Drivers/STM32F4xx_HAL_Driver/Src/stm32f4xx_ll_sdmmc.c ****   *            @arg SDIO_RESP1: Response Register 4  
 417:Drivers/STM32F4xx_HAL_Driver/Src/stm32f4xx_ll_sdmmc.c ****   * @retval The Corresponding response register value
 418:Drivers/STM32F4xx_HAL_Driver/Src/stm32f4xx_ll_sdmmc.c ****   */
 419:Drivers/STM32F4xx_HAL_Driver/Src/stm32f4xx_ll_sdmmc.c **** uint32_t SDIO_GetResponse(SDIO_TypeDef *SDIOx, uint32_t Response)
 420:Drivers/STM32F4xx_HAL_Driver/Src/stm32f4xx_ll_sdmmc.c **** {
 421:Drivers/STM32F4xx_HAL_Driver/Src/stm32f4xx_ll_sdmmc.c ****   __IO uint32_t tmp = 0U;
 422:Drivers/STM32F4xx_HAL_Driver/Src/stm32f4xx_ll_sdmmc.c **** 
 423:Drivers/STM32F4xx_HAL_Driver/Src/stm32f4xx_ll_sdmmc.c ****   /* Check the parameters */
 424:Drivers/STM32F4xx_HAL_Driver/Src/stm32f4xx_ll_sdmmc.c ****   assert_param(IS_SDIO_RESP(Response));
 425:Drivers/STM32F4xx_HAL_Driver/Src/stm32f4xx_ll_sdmmc.c ****   
 426:Drivers/STM32F4xx_HAL_Driver/Src/stm32f4xx_ll_sdmmc.c ****   /* Get the response */
 427:Drivers/STM32F4xx_HAL_Driver/Src/stm32f4xx_ll_sdmmc.c ****   tmp = (uint32_t)&(SDIOx->RESP1) + Response;
 428:Drivers/STM32F4xx_HAL_Driver/Src/stm32f4xx_ll_sdmmc.c ****   
 429:Drivers/STM32F4xx_HAL_Driver/Src/stm32f4xx_ll_sdmmc.c ****   return (*(__IO uint32_t *) tmp);
ARM GAS  /tmp/ccO3W952.s 			page 9


 430:Drivers/STM32F4xx_HAL_Driver/Src/stm32f4xx_ll_sdmmc.c **** }  
 431:Drivers/STM32F4xx_HAL_Driver/Src/stm32f4xx_ll_sdmmc.c **** 
 432:Drivers/STM32F4xx_HAL_Driver/Src/stm32f4xx_ll_sdmmc.c **** /**
 433:Drivers/STM32F4xx_HAL_Driver/Src/stm32f4xx_ll_sdmmc.c ****   * @brief  Configure the SDMMC data path according to the specified 
 434:Drivers/STM32F4xx_HAL_Driver/Src/stm32f4xx_ll_sdmmc.c ****   *         parameters in the SDIO_DataInitTypeDef.
 435:Drivers/STM32F4xx_HAL_Driver/Src/stm32f4xx_ll_sdmmc.c ****   * @param  SDIOx Pointer to SDMMC register base  
 436:Drivers/STM32F4xx_HAL_Driver/Src/stm32f4xx_ll_sdmmc.c ****   * @param  Data  pointer to a SDIO_DataInitTypeDef structure 
 437:Drivers/STM32F4xx_HAL_Driver/Src/stm32f4xx_ll_sdmmc.c ****   *         that contains the configuration information for the SDMMC data.
 438:Drivers/STM32F4xx_HAL_Driver/Src/stm32f4xx_ll_sdmmc.c ****   * @retval HAL status
 439:Drivers/STM32F4xx_HAL_Driver/Src/stm32f4xx_ll_sdmmc.c ****   */
 440:Drivers/STM32F4xx_HAL_Driver/Src/stm32f4xx_ll_sdmmc.c **** HAL_StatusTypeDef SDIO_ConfigData(SDIO_TypeDef *SDIOx, SDIO_DataInitTypeDef* Data)
 441:Drivers/STM32F4xx_HAL_Driver/Src/stm32f4xx_ll_sdmmc.c **** {
 442:Drivers/STM32F4xx_HAL_Driver/Src/stm32f4xx_ll_sdmmc.c ****   uint32_t tmpreg = 0U;
 443:Drivers/STM32F4xx_HAL_Driver/Src/stm32f4xx_ll_sdmmc.c ****   
 444:Drivers/STM32F4xx_HAL_Driver/Src/stm32f4xx_ll_sdmmc.c ****   /* Check the parameters */
 445:Drivers/STM32F4xx_HAL_Driver/Src/stm32f4xx_ll_sdmmc.c ****   assert_param(IS_SDIO_DATA_LENGTH(Data->DataLength));
 446:Drivers/STM32F4xx_HAL_Driver/Src/stm32f4xx_ll_sdmmc.c ****   assert_param(IS_SDIO_BLOCK_SIZE(Data->DataBlockSize));
 447:Drivers/STM32F4xx_HAL_Driver/Src/stm32f4xx_ll_sdmmc.c ****   assert_param(IS_SDIO_TRANSFER_DIR(Data->TransferDir));
 448:Drivers/STM32F4xx_HAL_Driver/Src/stm32f4xx_ll_sdmmc.c ****   assert_param(IS_SDIO_TRANSFER_MODE(Data->TransferMode));
 449:Drivers/STM32F4xx_HAL_Driver/Src/stm32f4xx_ll_sdmmc.c ****   assert_param(IS_SDIO_DPSM(Data->DPSM));
 450:Drivers/STM32F4xx_HAL_Driver/Src/stm32f4xx_ll_sdmmc.c **** 
 451:Drivers/STM32F4xx_HAL_Driver/Src/stm32f4xx_ll_sdmmc.c ****   /* Set the SDMMC Data TimeOut value */
 452:Drivers/STM32F4xx_HAL_Driver/Src/stm32f4xx_ll_sdmmc.c ****   SDIOx->DTIMER = Data->DataTimeOut;
 453:Drivers/STM32F4xx_HAL_Driver/Src/stm32f4xx_ll_sdmmc.c **** 
 454:Drivers/STM32F4xx_HAL_Driver/Src/stm32f4xx_ll_sdmmc.c ****   /* Set the SDMMC DataLength value */
 455:Drivers/STM32F4xx_HAL_Driver/Src/stm32f4xx_ll_sdmmc.c ****   SDIOx->DLEN = Data->DataLength;
 456:Drivers/STM32F4xx_HAL_Driver/Src/stm32f4xx_ll_sdmmc.c **** 
 457:Drivers/STM32F4xx_HAL_Driver/Src/stm32f4xx_ll_sdmmc.c ****   /* Set the SDMMC data configuration parameters */
 458:Drivers/STM32F4xx_HAL_Driver/Src/stm32f4xx_ll_sdmmc.c ****   tmpreg |= (uint32_t)(Data->DataBlockSize |\
 459:Drivers/STM32F4xx_HAL_Driver/Src/stm32f4xx_ll_sdmmc.c ****                        Data->TransferDir   |\
 460:Drivers/STM32F4xx_HAL_Driver/Src/stm32f4xx_ll_sdmmc.c ****                        Data->TransferMode  |\
 461:Drivers/STM32F4xx_HAL_Driver/Src/stm32f4xx_ll_sdmmc.c ****                        Data->DPSM);
 462:Drivers/STM32F4xx_HAL_Driver/Src/stm32f4xx_ll_sdmmc.c ****   
 463:Drivers/STM32F4xx_HAL_Driver/Src/stm32f4xx_ll_sdmmc.c ****   /* Write to SDMMC DCTRL */
 464:Drivers/STM32F4xx_HAL_Driver/Src/stm32f4xx_ll_sdmmc.c ****   MODIFY_REG(SDIOx->DCTRL, DCTRL_CLEAR_MASK, tmpreg);
 465:Drivers/STM32F4xx_HAL_Driver/Src/stm32f4xx_ll_sdmmc.c **** 
 466:Drivers/STM32F4xx_HAL_Driver/Src/stm32f4xx_ll_sdmmc.c ****   return HAL_OK;
 467:Drivers/STM32F4xx_HAL_Driver/Src/stm32f4xx_ll_sdmmc.c **** 
 468:Drivers/STM32F4xx_HAL_Driver/Src/stm32f4xx_ll_sdmmc.c **** }
 469:Drivers/STM32F4xx_HAL_Driver/Src/stm32f4xx_ll_sdmmc.c **** 
 470:Drivers/STM32F4xx_HAL_Driver/Src/stm32f4xx_ll_sdmmc.c **** /**
 471:Drivers/STM32F4xx_HAL_Driver/Src/stm32f4xx_ll_sdmmc.c ****   * @brief  Returns number of remaining data bytes to be transferred.
 472:Drivers/STM32F4xx_HAL_Driver/Src/stm32f4xx_ll_sdmmc.c ****   * @param  SDIOx Pointer to SDMMC register base
 473:Drivers/STM32F4xx_HAL_Driver/Src/stm32f4xx_ll_sdmmc.c ****   * @retval Number of remaining data bytes to be transferred
 474:Drivers/STM32F4xx_HAL_Driver/Src/stm32f4xx_ll_sdmmc.c ****   */
 475:Drivers/STM32F4xx_HAL_Driver/Src/stm32f4xx_ll_sdmmc.c **** uint32_t SDIO_GetDataCounter(SDIO_TypeDef *SDIOx)
 476:Drivers/STM32F4xx_HAL_Driver/Src/stm32f4xx_ll_sdmmc.c **** {
 477:Drivers/STM32F4xx_HAL_Driver/Src/stm32f4xx_ll_sdmmc.c ****   return (SDIOx->DCOUNT);
 478:Drivers/STM32F4xx_HAL_Driver/Src/stm32f4xx_ll_sdmmc.c **** }
 479:Drivers/STM32F4xx_HAL_Driver/Src/stm32f4xx_ll_sdmmc.c **** 
 480:Drivers/STM32F4xx_HAL_Driver/Src/stm32f4xx_ll_sdmmc.c **** /**
 481:Drivers/STM32F4xx_HAL_Driver/Src/stm32f4xx_ll_sdmmc.c ****   * @brief  Get the FIFO data
 482:Drivers/STM32F4xx_HAL_Driver/Src/stm32f4xx_ll_sdmmc.c ****   * @param  SDIOx Pointer to SDMMC register base 
 483:Drivers/STM32F4xx_HAL_Driver/Src/stm32f4xx_ll_sdmmc.c ****   * @retval Data received
 484:Drivers/STM32F4xx_HAL_Driver/Src/stm32f4xx_ll_sdmmc.c ****   */
 485:Drivers/STM32F4xx_HAL_Driver/Src/stm32f4xx_ll_sdmmc.c **** uint32_t SDIO_GetFIFOCount(SDIO_TypeDef *SDIOx)
 486:Drivers/STM32F4xx_HAL_Driver/Src/stm32f4xx_ll_sdmmc.c **** {
ARM GAS  /tmp/ccO3W952.s 			page 10


 487:Drivers/STM32F4xx_HAL_Driver/Src/stm32f4xx_ll_sdmmc.c ****   return (SDIOx->FIFO);
 488:Drivers/STM32F4xx_HAL_Driver/Src/stm32f4xx_ll_sdmmc.c **** }
 489:Drivers/STM32F4xx_HAL_Driver/Src/stm32f4xx_ll_sdmmc.c **** 
 490:Drivers/STM32F4xx_HAL_Driver/Src/stm32f4xx_ll_sdmmc.c **** /**
 491:Drivers/STM32F4xx_HAL_Driver/Src/stm32f4xx_ll_sdmmc.c ****   * @brief  Sets one of the two options of inserting read wait interval.
 492:Drivers/STM32F4xx_HAL_Driver/Src/stm32f4xx_ll_sdmmc.c ****   * @param  SDIOx Pointer to SDMMC register base   
 493:Drivers/STM32F4xx_HAL_Driver/Src/stm32f4xx_ll_sdmmc.c ****   * @param  SDIO_ReadWaitMode SDMMC Read Wait operation mode.
 494:Drivers/STM32F4xx_HAL_Driver/Src/stm32f4xx_ll_sdmmc.c ****   *          This parameter can be:
 495:Drivers/STM32F4xx_HAL_Driver/Src/stm32f4xx_ll_sdmmc.c ****   *            @arg SDIO_READ_WAIT_MODE_CLK: Read Wait control by stopping SDMMCCLK
 496:Drivers/STM32F4xx_HAL_Driver/Src/stm32f4xx_ll_sdmmc.c ****   *            @arg SDIO_READ_WAIT_MODE_DATA2: Read Wait control using SDMMC_DATA2
 497:Drivers/STM32F4xx_HAL_Driver/Src/stm32f4xx_ll_sdmmc.c ****   * @retval None
 498:Drivers/STM32F4xx_HAL_Driver/Src/stm32f4xx_ll_sdmmc.c ****   */
 499:Drivers/STM32F4xx_HAL_Driver/Src/stm32f4xx_ll_sdmmc.c **** HAL_StatusTypeDef SDIO_SetSDMMCReadWaitMode(SDIO_TypeDef *SDIOx, uint32_t SDIO_ReadWaitMode)
 500:Drivers/STM32F4xx_HAL_Driver/Src/stm32f4xx_ll_sdmmc.c **** {
 501:Drivers/STM32F4xx_HAL_Driver/Src/stm32f4xx_ll_sdmmc.c ****   /* Check the parameters */
 502:Drivers/STM32F4xx_HAL_Driver/Src/stm32f4xx_ll_sdmmc.c ****   assert_param(IS_SDIO_READWAIT_MODE(SDIO_ReadWaitMode));
 503:Drivers/STM32F4xx_HAL_Driver/Src/stm32f4xx_ll_sdmmc.c **** 
 504:Drivers/STM32F4xx_HAL_Driver/Src/stm32f4xx_ll_sdmmc.c ****   /* Set SDMMC read wait mode */
 505:Drivers/STM32F4xx_HAL_Driver/Src/stm32f4xx_ll_sdmmc.c ****   MODIFY_REG(SDIOx->DCTRL, SDIO_DCTRL_RWMOD, SDIO_ReadWaitMode);
 506:Drivers/STM32F4xx_HAL_Driver/Src/stm32f4xx_ll_sdmmc.c ****   
 507:Drivers/STM32F4xx_HAL_Driver/Src/stm32f4xx_ll_sdmmc.c ****   return HAL_OK;  
 508:Drivers/STM32F4xx_HAL_Driver/Src/stm32f4xx_ll_sdmmc.c **** }
 509:Drivers/STM32F4xx_HAL_Driver/Src/stm32f4xx_ll_sdmmc.c **** 
 510:Drivers/STM32F4xx_HAL_Driver/Src/stm32f4xx_ll_sdmmc.c **** /**
 511:Drivers/STM32F4xx_HAL_Driver/Src/stm32f4xx_ll_sdmmc.c ****   * @}
 512:Drivers/STM32F4xx_HAL_Driver/Src/stm32f4xx_ll_sdmmc.c ****   */
 513:Drivers/STM32F4xx_HAL_Driver/Src/stm32f4xx_ll_sdmmc.c **** 
 514:Drivers/STM32F4xx_HAL_Driver/Src/stm32f4xx_ll_sdmmc.c **** 
 515:Drivers/STM32F4xx_HAL_Driver/Src/stm32f4xx_ll_sdmmc.c **** /** @defgroup HAL_SDMMC_LL_Group4 Command management functions 
 516:Drivers/STM32F4xx_HAL_Driver/Src/stm32f4xx_ll_sdmmc.c ****  *  @brief   Data transfers functions 
 517:Drivers/STM32F4xx_HAL_Driver/Src/stm32f4xx_ll_sdmmc.c ****  *
 518:Drivers/STM32F4xx_HAL_Driver/Src/stm32f4xx_ll_sdmmc.c **** @verbatim   
 519:Drivers/STM32F4xx_HAL_Driver/Src/stm32f4xx_ll_sdmmc.c ****  ===============================================================================
 520:Drivers/STM32F4xx_HAL_Driver/Src/stm32f4xx_ll_sdmmc.c ****                    ##### Commands management functions #####
 521:Drivers/STM32F4xx_HAL_Driver/Src/stm32f4xx_ll_sdmmc.c ****  ===============================================================================  
 522:Drivers/STM32F4xx_HAL_Driver/Src/stm32f4xx_ll_sdmmc.c ****     [..]
 523:Drivers/STM32F4xx_HAL_Driver/Src/stm32f4xx_ll_sdmmc.c ****     This subsection provides a set of functions allowing to manage the needed commands.
 524:Drivers/STM32F4xx_HAL_Driver/Src/stm32f4xx_ll_sdmmc.c **** 
 525:Drivers/STM32F4xx_HAL_Driver/Src/stm32f4xx_ll_sdmmc.c **** @endverbatim
 526:Drivers/STM32F4xx_HAL_Driver/Src/stm32f4xx_ll_sdmmc.c ****   * @{
 527:Drivers/STM32F4xx_HAL_Driver/Src/stm32f4xx_ll_sdmmc.c ****   */
 528:Drivers/STM32F4xx_HAL_Driver/Src/stm32f4xx_ll_sdmmc.c **** 
 529:Drivers/STM32F4xx_HAL_Driver/Src/stm32f4xx_ll_sdmmc.c **** /**
 530:Drivers/STM32F4xx_HAL_Driver/Src/stm32f4xx_ll_sdmmc.c ****   * @brief  Send the Data Block Lenght command and check the response
 531:Drivers/STM32F4xx_HAL_Driver/Src/stm32f4xx_ll_sdmmc.c ****   * @param  SDIOx Pointer to SDMMC register base 
 532:Drivers/STM32F4xx_HAL_Driver/Src/stm32f4xx_ll_sdmmc.c ****   * @retval HAL status
 533:Drivers/STM32F4xx_HAL_Driver/Src/stm32f4xx_ll_sdmmc.c ****   */
 534:Drivers/STM32F4xx_HAL_Driver/Src/stm32f4xx_ll_sdmmc.c **** uint32_t SDMMC_CmdBlockLength(SDIO_TypeDef *SDIOx, uint32_t BlockSize)
 535:Drivers/STM32F4xx_HAL_Driver/Src/stm32f4xx_ll_sdmmc.c **** {
 536:Drivers/STM32F4xx_HAL_Driver/Src/stm32f4xx_ll_sdmmc.c ****   SDIO_CmdInitTypeDef  sdmmc_cmdinit;
 537:Drivers/STM32F4xx_HAL_Driver/Src/stm32f4xx_ll_sdmmc.c ****   uint32_t errorstate = SDMMC_ERROR_NONE;
 538:Drivers/STM32F4xx_HAL_Driver/Src/stm32f4xx_ll_sdmmc.c ****   
 539:Drivers/STM32F4xx_HAL_Driver/Src/stm32f4xx_ll_sdmmc.c ****   /* Set Block Size for Card */ 
 540:Drivers/STM32F4xx_HAL_Driver/Src/stm32f4xx_ll_sdmmc.c ****   sdmmc_cmdinit.Argument         = (uint32_t)BlockSize;
 541:Drivers/STM32F4xx_HAL_Driver/Src/stm32f4xx_ll_sdmmc.c ****   sdmmc_cmdinit.CmdIndex         = SDMMC_CMD_SET_BLOCKLEN;
 542:Drivers/STM32F4xx_HAL_Driver/Src/stm32f4xx_ll_sdmmc.c ****   sdmmc_cmdinit.Response         = SDIO_RESPONSE_SHORT;
 543:Drivers/STM32F4xx_HAL_Driver/Src/stm32f4xx_ll_sdmmc.c ****   sdmmc_cmdinit.WaitForInterrupt = SDIO_WAIT_NO;
ARM GAS  /tmp/ccO3W952.s 			page 11


 544:Drivers/STM32F4xx_HAL_Driver/Src/stm32f4xx_ll_sdmmc.c ****   sdmmc_cmdinit.CPSM             = SDIO_CPSM_ENABLE;
 545:Drivers/STM32F4xx_HAL_Driver/Src/stm32f4xx_ll_sdmmc.c ****   SDIO_SendCommand(SDIOx, &sdmmc_cmdinit);
 546:Drivers/STM32F4xx_HAL_Driver/Src/stm32f4xx_ll_sdmmc.c ****   
 547:Drivers/STM32F4xx_HAL_Driver/Src/stm32f4xx_ll_sdmmc.c ****   /* Check for error conditions */
 548:Drivers/STM32F4xx_HAL_Driver/Src/stm32f4xx_ll_sdmmc.c ****   errorstate = SDMMC_GetCmdResp1(SDIOx, SDMMC_CMD_SET_BLOCKLEN, SDIO_CMDTIMEOUT);
 549:Drivers/STM32F4xx_HAL_Driver/Src/stm32f4xx_ll_sdmmc.c **** 
 550:Drivers/STM32F4xx_HAL_Driver/Src/stm32f4xx_ll_sdmmc.c ****   return errorstate;
 551:Drivers/STM32F4xx_HAL_Driver/Src/stm32f4xx_ll_sdmmc.c **** }
 552:Drivers/STM32F4xx_HAL_Driver/Src/stm32f4xx_ll_sdmmc.c **** 
 553:Drivers/STM32F4xx_HAL_Driver/Src/stm32f4xx_ll_sdmmc.c **** /**
 554:Drivers/STM32F4xx_HAL_Driver/Src/stm32f4xx_ll_sdmmc.c ****   * @brief  Send the Read Single Block command and check the response
 555:Drivers/STM32F4xx_HAL_Driver/Src/stm32f4xx_ll_sdmmc.c ****   * @param  SDIOx Pointer to SDMMC register base 
 556:Drivers/STM32F4xx_HAL_Driver/Src/stm32f4xx_ll_sdmmc.c ****   * @retval HAL status
 557:Drivers/STM32F4xx_HAL_Driver/Src/stm32f4xx_ll_sdmmc.c ****   */
 558:Drivers/STM32F4xx_HAL_Driver/Src/stm32f4xx_ll_sdmmc.c **** uint32_t SDMMC_CmdReadSingleBlock(SDIO_TypeDef *SDIOx, uint32_t ReadAdd)
 559:Drivers/STM32F4xx_HAL_Driver/Src/stm32f4xx_ll_sdmmc.c **** {
 560:Drivers/STM32F4xx_HAL_Driver/Src/stm32f4xx_ll_sdmmc.c ****   SDIO_CmdInitTypeDef  sdmmc_cmdinit;
 561:Drivers/STM32F4xx_HAL_Driver/Src/stm32f4xx_ll_sdmmc.c ****   uint32_t errorstate = SDMMC_ERROR_NONE;
 562:Drivers/STM32F4xx_HAL_Driver/Src/stm32f4xx_ll_sdmmc.c ****   
 563:Drivers/STM32F4xx_HAL_Driver/Src/stm32f4xx_ll_sdmmc.c ****   /* Set Block Size for Card */ 
 564:Drivers/STM32F4xx_HAL_Driver/Src/stm32f4xx_ll_sdmmc.c ****   sdmmc_cmdinit.Argument         = (uint32_t)ReadAdd;
 565:Drivers/STM32F4xx_HAL_Driver/Src/stm32f4xx_ll_sdmmc.c ****   sdmmc_cmdinit.CmdIndex         = SDMMC_CMD_READ_SINGLE_BLOCK;
 566:Drivers/STM32F4xx_HAL_Driver/Src/stm32f4xx_ll_sdmmc.c ****   sdmmc_cmdinit.Response         = SDIO_RESPONSE_SHORT;
 567:Drivers/STM32F4xx_HAL_Driver/Src/stm32f4xx_ll_sdmmc.c ****   sdmmc_cmdinit.WaitForInterrupt = SDIO_WAIT_NO;
 568:Drivers/STM32F4xx_HAL_Driver/Src/stm32f4xx_ll_sdmmc.c ****   sdmmc_cmdinit.CPSM             = SDIO_CPSM_ENABLE;
 569:Drivers/STM32F4xx_HAL_Driver/Src/stm32f4xx_ll_sdmmc.c ****   SDIO_SendCommand(SDIOx, &sdmmc_cmdinit);
 570:Drivers/STM32F4xx_HAL_Driver/Src/stm32f4xx_ll_sdmmc.c ****   
 571:Drivers/STM32F4xx_HAL_Driver/Src/stm32f4xx_ll_sdmmc.c ****   /* Check for error conditions */
 572:Drivers/STM32F4xx_HAL_Driver/Src/stm32f4xx_ll_sdmmc.c ****   errorstate = SDMMC_GetCmdResp1(SDIOx, SDMMC_CMD_READ_SINGLE_BLOCK, SDIO_CMDTIMEOUT);
 573:Drivers/STM32F4xx_HAL_Driver/Src/stm32f4xx_ll_sdmmc.c **** 
 574:Drivers/STM32F4xx_HAL_Driver/Src/stm32f4xx_ll_sdmmc.c ****   return errorstate;
 575:Drivers/STM32F4xx_HAL_Driver/Src/stm32f4xx_ll_sdmmc.c **** }
 576:Drivers/STM32F4xx_HAL_Driver/Src/stm32f4xx_ll_sdmmc.c **** 
 577:Drivers/STM32F4xx_HAL_Driver/Src/stm32f4xx_ll_sdmmc.c **** /**
 578:Drivers/STM32F4xx_HAL_Driver/Src/stm32f4xx_ll_sdmmc.c ****   * @brief  Send the Read Multi Block command and check the response
 579:Drivers/STM32F4xx_HAL_Driver/Src/stm32f4xx_ll_sdmmc.c ****   * @param  SDIOx Pointer to SDIO register base 
 580:Drivers/STM32F4xx_HAL_Driver/Src/stm32f4xx_ll_sdmmc.c ****   * @retval HAL status
 581:Drivers/STM32F4xx_HAL_Driver/Src/stm32f4xx_ll_sdmmc.c ****   */
 582:Drivers/STM32F4xx_HAL_Driver/Src/stm32f4xx_ll_sdmmc.c **** uint32_t SDMMC_CmdReadMultiBlock(SDIO_TypeDef *SDIOx, uint32_t ReadAdd)
 583:Drivers/STM32F4xx_HAL_Driver/Src/stm32f4xx_ll_sdmmc.c **** {
 584:Drivers/STM32F4xx_HAL_Driver/Src/stm32f4xx_ll_sdmmc.c ****   SDIO_CmdInitTypeDef  sdmmc_cmdinit;
 585:Drivers/STM32F4xx_HAL_Driver/Src/stm32f4xx_ll_sdmmc.c ****   uint32_t errorstate = SDMMC_ERROR_NONE;
 586:Drivers/STM32F4xx_HAL_Driver/Src/stm32f4xx_ll_sdmmc.c ****   
 587:Drivers/STM32F4xx_HAL_Driver/Src/stm32f4xx_ll_sdmmc.c ****   /* Set Block Size for Card */ 
 588:Drivers/STM32F4xx_HAL_Driver/Src/stm32f4xx_ll_sdmmc.c ****   sdmmc_cmdinit.Argument         = (uint32_t)ReadAdd;
 589:Drivers/STM32F4xx_HAL_Driver/Src/stm32f4xx_ll_sdmmc.c ****   sdmmc_cmdinit.CmdIndex         = SDMMC_CMD_READ_MULT_BLOCK;
 590:Drivers/STM32F4xx_HAL_Driver/Src/stm32f4xx_ll_sdmmc.c ****   sdmmc_cmdinit.Response         = SDIO_RESPONSE_SHORT;
 591:Drivers/STM32F4xx_HAL_Driver/Src/stm32f4xx_ll_sdmmc.c ****   sdmmc_cmdinit.WaitForInterrupt = SDIO_WAIT_NO;
 592:Drivers/STM32F4xx_HAL_Driver/Src/stm32f4xx_ll_sdmmc.c ****   sdmmc_cmdinit.CPSM             = SDIO_CPSM_ENABLE;
 593:Drivers/STM32F4xx_HAL_Driver/Src/stm32f4xx_ll_sdmmc.c ****   SDIO_SendCommand(SDIOx, &sdmmc_cmdinit);
 594:Drivers/STM32F4xx_HAL_Driver/Src/stm32f4xx_ll_sdmmc.c ****   
 595:Drivers/STM32F4xx_HAL_Driver/Src/stm32f4xx_ll_sdmmc.c ****   /* Check for error conditions */
 596:Drivers/STM32F4xx_HAL_Driver/Src/stm32f4xx_ll_sdmmc.c ****   errorstate = SDMMC_GetCmdResp1(SDIOx, SDMMC_CMD_READ_MULT_BLOCK, SDIO_CMDTIMEOUT);
 597:Drivers/STM32F4xx_HAL_Driver/Src/stm32f4xx_ll_sdmmc.c **** 
 598:Drivers/STM32F4xx_HAL_Driver/Src/stm32f4xx_ll_sdmmc.c ****   return errorstate;
 599:Drivers/STM32F4xx_HAL_Driver/Src/stm32f4xx_ll_sdmmc.c **** }
 600:Drivers/STM32F4xx_HAL_Driver/Src/stm32f4xx_ll_sdmmc.c **** 
ARM GAS  /tmp/ccO3W952.s 			page 12


 601:Drivers/STM32F4xx_HAL_Driver/Src/stm32f4xx_ll_sdmmc.c **** /**
 602:Drivers/STM32F4xx_HAL_Driver/Src/stm32f4xx_ll_sdmmc.c ****   * @brief  Send the Write Single Block command and check the response
 603:Drivers/STM32F4xx_HAL_Driver/Src/stm32f4xx_ll_sdmmc.c ****   * @param  SDIOx Pointer to SDIO register base 
 604:Drivers/STM32F4xx_HAL_Driver/Src/stm32f4xx_ll_sdmmc.c ****   * @retval HAL status
 605:Drivers/STM32F4xx_HAL_Driver/Src/stm32f4xx_ll_sdmmc.c ****   */
 606:Drivers/STM32F4xx_HAL_Driver/Src/stm32f4xx_ll_sdmmc.c **** uint32_t SDMMC_CmdWriteSingleBlock(SDIO_TypeDef *SDIOx, uint32_t WriteAdd)
 607:Drivers/STM32F4xx_HAL_Driver/Src/stm32f4xx_ll_sdmmc.c **** {
 608:Drivers/STM32F4xx_HAL_Driver/Src/stm32f4xx_ll_sdmmc.c ****   SDIO_CmdInitTypeDef  sdmmc_cmdinit;
 609:Drivers/STM32F4xx_HAL_Driver/Src/stm32f4xx_ll_sdmmc.c ****   uint32_t errorstate = SDMMC_ERROR_NONE;
 610:Drivers/STM32F4xx_HAL_Driver/Src/stm32f4xx_ll_sdmmc.c ****   
 611:Drivers/STM32F4xx_HAL_Driver/Src/stm32f4xx_ll_sdmmc.c ****   /* Set Block Size for Card */ 
 612:Drivers/STM32F4xx_HAL_Driver/Src/stm32f4xx_ll_sdmmc.c ****   sdmmc_cmdinit.Argument         = (uint32_t)WriteAdd;
 613:Drivers/STM32F4xx_HAL_Driver/Src/stm32f4xx_ll_sdmmc.c ****   sdmmc_cmdinit.CmdIndex         = SDMMC_CMD_WRITE_SINGLE_BLOCK;
 614:Drivers/STM32F4xx_HAL_Driver/Src/stm32f4xx_ll_sdmmc.c ****   sdmmc_cmdinit.Response         = SDIO_RESPONSE_SHORT;
 615:Drivers/STM32F4xx_HAL_Driver/Src/stm32f4xx_ll_sdmmc.c ****   sdmmc_cmdinit.WaitForInterrupt = SDIO_WAIT_NO;
 616:Drivers/STM32F4xx_HAL_Driver/Src/stm32f4xx_ll_sdmmc.c ****   sdmmc_cmdinit.CPSM             = SDIO_CPSM_ENABLE;
 617:Drivers/STM32F4xx_HAL_Driver/Src/stm32f4xx_ll_sdmmc.c ****   SDIO_SendCommand(SDIOx, &sdmmc_cmdinit);
 618:Drivers/STM32F4xx_HAL_Driver/Src/stm32f4xx_ll_sdmmc.c ****   
 619:Drivers/STM32F4xx_HAL_Driver/Src/stm32f4xx_ll_sdmmc.c ****   /* Check for error conditions */
 620:Drivers/STM32F4xx_HAL_Driver/Src/stm32f4xx_ll_sdmmc.c ****   errorstate = SDMMC_GetCmdResp1(SDIOx, SDMMC_CMD_WRITE_SINGLE_BLOCK, SDIO_CMDTIMEOUT);
 621:Drivers/STM32F4xx_HAL_Driver/Src/stm32f4xx_ll_sdmmc.c **** 
 622:Drivers/STM32F4xx_HAL_Driver/Src/stm32f4xx_ll_sdmmc.c ****   return errorstate;
 623:Drivers/STM32F4xx_HAL_Driver/Src/stm32f4xx_ll_sdmmc.c **** }
 624:Drivers/STM32F4xx_HAL_Driver/Src/stm32f4xx_ll_sdmmc.c **** 
 625:Drivers/STM32F4xx_HAL_Driver/Src/stm32f4xx_ll_sdmmc.c **** /**
 626:Drivers/STM32F4xx_HAL_Driver/Src/stm32f4xx_ll_sdmmc.c ****   * @brief  Send the Write Multi Block command and check the response
 627:Drivers/STM32F4xx_HAL_Driver/Src/stm32f4xx_ll_sdmmc.c ****   * @param  SDIOx Pointer to SDIO register base 
 628:Drivers/STM32F4xx_HAL_Driver/Src/stm32f4xx_ll_sdmmc.c ****   * @retval HAL status
 629:Drivers/STM32F4xx_HAL_Driver/Src/stm32f4xx_ll_sdmmc.c ****   */
 630:Drivers/STM32F4xx_HAL_Driver/Src/stm32f4xx_ll_sdmmc.c **** uint32_t SDMMC_CmdWriteMultiBlock(SDIO_TypeDef *SDIOx, uint32_t WriteAdd)
 631:Drivers/STM32F4xx_HAL_Driver/Src/stm32f4xx_ll_sdmmc.c **** {
 632:Drivers/STM32F4xx_HAL_Driver/Src/stm32f4xx_ll_sdmmc.c ****   SDIO_CmdInitTypeDef  sdmmc_cmdinit;
 633:Drivers/STM32F4xx_HAL_Driver/Src/stm32f4xx_ll_sdmmc.c ****   uint32_t errorstate = SDMMC_ERROR_NONE;
 634:Drivers/STM32F4xx_HAL_Driver/Src/stm32f4xx_ll_sdmmc.c ****   
 635:Drivers/STM32F4xx_HAL_Driver/Src/stm32f4xx_ll_sdmmc.c ****   /* Set Block Size for Card */ 
 636:Drivers/STM32F4xx_HAL_Driver/Src/stm32f4xx_ll_sdmmc.c ****   sdmmc_cmdinit.Argument         = (uint32_t)WriteAdd;
 637:Drivers/STM32F4xx_HAL_Driver/Src/stm32f4xx_ll_sdmmc.c ****   sdmmc_cmdinit.CmdIndex         = SDMMC_CMD_WRITE_MULT_BLOCK;
 638:Drivers/STM32F4xx_HAL_Driver/Src/stm32f4xx_ll_sdmmc.c ****   sdmmc_cmdinit.Response         = SDIO_RESPONSE_SHORT;
 639:Drivers/STM32F4xx_HAL_Driver/Src/stm32f4xx_ll_sdmmc.c ****   sdmmc_cmdinit.WaitForInterrupt = SDIO_WAIT_NO;
 640:Drivers/STM32F4xx_HAL_Driver/Src/stm32f4xx_ll_sdmmc.c ****   sdmmc_cmdinit.CPSM             = SDIO_CPSM_ENABLE;
 641:Drivers/STM32F4xx_HAL_Driver/Src/stm32f4xx_ll_sdmmc.c ****   SDIO_SendCommand(SDIOx, &sdmmc_cmdinit);
 642:Drivers/STM32F4xx_HAL_Driver/Src/stm32f4xx_ll_sdmmc.c ****   
 643:Drivers/STM32F4xx_HAL_Driver/Src/stm32f4xx_ll_sdmmc.c ****   /* Check for error conditions */
 644:Drivers/STM32F4xx_HAL_Driver/Src/stm32f4xx_ll_sdmmc.c ****   errorstate = SDMMC_GetCmdResp1(SDIOx, SDMMC_CMD_WRITE_MULT_BLOCK, SDIO_CMDTIMEOUT);
 645:Drivers/STM32F4xx_HAL_Driver/Src/stm32f4xx_ll_sdmmc.c **** 
 646:Drivers/STM32F4xx_HAL_Driver/Src/stm32f4xx_ll_sdmmc.c ****   return errorstate;
 647:Drivers/STM32F4xx_HAL_Driver/Src/stm32f4xx_ll_sdmmc.c **** }
 648:Drivers/STM32F4xx_HAL_Driver/Src/stm32f4xx_ll_sdmmc.c **** 
 649:Drivers/STM32F4xx_HAL_Driver/Src/stm32f4xx_ll_sdmmc.c **** /**
 650:Drivers/STM32F4xx_HAL_Driver/Src/stm32f4xx_ll_sdmmc.c ****   * @brief  Send the Start Address Erase command for SD and check the response
 651:Drivers/STM32F4xx_HAL_Driver/Src/stm32f4xx_ll_sdmmc.c ****   * @param  SDIOx Pointer to SDIO register base 
 652:Drivers/STM32F4xx_HAL_Driver/Src/stm32f4xx_ll_sdmmc.c ****   * @retval HAL status
 653:Drivers/STM32F4xx_HAL_Driver/Src/stm32f4xx_ll_sdmmc.c ****   */
 654:Drivers/STM32F4xx_HAL_Driver/Src/stm32f4xx_ll_sdmmc.c **** uint32_t SDMMC_CmdSDEraseStartAdd(SDIO_TypeDef *SDIOx, uint32_t StartAdd)
 655:Drivers/STM32F4xx_HAL_Driver/Src/stm32f4xx_ll_sdmmc.c **** {
 656:Drivers/STM32F4xx_HAL_Driver/Src/stm32f4xx_ll_sdmmc.c ****   SDIO_CmdInitTypeDef  sdmmc_cmdinit;
 657:Drivers/STM32F4xx_HAL_Driver/Src/stm32f4xx_ll_sdmmc.c ****   uint32_t errorstate = SDMMC_ERROR_NONE;
ARM GAS  /tmp/ccO3W952.s 			page 13


 658:Drivers/STM32F4xx_HAL_Driver/Src/stm32f4xx_ll_sdmmc.c ****   
 659:Drivers/STM32F4xx_HAL_Driver/Src/stm32f4xx_ll_sdmmc.c ****   /* Set Block Size for Card */ 
 660:Drivers/STM32F4xx_HAL_Driver/Src/stm32f4xx_ll_sdmmc.c ****   sdmmc_cmdinit.Argument         = (uint32_t)StartAdd;
 661:Drivers/STM32F4xx_HAL_Driver/Src/stm32f4xx_ll_sdmmc.c ****   sdmmc_cmdinit.CmdIndex         = SDMMC_CMD_SD_ERASE_GRP_START;
 662:Drivers/STM32F4xx_HAL_Driver/Src/stm32f4xx_ll_sdmmc.c ****   sdmmc_cmdinit.Response         = SDIO_RESPONSE_SHORT;
 663:Drivers/STM32F4xx_HAL_Driver/Src/stm32f4xx_ll_sdmmc.c ****   sdmmc_cmdinit.WaitForInterrupt = SDIO_WAIT_NO;
 664:Drivers/STM32F4xx_HAL_Driver/Src/stm32f4xx_ll_sdmmc.c ****   sdmmc_cmdinit.CPSM             = SDIO_CPSM_ENABLE;
 665:Drivers/STM32F4xx_HAL_Driver/Src/stm32f4xx_ll_sdmmc.c ****   SDIO_SendCommand(SDIOx, &sdmmc_cmdinit);
 666:Drivers/STM32F4xx_HAL_Driver/Src/stm32f4xx_ll_sdmmc.c ****   
 667:Drivers/STM32F4xx_HAL_Driver/Src/stm32f4xx_ll_sdmmc.c ****   /* Check for error conditions */
 668:Drivers/STM32F4xx_HAL_Driver/Src/stm32f4xx_ll_sdmmc.c ****   errorstate = SDMMC_GetCmdResp1(SDIOx, SDMMC_CMD_SD_ERASE_GRP_START, SDIO_CMDTIMEOUT);
 669:Drivers/STM32F4xx_HAL_Driver/Src/stm32f4xx_ll_sdmmc.c **** 
 670:Drivers/STM32F4xx_HAL_Driver/Src/stm32f4xx_ll_sdmmc.c ****   return errorstate;
 671:Drivers/STM32F4xx_HAL_Driver/Src/stm32f4xx_ll_sdmmc.c **** }
 672:Drivers/STM32F4xx_HAL_Driver/Src/stm32f4xx_ll_sdmmc.c **** 
 673:Drivers/STM32F4xx_HAL_Driver/Src/stm32f4xx_ll_sdmmc.c **** /**
 674:Drivers/STM32F4xx_HAL_Driver/Src/stm32f4xx_ll_sdmmc.c ****   * @brief  Send the End Address Erase command for SD and check the response
 675:Drivers/STM32F4xx_HAL_Driver/Src/stm32f4xx_ll_sdmmc.c ****   * @param  SDIOx Pointer to SDIO register base 
 676:Drivers/STM32F4xx_HAL_Driver/Src/stm32f4xx_ll_sdmmc.c ****   * @retval HAL status
 677:Drivers/STM32F4xx_HAL_Driver/Src/stm32f4xx_ll_sdmmc.c ****   */
 678:Drivers/STM32F4xx_HAL_Driver/Src/stm32f4xx_ll_sdmmc.c **** uint32_t SDMMC_CmdSDEraseEndAdd(SDIO_TypeDef *SDIOx, uint32_t EndAdd)
 679:Drivers/STM32F4xx_HAL_Driver/Src/stm32f4xx_ll_sdmmc.c **** {
 680:Drivers/STM32F4xx_HAL_Driver/Src/stm32f4xx_ll_sdmmc.c ****   SDIO_CmdInitTypeDef  sdmmc_cmdinit;
 681:Drivers/STM32F4xx_HAL_Driver/Src/stm32f4xx_ll_sdmmc.c ****   uint32_t errorstate = SDMMC_ERROR_NONE;
 682:Drivers/STM32F4xx_HAL_Driver/Src/stm32f4xx_ll_sdmmc.c ****   
 683:Drivers/STM32F4xx_HAL_Driver/Src/stm32f4xx_ll_sdmmc.c ****   /* Set Block Size for Card */ 
 684:Drivers/STM32F4xx_HAL_Driver/Src/stm32f4xx_ll_sdmmc.c ****   sdmmc_cmdinit.Argument         = (uint32_t)EndAdd;
 685:Drivers/STM32F4xx_HAL_Driver/Src/stm32f4xx_ll_sdmmc.c ****   sdmmc_cmdinit.CmdIndex         = SDMMC_CMD_SD_ERASE_GRP_END;
 686:Drivers/STM32F4xx_HAL_Driver/Src/stm32f4xx_ll_sdmmc.c ****   sdmmc_cmdinit.Response         = SDIO_RESPONSE_SHORT;
 687:Drivers/STM32F4xx_HAL_Driver/Src/stm32f4xx_ll_sdmmc.c ****   sdmmc_cmdinit.WaitForInterrupt = SDIO_WAIT_NO;
 688:Drivers/STM32F4xx_HAL_Driver/Src/stm32f4xx_ll_sdmmc.c ****   sdmmc_cmdinit.CPSM             = SDIO_CPSM_ENABLE;
 689:Drivers/STM32F4xx_HAL_Driver/Src/stm32f4xx_ll_sdmmc.c ****   SDIO_SendCommand(SDIOx, &sdmmc_cmdinit);
 690:Drivers/STM32F4xx_HAL_Driver/Src/stm32f4xx_ll_sdmmc.c ****   
 691:Drivers/STM32F4xx_HAL_Driver/Src/stm32f4xx_ll_sdmmc.c ****   /* Check for error conditions */
 692:Drivers/STM32F4xx_HAL_Driver/Src/stm32f4xx_ll_sdmmc.c ****   errorstate = SDMMC_GetCmdResp1(SDIOx, SDMMC_CMD_SD_ERASE_GRP_END, SDIO_CMDTIMEOUT);
 693:Drivers/STM32F4xx_HAL_Driver/Src/stm32f4xx_ll_sdmmc.c **** 
 694:Drivers/STM32F4xx_HAL_Driver/Src/stm32f4xx_ll_sdmmc.c ****   return errorstate;
 695:Drivers/STM32F4xx_HAL_Driver/Src/stm32f4xx_ll_sdmmc.c **** }
 696:Drivers/STM32F4xx_HAL_Driver/Src/stm32f4xx_ll_sdmmc.c **** 
 697:Drivers/STM32F4xx_HAL_Driver/Src/stm32f4xx_ll_sdmmc.c **** /**
 698:Drivers/STM32F4xx_HAL_Driver/Src/stm32f4xx_ll_sdmmc.c ****   * @brief  Send the Start Address Erase command and check the response
 699:Drivers/STM32F4xx_HAL_Driver/Src/stm32f4xx_ll_sdmmc.c ****   * @param  SDIOx Pointer to SDIO register base 
 700:Drivers/STM32F4xx_HAL_Driver/Src/stm32f4xx_ll_sdmmc.c ****   * @retval HAL status
 701:Drivers/STM32F4xx_HAL_Driver/Src/stm32f4xx_ll_sdmmc.c ****   */
 702:Drivers/STM32F4xx_HAL_Driver/Src/stm32f4xx_ll_sdmmc.c **** uint32_t SDMMC_CmdEraseStartAdd(SDIO_TypeDef *SDIOx, uint32_t StartAdd)
 703:Drivers/STM32F4xx_HAL_Driver/Src/stm32f4xx_ll_sdmmc.c **** {
 704:Drivers/STM32F4xx_HAL_Driver/Src/stm32f4xx_ll_sdmmc.c ****   SDIO_CmdInitTypeDef  sdmmc_cmdinit;
 705:Drivers/STM32F4xx_HAL_Driver/Src/stm32f4xx_ll_sdmmc.c ****   uint32_t errorstate = SDMMC_ERROR_NONE;
 706:Drivers/STM32F4xx_HAL_Driver/Src/stm32f4xx_ll_sdmmc.c ****   
 707:Drivers/STM32F4xx_HAL_Driver/Src/stm32f4xx_ll_sdmmc.c ****   /* Set Block Size for Card */ 
 708:Drivers/STM32F4xx_HAL_Driver/Src/stm32f4xx_ll_sdmmc.c ****   sdmmc_cmdinit.Argument         = (uint32_t)StartAdd;
 709:Drivers/STM32F4xx_HAL_Driver/Src/stm32f4xx_ll_sdmmc.c ****   sdmmc_cmdinit.CmdIndex         = SDMMC_CMD_ERASE_GRP_START;
 710:Drivers/STM32F4xx_HAL_Driver/Src/stm32f4xx_ll_sdmmc.c ****   sdmmc_cmdinit.Response         = SDIO_RESPONSE_SHORT;
 711:Drivers/STM32F4xx_HAL_Driver/Src/stm32f4xx_ll_sdmmc.c ****   sdmmc_cmdinit.WaitForInterrupt = SDIO_WAIT_NO;
 712:Drivers/STM32F4xx_HAL_Driver/Src/stm32f4xx_ll_sdmmc.c ****   sdmmc_cmdinit.CPSM             = SDIO_CPSM_ENABLE;
 713:Drivers/STM32F4xx_HAL_Driver/Src/stm32f4xx_ll_sdmmc.c ****   SDIO_SendCommand(SDIOx, &sdmmc_cmdinit);
 714:Drivers/STM32F4xx_HAL_Driver/Src/stm32f4xx_ll_sdmmc.c ****   
ARM GAS  /tmp/ccO3W952.s 			page 14


 715:Drivers/STM32F4xx_HAL_Driver/Src/stm32f4xx_ll_sdmmc.c ****   /* Check for error conditions */
 716:Drivers/STM32F4xx_HAL_Driver/Src/stm32f4xx_ll_sdmmc.c ****   errorstate = SDMMC_GetCmdResp1(SDIOx, SDMMC_CMD_ERASE_GRP_START, SDIO_CMDTIMEOUT);
 717:Drivers/STM32F4xx_HAL_Driver/Src/stm32f4xx_ll_sdmmc.c **** 
 718:Drivers/STM32F4xx_HAL_Driver/Src/stm32f4xx_ll_sdmmc.c ****   return errorstate;
 719:Drivers/STM32F4xx_HAL_Driver/Src/stm32f4xx_ll_sdmmc.c **** }
 720:Drivers/STM32F4xx_HAL_Driver/Src/stm32f4xx_ll_sdmmc.c **** 
 721:Drivers/STM32F4xx_HAL_Driver/Src/stm32f4xx_ll_sdmmc.c **** /**
 722:Drivers/STM32F4xx_HAL_Driver/Src/stm32f4xx_ll_sdmmc.c ****   * @brief  Send the End Address Erase command and check the response
 723:Drivers/STM32F4xx_HAL_Driver/Src/stm32f4xx_ll_sdmmc.c ****   * @param  SDIOx Pointer to SDIO register base 
 724:Drivers/STM32F4xx_HAL_Driver/Src/stm32f4xx_ll_sdmmc.c ****   * @retval HAL status
 725:Drivers/STM32F4xx_HAL_Driver/Src/stm32f4xx_ll_sdmmc.c ****   */
 726:Drivers/STM32F4xx_HAL_Driver/Src/stm32f4xx_ll_sdmmc.c **** uint32_t SDMMC_CmdEraseEndAdd(SDIO_TypeDef *SDIOx, uint32_t EndAdd)
 727:Drivers/STM32F4xx_HAL_Driver/Src/stm32f4xx_ll_sdmmc.c **** {
 728:Drivers/STM32F4xx_HAL_Driver/Src/stm32f4xx_ll_sdmmc.c ****   SDIO_CmdInitTypeDef  sdmmc_cmdinit;
 729:Drivers/STM32F4xx_HAL_Driver/Src/stm32f4xx_ll_sdmmc.c ****   uint32_t errorstate = SDMMC_ERROR_NONE;
 730:Drivers/STM32F4xx_HAL_Driver/Src/stm32f4xx_ll_sdmmc.c ****   
 731:Drivers/STM32F4xx_HAL_Driver/Src/stm32f4xx_ll_sdmmc.c ****   /* Set Block Size for Card */ 
 732:Drivers/STM32F4xx_HAL_Driver/Src/stm32f4xx_ll_sdmmc.c ****   sdmmc_cmdinit.Argument         = (uint32_t)EndAdd;
 733:Drivers/STM32F4xx_HAL_Driver/Src/stm32f4xx_ll_sdmmc.c ****   sdmmc_cmdinit.CmdIndex         = SDMMC_CMD_ERASE_GRP_END;
 734:Drivers/STM32F4xx_HAL_Driver/Src/stm32f4xx_ll_sdmmc.c ****   sdmmc_cmdinit.Response         = SDIO_RESPONSE_SHORT;
 735:Drivers/STM32F4xx_HAL_Driver/Src/stm32f4xx_ll_sdmmc.c ****   sdmmc_cmdinit.WaitForInterrupt = SDIO_WAIT_NO;
 736:Drivers/STM32F4xx_HAL_Driver/Src/stm32f4xx_ll_sdmmc.c ****   sdmmc_cmdinit.CPSM             = SDIO_CPSM_ENABLE;
 737:Drivers/STM32F4xx_HAL_Driver/Src/stm32f4xx_ll_sdmmc.c ****   SDIO_SendCommand(SDIOx, &sdmmc_cmdinit);
 738:Drivers/STM32F4xx_HAL_Driver/Src/stm32f4xx_ll_sdmmc.c ****   
 739:Drivers/STM32F4xx_HAL_Driver/Src/stm32f4xx_ll_sdmmc.c ****   /* Check for error conditions */
 740:Drivers/STM32F4xx_HAL_Driver/Src/stm32f4xx_ll_sdmmc.c ****   errorstate = SDMMC_GetCmdResp1(SDIOx, SDMMC_CMD_ERASE_GRP_END, SDIO_CMDTIMEOUT);
 741:Drivers/STM32F4xx_HAL_Driver/Src/stm32f4xx_ll_sdmmc.c **** 
 742:Drivers/STM32F4xx_HAL_Driver/Src/stm32f4xx_ll_sdmmc.c ****   return errorstate;
 743:Drivers/STM32F4xx_HAL_Driver/Src/stm32f4xx_ll_sdmmc.c **** }
 744:Drivers/STM32F4xx_HAL_Driver/Src/stm32f4xx_ll_sdmmc.c **** 
 745:Drivers/STM32F4xx_HAL_Driver/Src/stm32f4xx_ll_sdmmc.c **** /**
 746:Drivers/STM32F4xx_HAL_Driver/Src/stm32f4xx_ll_sdmmc.c ****   * @brief  Send the Erase command and check the response
 747:Drivers/STM32F4xx_HAL_Driver/Src/stm32f4xx_ll_sdmmc.c ****   * @param  SDIOx Pointer to SDIO register base 
 748:Drivers/STM32F4xx_HAL_Driver/Src/stm32f4xx_ll_sdmmc.c ****   * @retval HAL status
 749:Drivers/STM32F4xx_HAL_Driver/Src/stm32f4xx_ll_sdmmc.c ****   */
 750:Drivers/STM32F4xx_HAL_Driver/Src/stm32f4xx_ll_sdmmc.c **** uint32_t SDMMC_CmdErase(SDIO_TypeDef *SDIOx)
 751:Drivers/STM32F4xx_HAL_Driver/Src/stm32f4xx_ll_sdmmc.c **** {
 752:Drivers/STM32F4xx_HAL_Driver/Src/stm32f4xx_ll_sdmmc.c ****   SDIO_CmdInitTypeDef  sdmmc_cmdinit;
 753:Drivers/STM32F4xx_HAL_Driver/Src/stm32f4xx_ll_sdmmc.c ****   uint32_t errorstate = SDMMC_ERROR_NONE;
 754:Drivers/STM32F4xx_HAL_Driver/Src/stm32f4xx_ll_sdmmc.c ****   
 755:Drivers/STM32F4xx_HAL_Driver/Src/stm32f4xx_ll_sdmmc.c ****   /* Set Block Size for Card */ 
 756:Drivers/STM32F4xx_HAL_Driver/Src/stm32f4xx_ll_sdmmc.c ****   sdmmc_cmdinit.Argument         = 0U;
 757:Drivers/STM32F4xx_HAL_Driver/Src/stm32f4xx_ll_sdmmc.c ****   sdmmc_cmdinit.CmdIndex         = SDMMC_CMD_ERASE;
 758:Drivers/STM32F4xx_HAL_Driver/Src/stm32f4xx_ll_sdmmc.c ****   sdmmc_cmdinit.Response         = SDIO_RESPONSE_SHORT;
 759:Drivers/STM32F4xx_HAL_Driver/Src/stm32f4xx_ll_sdmmc.c ****   sdmmc_cmdinit.WaitForInterrupt = SDIO_WAIT_NO;
 760:Drivers/STM32F4xx_HAL_Driver/Src/stm32f4xx_ll_sdmmc.c ****   sdmmc_cmdinit.CPSM             = SDIO_CPSM_ENABLE;
 761:Drivers/STM32F4xx_HAL_Driver/Src/stm32f4xx_ll_sdmmc.c ****   SDIO_SendCommand(SDIOx, &sdmmc_cmdinit);
 762:Drivers/STM32F4xx_HAL_Driver/Src/stm32f4xx_ll_sdmmc.c ****   
 763:Drivers/STM32F4xx_HAL_Driver/Src/stm32f4xx_ll_sdmmc.c ****   /* Check for error conditions */
 764:Drivers/STM32F4xx_HAL_Driver/Src/stm32f4xx_ll_sdmmc.c ****   errorstate = SDMMC_GetCmdResp1(SDIOx, SDMMC_CMD_ERASE, SDIO_MAXERASETIMEOUT);
 765:Drivers/STM32F4xx_HAL_Driver/Src/stm32f4xx_ll_sdmmc.c **** 
 766:Drivers/STM32F4xx_HAL_Driver/Src/stm32f4xx_ll_sdmmc.c ****   return errorstate;
 767:Drivers/STM32F4xx_HAL_Driver/Src/stm32f4xx_ll_sdmmc.c **** }
 768:Drivers/STM32F4xx_HAL_Driver/Src/stm32f4xx_ll_sdmmc.c **** 
 769:Drivers/STM32F4xx_HAL_Driver/Src/stm32f4xx_ll_sdmmc.c **** /**
 770:Drivers/STM32F4xx_HAL_Driver/Src/stm32f4xx_ll_sdmmc.c ****   * @brief  Send the Stop Transfer command and check the response.
 771:Drivers/STM32F4xx_HAL_Driver/Src/stm32f4xx_ll_sdmmc.c ****   * @param  SDIOx Pointer to SDIO register base 
ARM GAS  /tmp/ccO3W952.s 			page 15


 772:Drivers/STM32F4xx_HAL_Driver/Src/stm32f4xx_ll_sdmmc.c ****   * @retval HAL status
 773:Drivers/STM32F4xx_HAL_Driver/Src/stm32f4xx_ll_sdmmc.c ****   */
 774:Drivers/STM32F4xx_HAL_Driver/Src/stm32f4xx_ll_sdmmc.c **** uint32_t SDMMC_CmdStopTransfer(SDIO_TypeDef *SDIOx)
 775:Drivers/STM32F4xx_HAL_Driver/Src/stm32f4xx_ll_sdmmc.c **** {
 776:Drivers/STM32F4xx_HAL_Driver/Src/stm32f4xx_ll_sdmmc.c ****   SDIO_CmdInitTypeDef  sdmmc_cmdinit;
 777:Drivers/STM32F4xx_HAL_Driver/Src/stm32f4xx_ll_sdmmc.c ****   uint32_t errorstate = SDMMC_ERROR_NONE;
 778:Drivers/STM32F4xx_HAL_Driver/Src/stm32f4xx_ll_sdmmc.c ****   
 779:Drivers/STM32F4xx_HAL_Driver/Src/stm32f4xx_ll_sdmmc.c ****   /* Send CMD12 STOP_TRANSMISSION  */
 780:Drivers/STM32F4xx_HAL_Driver/Src/stm32f4xx_ll_sdmmc.c ****   sdmmc_cmdinit.Argument         = 0U;
 781:Drivers/STM32F4xx_HAL_Driver/Src/stm32f4xx_ll_sdmmc.c ****   sdmmc_cmdinit.CmdIndex         = SDMMC_CMD_STOP_TRANSMISSION;
 782:Drivers/STM32F4xx_HAL_Driver/Src/stm32f4xx_ll_sdmmc.c ****   sdmmc_cmdinit.Response         = SDIO_RESPONSE_SHORT;
 783:Drivers/STM32F4xx_HAL_Driver/Src/stm32f4xx_ll_sdmmc.c ****   sdmmc_cmdinit.WaitForInterrupt = SDIO_WAIT_NO;
 784:Drivers/STM32F4xx_HAL_Driver/Src/stm32f4xx_ll_sdmmc.c ****   sdmmc_cmdinit.CPSM             = SDIO_CPSM_ENABLE;
 785:Drivers/STM32F4xx_HAL_Driver/Src/stm32f4xx_ll_sdmmc.c ****   SDIO_SendCommand(SDIOx, &sdmmc_cmdinit);
 786:Drivers/STM32F4xx_HAL_Driver/Src/stm32f4xx_ll_sdmmc.c ****   
 787:Drivers/STM32F4xx_HAL_Driver/Src/stm32f4xx_ll_sdmmc.c ****   /* Check for error conditions */
 788:Drivers/STM32F4xx_HAL_Driver/Src/stm32f4xx_ll_sdmmc.c ****   errorstate = SDMMC_GetCmdResp1(SDIOx, SDMMC_CMD_STOP_TRANSMISSION, 100000000U);
 789:Drivers/STM32F4xx_HAL_Driver/Src/stm32f4xx_ll_sdmmc.c **** 
 790:Drivers/STM32F4xx_HAL_Driver/Src/stm32f4xx_ll_sdmmc.c ****   return errorstate;
 791:Drivers/STM32F4xx_HAL_Driver/Src/stm32f4xx_ll_sdmmc.c **** }
 792:Drivers/STM32F4xx_HAL_Driver/Src/stm32f4xx_ll_sdmmc.c **** 
 793:Drivers/STM32F4xx_HAL_Driver/Src/stm32f4xx_ll_sdmmc.c **** /**
 794:Drivers/STM32F4xx_HAL_Driver/Src/stm32f4xx_ll_sdmmc.c ****   * @brief  Send the Select Deselect command and check the response.
 795:Drivers/STM32F4xx_HAL_Driver/Src/stm32f4xx_ll_sdmmc.c ****   * @param  SDIOx Pointer to SDIO register base 
 796:Drivers/STM32F4xx_HAL_Driver/Src/stm32f4xx_ll_sdmmc.c ****   * @param  addr Address of the card to be selected  
 797:Drivers/STM32F4xx_HAL_Driver/Src/stm32f4xx_ll_sdmmc.c ****   * @retval HAL status
 798:Drivers/STM32F4xx_HAL_Driver/Src/stm32f4xx_ll_sdmmc.c ****   */
 799:Drivers/STM32F4xx_HAL_Driver/Src/stm32f4xx_ll_sdmmc.c **** uint32_t SDMMC_CmdSelDesel(SDIO_TypeDef *SDIOx, uint64_t Addr)
 800:Drivers/STM32F4xx_HAL_Driver/Src/stm32f4xx_ll_sdmmc.c **** {
 801:Drivers/STM32F4xx_HAL_Driver/Src/stm32f4xx_ll_sdmmc.c ****   SDIO_CmdInitTypeDef  sdmmc_cmdinit;
 802:Drivers/STM32F4xx_HAL_Driver/Src/stm32f4xx_ll_sdmmc.c ****   uint32_t errorstate = SDMMC_ERROR_NONE;
 803:Drivers/STM32F4xx_HAL_Driver/Src/stm32f4xx_ll_sdmmc.c ****   
 804:Drivers/STM32F4xx_HAL_Driver/Src/stm32f4xx_ll_sdmmc.c ****   /* Send CMD7 SDMMC_SEL_DESEL_CARD */
 805:Drivers/STM32F4xx_HAL_Driver/Src/stm32f4xx_ll_sdmmc.c ****   sdmmc_cmdinit.Argument         = (uint32_t)Addr;
 806:Drivers/STM32F4xx_HAL_Driver/Src/stm32f4xx_ll_sdmmc.c ****   sdmmc_cmdinit.CmdIndex         = SDMMC_CMD_SEL_DESEL_CARD;
 807:Drivers/STM32F4xx_HAL_Driver/Src/stm32f4xx_ll_sdmmc.c ****   sdmmc_cmdinit.Response         = SDIO_RESPONSE_SHORT;
 808:Drivers/STM32F4xx_HAL_Driver/Src/stm32f4xx_ll_sdmmc.c ****   sdmmc_cmdinit.WaitForInterrupt = SDIO_WAIT_NO;
 809:Drivers/STM32F4xx_HAL_Driver/Src/stm32f4xx_ll_sdmmc.c ****   sdmmc_cmdinit.CPSM             = SDIO_CPSM_ENABLE;
 810:Drivers/STM32F4xx_HAL_Driver/Src/stm32f4xx_ll_sdmmc.c ****   SDIO_SendCommand(SDIOx, &sdmmc_cmdinit);
 811:Drivers/STM32F4xx_HAL_Driver/Src/stm32f4xx_ll_sdmmc.c ****   
 812:Drivers/STM32F4xx_HAL_Driver/Src/stm32f4xx_ll_sdmmc.c ****   /* Check for error conditions */
 813:Drivers/STM32F4xx_HAL_Driver/Src/stm32f4xx_ll_sdmmc.c ****   errorstate = SDMMC_GetCmdResp1(SDIOx, SDMMC_CMD_SEL_DESEL_CARD, SDIO_CMDTIMEOUT);
 814:Drivers/STM32F4xx_HAL_Driver/Src/stm32f4xx_ll_sdmmc.c **** 
 815:Drivers/STM32F4xx_HAL_Driver/Src/stm32f4xx_ll_sdmmc.c ****   return errorstate;
 816:Drivers/STM32F4xx_HAL_Driver/Src/stm32f4xx_ll_sdmmc.c **** }
 817:Drivers/STM32F4xx_HAL_Driver/Src/stm32f4xx_ll_sdmmc.c **** 
 818:Drivers/STM32F4xx_HAL_Driver/Src/stm32f4xx_ll_sdmmc.c **** /**
 819:Drivers/STM32F4xx_HAL_Driver/Src/stm32f4xx_ll_sdmmc.c ****   * @brief  Send the Go Idle State command and check the response.
 820:Drivers/STM32F4xx_HAL_Driver/Src/stm32f4xx_ll_sdmmc.c ****   * @param  SDIOx Pointer to SDIO register base 
 821:Drivers/STM32F4xx_HAL_Driver/Src/stm32f4xx_ll_sdmmc.c ****   * @retval HAL status
 822:Drivers/STM32F4xx_HAL_Driver/Src/stm32f4xx_ll_sdmmc.c ****   */
 823:Drivers/STM32F4xx_HAL_Driver/Src/stm32f4xx_ll_sdmmc.c **** uint32_t SDMMC_CmdGoIdleState(SDIO_TypeDef *SDIOx)
 824:Drivers/STM32F4xx_HAL_Driver/Src/stm32f4xx_ll_sdmmc.c **** {
 825:Drivers/STM32F4xx_HAL_Driver/Src/stm32f4xx_ll_sdmmc.c ****   SDIO_CmdInitTypeDef  sdmmc_cmdinit;
 826:Drivers/STM32F4xx_HAL_Driver/Src/stm32f4xx_ll_sdmmc.c ****   uint32_t errorstate = SDMMC_ERROR_NONE;
 827:Drivers/STM32F4xx_HAL_Driver/Src/stm32f4xx_ll_sdmmc.c ****   
 828:Drivers/STM32F4xx_HAL_Driver/Src/stm32f4xx_ll_sdmmc.c ****   sdmmc_cmdinit.Argument         = 0U;
ARM GAS  /tmp/ccO3W952.s 			page 16


 829:Drivers/STM32F4xx_HAL_Driver/Src/stm32f4xx_ll_sdmmc.c ****   sdmmc_cmdinit.CmdIndex         = SDMMC_CMD_GO_IDLE_STATE;
 830:Drivers/STM32F4xx_HAL_Driver/Src/stm32f4xx_ll_sdmmc.c ****   sdmmc_cmdinit.Response         = SDIO_RESPONSE_NO;
 831:Drivers/STM32F4xx_HAL_Driver/Src/stm32f4xx_ll_sdmmc.c ****   sdmmc_cmdinit.WaitForInterrupt = SDIO_WAIT_NO;
 832:Drivers/STM32F4xx_HAL_Driver/Src/stm32f4xx_ll_sdmmc.c ****   sdmmc_cmdinit.CPSM             = SDIO_CPSM_ENABLE;
 833:Drivers/STM32F4xx_HAL_Driver/Src/stm32f4xx_ll_sdmmc.c ****   SDIO_SendCommand(SDIOx, &sdmmc_cmdinit);
 834:Drivers/STM32F4xx_HAL_Driver/Src/stm32f4xx_ll_sdmmc.c ****   
 835:Drivers/STM32F4xx_HAL_Driver/Src/stm32f4xx_ll_sdmmc.c ****   /* Check for error conditions */
 836:Drivers/STM32F4xx_HAL_Driver/Src/stm32f4xx_ll_sdmmc.c ****   errorstate = SDMMC_GetCmdError(SDIOx);
 837:Drivers/STM32F4xx_HAL_Driver/Src/stm32f4xx_ll_sdmmc.c **** 
 838:Drivers/STM32F4xx_HAL_Driver/Src/stm32f4xx_ll_sdmmc.c ****   return errorstate;
 839:Drivers/STM32F4xx_HAL_Driver/Src/stm32f4xx_ll_sdmmc.c **** }
 840:Drivers/STM32F4xx_HAL_Driver/Src/stm32f4xx_ll_sdmmc.c **** 
 841:Drivers/STM32F4xx_HAL_Driver/Src/stm32f4xx_ll_sdmmc.c **** /**
 842:Drivers/STM32F4xx_HAL_Driver/Src/stm32f4xx_ll_sdmmc.c ****   * @brief  Send the Operating Condition command and check the response.
 843:Drivers/STM32F4xx_HAL_Driver/Src/stm32f4xx_ll_sdmmc.c ****   * @param  SDIOx Pointer to SDIO register base 
 844:Drivers/STM32F4xx_HAL_Driver/Src/stm32f4xx_ll_sdmmc.c ****   * @retval HAL status
 845:Drivers/STM32F4xx_HAL_Driver/Src/stm32f4xx_ll_sdmmc.c ****   */
 846:Drivers/STM32F4xx_HAL_Driver/Src/stm32f4xx_ll_sdmmc.c **** uint32_t SDMMC_CmdOperCond(SDIO_TypeDef *SDIOx)
 847:Drivers/STM32F4xx_HAL_Driver/Src/stm32f4xx_ll_sdmmc.c **** {
 848:Drivers/STM32F4xx_HAL_Driver/Src/stm32f4xx_ll_sdmmc.c ****   SDIO_CmdInitTypeDef  sdmmc_cmdinit;
 849:Drivers/STM32F4xx_HAL_Driver/Src/stm32f4xx_ll_sdmmc.c ****   uint32_t errorstate = SDMMC_ERROR_NONE;
 850:Drivers/STM32F4xx_HAL_Driver/Src/stm32f4xx_ll_sdmmc.c ****   
 851:Drivers/STM32F4xx_HAL_Driver/Src/stm32f4xx_ll_sdmmc.c ****   /* Send CMD8 to verify SD card interface operating condition */
 852:Drivers/STM32F4xx_HAL_Driver/Src/stm32f4xx_ll_sdmmc.c ****   /* Argument: - [31:12]: Reserved (shall be set to '0')
 853:Drivers/STM32F4xx_HAL_Driver/Src/stm32f4xx_ll_sdmmc.c ****   - [11:8]: Supply Voltage (VHS) 0x1 (Range: 2.7-3.6 V)
 854:Drivers/STM32F4xx_HAL_Driver/Src/stm32f4xx_ll_sdmmc.c ****   - [7:0]: Check Pattern (recommended 0xAA) */
 855:Drivers/STM32F4xx_HAL_Driver/Src/stm32f4xx_ll_sdmmc.c ****   /* CMD Response: R7 */
 856:Drivers/STM32F4xx_HAL_Driver/Src/stm32f4xx_ll_sdmmc.c ****   sdmmc_cmdinit.Argument         = SDMMC_CHECK_PATTERN;
 857:Drivers/STM32F4xx_HAL_Driver/Src/stm32f4xx_ll_sdmmc.c ****   sdmmc_cmdinit.CmdIndex         = SDMMC_CMD_HS_SEND_EXT_CSD;
 858:Drivers/STM32F4xx_HAL_Driver/Src/stm32f4xx_ll_sdmmc.c ****   sdmmc_cmdinit.Response         = SDIO_RESPONSE_SHORT;
 859:Drivers/STM32F4xx_HAL_Driver/Src/stm32f4xx_ll_sdmmc.c ****   sdmmc_cmdinit.WaitForInterrupt = SDIO_WAIT_NO;
 860:Drivers/STM32F4xx_HAL_Driver/Src/stm32f4xx_ll_sdmmc.c ****   sdmmc_cmdinit.CPSM             = SDIO_CPSM_ENABLE;
 861:Drivers/STM32F4xx_HAL_Driver/Src/stm32f4xx_ll_sdmmc.c ****   SDIO_SendCommand(SDIOx, &sdmmc_cmdinit);
 862:Drivers/STM32F4xx_HAL_Driver/Src/stm32f4xx_ll_sdmmc.c ****   
 863:Drivers/STM32F4xx_HAL_Driver/Src/stm32f4xx_ll_sdmmc.c ****   /* Check for error conditions */
 864:Drivers/STM32F4xx_HAL_Driver/Src/stm32f4xx_ll_sdmmc.c ****   errorstate = SDMMC_GetCmdResp7(SDIOx);
 865:Drivers/STM32F4xx_HAL_Driver/Src/stm32f4xx_ll_sdmmc.c **** 
 866:Drivers/STM32F4xx_HAL_Driver/Src/stm32f4xx_ll_sdmmc.c ****   return errorstate;
 867:Drivers/STM32F4xx_HAL_Driver/Src/stm32f4xx_ll_sdmmc.c **** }
 868:Drivers/STM32F4xx_HAL_Driver/Src/stm32f4xx_ll_sdmmc.c **** 
 869:Drivers/STM32F4xx_HAL_Driver/Src/stm32f4xx_ll_sdmmc.c **** /**
 870:Drivers/STM32F4xx_HAL_Driver/Src/stm32f4xx_ll_sdmmc.c ****   * @brief  Send the Application command to verify that that the next command 
 871:Drivers/STM32F4xx_HAL_Driver/Src/stm32f4xx_ll_sdmmc.c ****   *         is an application specific com-mand rather than a standard command
 872:Drivers/STM32F4xx_HAL_Driver/Src/stm32f4xx_ll_sdmmc.c ****   *         and check the response.
 873:Drivers/STM32F4xx_HAL_Driver/Src/stm32f4xx_ll_sdmmc.c ****   * @param  SDIOx Pointer to SDIO register base 
 874:Drivers/STM32F4xx_HAL_Driver/Src/stm32f4xx_ll_sdmmc.c ****   * @retval HAL status
 875:Drivers/STM32F4xx_HAL_Driver/Src/stm32f4xx_ll_sdmmc.c ****   */
 876:Drivers/STM32F4xx_HAL_Driver/Src/stm32f4xx_ll_sdmmc.c **** uint32_t SDMMC_CmdAppCommand(SDIO_TypeDef *SDIOx, uint32_t Argument)
 877:Drivers/STM32F4xx_HAL_Driver/Src/stm32f4xx_ll_sdmmc.c **** {
 878:Drivers/STM32F4xx_HAL_Driver/Src/stm32f4xx_ll_sdmmc.c ****   SDIO_CmdInitTypeDef  sdmmc_cmdinit;
 879:Drivers/STM32F4xx_HAL_Driver/Src/stm32f4xx_ll_sdmmc.c ****   uint32_t errorstate = SDMMC_ERROR_NONE;
 880:Drivers/STM32F4xx_HAL_Driver/Src/stm32f4xx_ll_sdmmc.c ****   
 881:Drivers/STM32F4xx_HAL_Driver/Src/stm32f4xx_ll_sdmmc.c ****   sdmmc_cmdinit.Argument         = (uint32_t)Argument;
 882:Drivers/STM32F4xx_HAL_Driver/Src/stm32f4xx_ll_sdmmc.c ****   sdmmc_cmdinit.CmdIndex         = SDMMC_CMD_APP_CMD;
 883:Drivers/STM32F4xx_HAL_Driver/Src/stm32f4xx_ll_sdmmc.c ****   sdmmc_cmdinit.Response         = SDIO_RESPONSE_SHORT;
 884:Drivers/STM32F4xx_HAL_Driver/Src/stm32f4xx_ll_sdmmc.c ****   sdmmc_cmdinit.WaitForInterrupt = SDIO_WAIT_NO;
 885:Drivers/STM32F4xx_HAL_Driver/Src/stm32f4xx_ll_sdmmc.c ****   sdmmc_cmdinit.CPSM             = SDIO_CPSM_ENABLE;
ARM GAS  /tmp/ccO3W952.s 			page 17


 886:Drivers/STM32F4xx_HAL_Driver/Src/stm32f4xx_ll_sdmmc.c ****   SDIO_SendCommand(SDIOx, &sdmmc_cmdinit);
 887:Drivers/STM32F4xx_HAL_Driver/Src/stm32f4xx_ll_sdmmc.c ****   
 888:Drivers/STM32F4xx_HAL_Driver/Src/stm32f4xx_ll_sdmmc.c ****   /* Check for error conditions */
 889:Drivers/STM32F4xx_HAL_Driver/Src/stm32f4xx_ll_sdmmc.c ****   /* If there is a HAL_ERROR, it is a MMC card, else
 890:Drivers/STM32F4xx_HAL_Driver/Src/stm32f4xx_ll_sdmmc.c ****   it is a SD card: SD card 2.0 (voltage range mismatch)
 891:Drivers/STM32F4xx_HAL_Driver/Src/stm32f4xx_ll_sdmmc.c ****      or SD card 1.x */
 892:Drivers/STM32F4xx_HAL_Driver/Src/stm32f4xx_ll_sdmmc.c ****   errorstate = SDMMC_GetCmdResp1(SDIOx, SDMMC_CMD_APP_CMD, SDIO_CMDTIMEOUT);
 893:Drivers/STM32F4xx_HAL_Driver/Src/stm32f4xx_ll_sdmmc.c **** 
 894:Drivers/STM32F4xx_HAL_Driver/Src/stm32f4xx_ll_sdmmc.c ****   return errorstate;
 895:Drivers/STM32F4xx_HAL_Driver/Src/stm32f4xx_ll_sdmmc.c **** }
 896:Drivers/STM32F4xx_HAL_Driver/Src/stm32f4xx_ll_sdmmc.c **** 
 897:Drivers/STM32F4xx_HAL_Driver/Src/stm32f4xx_ll_sdmmc.c **** /**
 898:Drivers/STM32F4xx_HAL_Driver/Src/stm32f4xx_ll_sdmmc.c ****   * @brief  Send the command asking the accessed card to send its operating 
 899:Drivers/STM32F4xx_HAL_Driver/Src/stm32f4xx_ll_sdmmc.c ****   *         condition register (OCR)
 900:Drivers/STM32F4xx_HAL_Driver/Src/stm32f4xx_ll_sdmmc.c ****   * @param  SDIOx Pointer to SDIO register base 
 901:Drivers/STM32F4xx_HAL_Driver/Src/stm32f4xx_ll_sdmmc.c ****   * @retval HAL status
 902:Drivers/STM32F4xx_HAL_Driver/Src/stm32f4xx_ll_sdmmc.c ****   */
 903:Drivers/STM32F4xx_HAL_Driver/Src/stm32f4xx_ll_sdmmc.c **** uint32_t SDMMC_CmdAppOperCommand(SDIO_TypeDef *SDIOx, uint32_t SdType)
 904:Drivers/STM32F4xx_HAL_Driver/Src/stm32f4xx_ll_sdmmc.c **** {
 905:Drivers/STM32F4xx_HAL_Driver/Src/stm32f4xx_ll_sdmmc.c ****   SDIO_CmdInitTypeDef  sdmmc_cmdinit;
 906:Drivers/STM32F4xx_HAL_Driver/Src/stm32f4xx_ll_sdmmc.c ****   uint32_t errorstate = SDMMC_ERROR_NONE;
 907:Drivers/STM32F4xx_HAL_Driver/Src/stm32f4xx_ll_sdmmc.c ****   
 908:Drivers/STM32F4xx_HAL_Driver/Src/stm32f4xx_ll_sdmmc.c ****   sdmmc_cmdinit.Argument         = SDMMC_VOLTAGE_WINDOW_SD | SdType;
 909:Drivers/STM32F4xx_HAL_Driver/Src/stm32f4xx_ll_sdmmc.c ****   sdmmc_cmdinit.CmdIndex         = SDMMC_CMD_SD_APP_OP_COND;
 910:Drivers/STM32F4xx_HAL_Driver/Src/stm32f4xx_ll_sdmmc.c ****   sdmmc_cmdinit.Response         = SDIO_RESPONSE_SHORT;
 911:Drivers/STM32F4xx_HAL_Driver/Src/stm32f4xx_ll_sdmmc.c ****   sdmmc_cmdinit.WaitForInterrupt = SDIO_WAIT_NO;
 912:Drivers/STM32F4xx_HAL_Driver/Src/stm32f4xx_ll_sdmmc.c ****   sdmmc_cmdinit.CPSM             = SDIO_CPSM_ENABLE;
 913:Drivers/STM32F4xx_HAL_Driver/Src/stm32f4xx_ll_sdmmc.c ****   SDIO_SendCommand(SDIOx, &sdmmc_cmdinit);
 914:Drivers/STM32F4xx_HAL_Driver/Src/stm32f4xx_ll_sdmmc.c ****   
 915:Drivers/STM32F4xx_HAL_Driver/Src/stm32f4xx_ll_sdmmc.c ****   /* Check for error conditions */
 916:Drivers/STM32F4xx_HAL_Driver/Src/stm32f4xx_ll_sdmmc.c ****   errorstate = SDMMC_GetCmdResp3(SDIOx);
 917:Drivers/STM32F4xx_HAL_Driver/Src/stm32f4xx_ll_sdmmc.c **** 
 918:Drivers/STM32F4xx_HAL_Driver/Src/stm32f4xx_ll_sdmmc.c ****   return errorstate;
 919:Drivers/STM32F4xx_HAL_Driver/Src/stm32f4xx_ll_sdmmc.c **** }
 920:Drivers/STM32F4xx_HAL_Driver/Src/stm32f4xx_ll_sdmmc.c **** 
 921:Drivers/STM32F4xx_HAL_Driver/Src/stm32f4xx_ll_sdmmc.c **** /**
 922:Drivers/STM32F4xx_HAL_Driver/Src/stm32f4xx_ll_sdmmc.c ****   * @brief  Send the Bus Width command and check the response.
 923:Drivers/STM32F4xx_HAL_Driver/Src/stm32f4xx_ll_sdmmc.c ****   * @param  SDIOx Pointer to SDIO register base 
 924:Drivers/STM32F4xx_HAL_Driver/Src/stm32f4xx_ll_sdmmc.c ****   * @retval HAL status
 925:Drivers/STM32F4xx_HAL_Driver/Src/stm32f4xx_ll_sdmmc.c ****   */
 926:Drivers/STM32F4xx_HAL_Driver/Src/stm32f4xx_ll_sdmmc.c **** uint32_t SDMMC_CmdBusWidth(SDIO_TypeDef *SDIOx, uint32_t BusWidth)
 927:Drivers/STM32F4xx_HAL_Driver/Src/stm32f4xx_ll_sdmmc.c **** {
 928:Drivers/STM32F4xx_HAL_Driver/Src/stm32f4xx_ll_sdmmc.c ****   SDIO_CmdInitTypeDef  sdmmc_cmdinit;
 929:Drivers/STM32F4xx_HAL_Driver/Src/stm32f4xx_ll_sdmmc.c ****   uint32_t errorstate = SDMMC_ERROR_NONE;
 930:Drivers/STM32F4xx_HAL_Driver/Src/stm32f4xx_ll_sdmmc.c ****   
 931:Drivers/STM32F4xx_HAL_Driver/Src/stm32f4xx_ll_sdmmc.c ****   sdmmc_cmdinit.Argument         = (uint32_t)BusWidth;
 932:Drivers/STM32F4xx_HAL_Driver/Src/stm32f4xx_ll_sdmmc.c ****   sdmmc_cmdinit.CmdIndex         = SDMMC_CMD_APP_SD_SET_BUSWIDTH;
 933:Drivers/STM32F4xx_HAL_Driver/Src/stm32f4xx_ll_sdmmc.c ****   sdmmc_cmdinit.Response         = SDIO_RESPONSE_SHORT;
 934:Drivers/STM32F4xx_HAL_Driver/Src/stm32f4xx_ll_sdmmc.c ****   sdmmc_cmdinit.WaitForInterrupt = SDIO_WAIT_NO;
 935:Drivers/STM32F4xx_HAL_Driver/Src/stm32f4xx_ll_sdmmc.c ****   sdmmc_cmdinit.CPSM             = SDIO_CPSM_ENABLE;
 936:Drivers/STM32F4xx_HAL_Driver/Src/stm32f4xx_ll_sdmmc.c ****   SDIO_SendCommand(SDIOx, &sdmmc_cmdinit);
 937:Drivers/STM32F4xx_HAL_Driver/Src/stm32f4xx_ll_sdmmc.c ****   
 938:Drivers/STM32F4xx_HAL_Driver/Src/stm32f4xx_ll_sdmmc.c ****   /* Check for error conditions */
 939:Drivers/STM32F4xx_HAL_Driver/Src/stm32f4xx_ll_sdmmc.c ****   errorstate = SDMMC_GetCmdResp1(SDIOx, SDMMC_CMD_APP_SD_SET_BUSWIDTH, SDIO_CMDTIMEOUT);
 940:Drivers/STM32F4xx_HAL_Driver/Src/stm32f4xx_ll_sdmmc.c **** 
 941:Drivers/STM32F4xx_HAL_Driver/Src/stm32f4xx_ll_sdmmc.c ****   return errorstate;
 942:Drivers/STM32F4xx_HAL_Driver/Src/stm32f4xx_ll_sdmmc.c **** }
ARM GAS  /tmp/ccO3W952.s 			page 18


 943:Drivers/STM32F4xx_HAL_Driver/Src/stm32f4xx_ll_sdmmc.c **** 
 944:Drivers/STM32F4xx_HAL_Driver/Src/stm32f4xx_ll_sdmmc.c **** /**
 945:Drivers/STM32F4xx_HAL_Driver/Src/stm32f4xx_ll_sdmmc.c ****   * @brief  Send the Send SCR command and check the response.
 946:Drivers/STM32F4xx_HAL_Driver/Src/stm32f4xx_ll_sdmmc.c ****   * @param  SDIOx Pointer to SDMMC register base 
 947:Drivers/STM32F4xx_HAL_Driver/Src/stm32f4xx_ll_sdmmc.c ****   * @retval HAL status
 948:Drivers/STM32F4xx_HAL_Driver/Src/stm32f4xx_ll_sdmmc.c ****   */
 949:Drivers/STM32F4xx_HAL_Driver/Src/stm32f4xx_ll_sdmmc.c **** uint32_t SDMMC_CmdSendSCR(SDIO_TypeDef *SDIOx)
 950:Drivers/STM32F4xx_HAL_Driver/Src/stm32f4xx_ll_sdmmc.c **** {
 951:Drivers/STM32F4xx_HAL_Driver/Src/stm32f4xx_ll_sdmmc.c ****   SDIO_CmdInitTypeDef  sdmmc_cmdinit;
 952:Drivers/STM32F4xx_HAL_Driver/Src/stm32f4xx_ll_sdmmc.c ****   uint32_t errorstate = SDMMC_ERROR_NONE;
 953:Drivers/STM32F4xx_HAL_Driver/Src/stm32f4xx_ll_sdmmc.c ****   
 954:Drivers/STM32F4xx_HAL_Driver/Src/stm32f4xx_ll_sdmmc.c ****   /* Send CMD51 SD_APP_SEND_SCR */
 955:Drivers/STM32F4xx_HAL_Driver/Src/stm32f4xx_ll_sdmmc.c ****   sdmmc_cmdinit.Argument         = 0U;
 956:Drivers/STM32F4xx_HAL_Driver/Src/stm32f4xx_ll_sdmmc.c ****   sdmmc_cmdinit.CmdIndex         = SDMMC_CMD_SD_APP_SEND_SCR;
 957:Drivers/STM32F4xx_HAL_Driver/Src/stm32f4xx_ll_sdmmc.c ****   sdmmc_cmdinit.Response         = SDIO_RESPONSE_SHORT;
 958:Drivers/STM32F4xx_HAL_Driver/Src/stm32f4xx_ll_sdmmc.c ****   sdmmc_cmdinit.WaitForInterrupt = SDIO_WAIT_NO;
 959:Drivers/STM32F4xx_HAL_Driver/Src/stm32f4xx_ll_sdmmc.c ****   sdmmc_cmdinit.CPSM             = SDIO_CPSM_ENABLE;
 960:Drivers/STM32F4xx_HAL_Driver/Src/stm32f4xx_ll_sdmmc.c ****   SDIO_SendCommand(SDIOx, &sdmmc_cmdinit);
 961:Drivers/STM32F4xx_HAL_Driver/Src/stm32f4xx_ll_sdmmc.c ****   
 962:Drivers/STM32F4xx_HAL_Driver/Src/stm32f4xx_ll_sdmmc.c ****   /* Check for error conditions */
 963:Drivers/STM32F4xx_HAL_Driver/Src/stm32f4xx_ll_sdmmc.c ****   errorstate = SDMMC_GetCmdResp1(SDIOx, SDMMC_CMD_SD_APP_SEND_SCR, SDIO_CMDTIMEOUT);
 964:Drivers/STM32F4xx_HAL_Driver/Src/stm32f4xx_ll_sdmmc.c **** 
 965:Drivers/STM32F4xx_HAL_Driver/Src/stm32f4xx_ll_sdmmc.c ****   return errorstate;
 966:Drivers/STM32F4xx_HAL_Driver/Src/stm32f4xx_ll_sdmmc.c **** }
 967:Drivers/STM32F4xx_HAL_Driver/Src/stm32f4xx_ll_sdmmc.c **** 
 968:Drivers/STM32F4xx_HAL_Driver/Src/stm32f4xx_ll_sdmmc.c **** /**
 969:Drivers/STM32F4xx_HAL_Driver/Src/stm32f4xx_ll_sdmmc.c ****   * @brief  Send the Send CID command and check the response.
 970:Drivers/STM32F4xx_HAL_Driver/Src/stm32f4xx_ll_sdmmc.c ****   * @param  SDIOx Pointer to SDIO register base 
 971:Drivers/STM32F4xx_HAL_Driver/Src/stm32f4xx_ll_sdmmc.c ****   * @retval HAL status
 972:Drivers/STM32F4xx_HAL_Driver/Src/stm32f4xx_ll_sdmmc.c ****   */
 973:Drivers/STM32F4xx_HAL_Driver/Src/stm32f4xx_ll_sdmmc.c **** uint32_t SDMMC_CmdSendCID(SDIO_TypeDef *SDIOx)
 974:Drivers/STM32F4xx_HAL_Driver/Src/stm32f4xx_ll_sdmmc.c **** {
 975:Drivers/STM32F4xx_HAL_Driver/Src/stm32f4xx_ll_sdmmc.c ****   SDIO_CmdInitTypeDef  sdmmc_cmdinit;
 976:Drivers/STM32F4xx_HAL_Driver/Src/stm32f4xx_ll_sdmmc.c ****   uint32_t errorstate = SDMMC_ERROR_NONE;
 977:Drivers/STM32F4xx_HAL_Driver/Src/stm32f4xx_ll_sdmmc.c ****   
 978:Drivers/STM32F4xx_HAL_Driver/Src/stm32f4xx_ll_sdmmc.c ****   /* Send CMD2 ALL_SEND_CID */
 979:Drivers/STM32F4xx_HAL_Driver/Src/stm32f4xx_ll_sdmmc.c ****   sdmmc_cmdinit.Argument         = 0U;
 980:Drivers/STM32F4xx_HAL_Driver/Src/stm32f4xx_ll_sdmmc.c ****   sdmmc_cmdinit.CmdIndex         = SDMMC_CMD_ALL_SEND_CID;
 981:Drivers/STM32F4xx_HAL_Driver/Src/stm32f4xx_ll_sdmmc.c ****   sdmmc_cmdinit.Response         = SDIO_RESPONSE_LONG;
 982:Drivers/STM32F4xx_HAL_Driver/Src/stm32f4xx_ll_sdmmc.c ****   sdmmc_cmdinit.WaitForInterrupt = SDIO_WAIT_NO;
 983:Drivers/STM32F4xx_HAL_Driver/Src/stm32f4xx_ll_sdmmc.c ****   sdmmc_cmdinit.CPSM             = SDIO_CPSM_ENABLE;
 984:Drivers/STM32F4xx_HAL_Driver/Src/stm32f4xx_ll_sdmmc.c ****   SDIO_SendCommand(SDIOx, &sdmmc_cmdinit);
 985:Drivers/STM32F4xx_HAL_Driver/Src/stm32f4xx_ll_sdmmc.c ****   
 986:Drivers/STM32F4xx_HAL_Driver/Src/stm32f4xx_ll_sdmmc.c ****   /* Check for error conditions */
 987:Drivers/STM32F4xx_HAL_Driver/Src/stm32f4xx_ll_sdmmc.c ****   errorstate = SDMMC_GetCmdResp2(SDIOx);
 988:Drivers/STM32F4xx_HAL_Driver/Src/stm32f4xx_ll_sdmmc.c **** 
 989:Drivers/STM32F4xx_HAL_Driver/Src/stm32f4xx_ll_sdmmc.c ****   return errorstate;
 990:Drivers/STM32F4xx_HAL_Driver/Src/stm32f4xx_ll_sdmmc.c **** }
 991:Drivers/STM32F4xx_HAL_Driver/Src/stm32f4xx_ll_sdmmc.c **** 
 992:Drivers/STM32F4xx_HAL_Driver/Src/stm32f4xx_ll_sdmmc.c **** /**
 993:Drivers/STM32F4xx_HAL_Driver/Src/stm32f4xx_ll_sdmmc.c ****   * @brief  Send the Send CSD command and check the response.
 994:Drivers/STM32F4xx_HAL_Driver/Src/stm32f4xx_ll_sdmmc.c ****   * @param  SDIOx Pointer to SDIO register base 
 995:Drivers/STM32F4xx_HAL_Driver/Src/stm32f4xx_ll_sdmmc.c ****   * @retval HAL status
 996:Drivers/STM32F4xx_HAL_Driver/Src/stm32f4xx_ll_sdmmc.c ****   */
 997:Drivers/STM32F4xx_HAL_Driver/Src/stm32f4xx_ll_sdmmc.c **** uint32_t SDMMC_CmdSendCSD(SDIO_TypeDef *SDIOx, uint32_t Argument)
 998:Drivers/STM32F4xx_HAL_Driver/Src/stm32f4xx_ll_sdmmc.c **** {
 999:Drivers/STM32F4xx_HAL_Driver/Src/stm32f4xx_ll_sdmmc.c ****   SDIO_CmdInitTypeDef  sdmmc_cmdinit;
ARM GAS  /tmp/ccO3W952.s 			page 19


1000:Drivers/STM32F4xx_HAL_Driver/Src/stm32f4xx_ll_sdmmc.c ****   uint32_t errorstate = SDMMC_ERROR_NONE;
1001:Drivers/STM32F4xx_HAL_Driver/Src/stm32f4xx_ll_sdmmc.c ****   
1002:Drivers/STM32F4xx_HAL_Driver/Src/stm32f4xx_ll_sdmmc.c ****   /* Send CMD9 SEND_CSD */
1003:Drivers/STM32F4xx_HAL_Driver/Src/stm32f4xx_ll_sdmmc.c ****   sdmmc_cmdinit.Argument         = (uint32_t)Argument;
1004:Drivers/STM32F4xx_HAL_Driver/Src/stm32f4xx_ll_sdmmc.c ****   sdmmc_cmdinit.CmdIndex         = SDMMC_CMD_SEND_CSD;
1005:Drivers/STM32F4xx_HAL_Driver/Src/stm32f4xx_ll_sdmmc.c ****   sdmmc_cmdinit.Response         = SDIO_RESPONSE_LONG;
1006:Drivers/STM32F4xx_HAL_Driver/Src/stm32f4xx_ll_sdmmc.c ****   sdmmc_cmdinit.WaitForInterrupt = SDIO_WAIT_NO;
1007:Drivers/STM32F4xx_HAL_Driver/Src/stm32f4xx_ll_sdmmc.c ****   sdmmc_cmdinit.CPSM             = SDIO_CPSM_ENABLE;
1008:Drivers/STM32F4xx_HAL_Driver/Src/stm32f4xx_ll_sdmmc.c ****   SDIO_SendCommand(SDIOx, &sdmmc_cmdinit);
1009:Drivers/STM32F4xx_HAL_Driver/Src/stm32f4xx_ll_sdmmc.c ****   
1010:Drivers/STM32F4xx_HAL_Driver/Src/stm32f4xx_ll_sdmmc.c ****   /* Check for error conditions */
1011:Drivers/STM32F4xx_HAL_Driver/Src/stm32f4xx_ll_sdmmc.c ****   errorstate = SDMMC_GetCmdResp2(SDIOx);
1012:Drivers/STM32F4xx_HAL_Driver/Src/stm32f4xx_ll_sdmmc.c **** 
1013:Drivers/STM32F4xx_HAL_Driver/Src/stm32f4xx_ll_sdmmc.c ****   return errorstate;
1014:Drivers/STM32F4xx_HAL_Driver/Src/stm32f4xx_ll_sdmmc.c **** }
1015:Drivers/STM32F4xx_HAL_Driver/Src/stm32f4xx_ll_sdmmc.c **** 
1016:Drivers/STM32F4xx_HAL_Driver/Src/stm32f4xx_ll_sdmmc.c **** /**
1017:Drivers/STM32F4xx_HAL_Driver/Src/stm32f4xx_ll_sdmmc.c ****   * @brief  Send the Send CSD command and check the response.
1018:Drivers/STM32F4xx_HAL_Driver/Src/stm32f4xx_ll_sdmmc.c ****   * @param  SDIOx Pointer to SDIO register base 
1019:Drivers/STM32F4xx_HAL_Driver/Src/stm32f4xx_ll_sdmmc.c ****   * @retval HAL status
1020:Drivers/STM32F4xx_HAL_Driver/Src/stm32f4xx_ll_sdmmc.c ****   */
1021:Drivers/STM32F4xx_HAL_Driver/Src/stm32f4xx_ll_sdmmc.c **** uint32_t SDMMC_CmdSetRelAdd(SDIO_TypeDef *SDIOx, uint16_t *pRCA)
1022:Drivers/STM32F4xx_HAL_Driver/Src/stm32f4xx_ll_sdmmc.c **** {
1023:Drivers/STM32F4xx_HAL_Driver/Src/stm32f4xx_ll_sdmmc.c ****   SDIO_CmdInitTypeDef  sdmmc_cmdinit;
1024:Drivers/STM32F4xx_HAL_Driver/Src/stm32f4xx_ll_sdmmc.c ****   uint32_t errorstate = SDMMC_ERROR_NONE;
1025:Drivers/STM32F4xx_HAL_Driver/Src/stm32f4xx_ll_sdmmc.c ****   
1026:Drivers/STM32F4xx_HAL_Driver/Src/stm32f4xx_ll_sdmmc.c ****   /* Send CMD3 SD_CMD_SET_REL_ADDR */
1027:Drivers/STM32F4xx_HAL_Driver/Src/stm32f4xx_ll_sdmmc.c ****   sdmmc_cmdinit.Argument         = 0U;
1028:Drivers/STM32F4xx_HAL_Driver/Src/stm32f4xx_ll_sdmmc.c ****   sdmmc_cmdinit.CmdIndex         = SDMMC_CMD_SET_REL_ADDR;
1029:Drivers/STM32F4xx_HAL_Driver/Src/stm32f4xx_ll_sdmmc.c ****   sdmmc_cmdinit.Response         = SDIO_RESPONSE_SHORT;
1030:Drivers/STM32F4xx_HAL_Driver/Src/stm32f4xx_ll_sdmmc.c ****   sdmmc_cmdinit.WaitForInterrupt = SDIO_WAIT_NO;
1031:Drivers/STM32F4xx_HAL_Driver/Src/stm32f4xx_ll_sdmmc.c ****   sdmmc_cmdinit.CPSM             = SDIO_CPSM_ENABLE;
1032:Drivers/STM32F4xx_HAL_Driver/Src/stm32f4xx_ll_sdmmc.c ****   SDIO_SendCommand(SDIOx, &sdmmc_cmdinit);
1033:Drivers/STM32F4xx_HAL_Driver/Src/stm32f4xx_ll_sdmmc.c ****   
1034:Drivers/STM32F4xx_HAL_Driver/Src/stm32f4xx_ll_sdmmc.c ****   /* Check for error conditions */
1035:Drivers/STM32F4xx_HAL_Driver/Src/stm32f4xx_ll_sdmmc.c ****   errorstate = SDMMC_GetCmdResp6(SDIOx, SDMMC_CMD_SET_REL_ADDR, pRCA);
1036:Drivers/STM32F4xx_HAL_Driver/Src/stm32f4xx_ll_sdmmc.c **** 
1037:Drivers/STM32F4xx_HAL_Driver/Src/stm32f4xx_ll_sdmmc.c ****   return errorstate;
1038:Drivers/STM32F4xx_HAL_Driver/Src/stm32f4xx_ll_sdmmc.c **** }
1039:Drivers/STM32F4xx_HAL_Driver/Src/stm32f4xx_ll_sdmmc.c **** 
1040:Drivers/STM32F4xx_HAL_Driver/Src/stm32f4xx_ll_sdmmc.c **** /**
1041:Drivers/STM32F4xx_HAL_Driver/Src/stm32f4xx_ll_sdmmc.c ****   * @brief  Send the Status command and check the response.
1042:Drivers/STM32F4xx_HAL_Driver/Src/stm32f4xx_ll_sdmmc.c ****   * @param  SDIOx Pointer to SDIO register base 
1043:Drivers/STM32F4xx_HAL_Driver/Src/stm32f4xx_ll_sdmmc.c ****   * @retval HAL status
1044:Drivers/STM32F4xx_HAL_Driver/Src/stm32f4xx_ll_sdmmc.c ****   */
1045:Drivers/STM32F4xx_HAL_Driver/Src/stm32f4xx_ll_sdmmc.c **** uint32_t SDMMC_CmdSendStatus(SDIO_TypeDef *SDIOx, uint32_t Argument)
1046:Drivers/STM32F4xx_HAL_Driver/Src/stm32f4xx_ll_sdmmc.c **** {
1047:Drivers/STM32F4xx_HAL_Driver/Src/stm32f4xx_ll_sdmmc.c ****   SDIO_CmdInitTypeDef  sdmmc_cmdinit;
1048:Drivers/STM32F4xx_HAL_Driver/Src/stm32f4xx_ll_sdmmc.c ****   uint32_t errorstate = SDMMC_ERROR_NONE;
1049:Drivers/STM32F4xx_HAL_Driver/Src/stm32f4xx_ll_sdmmc.c ****   
1050:Drivers/STM32F4xx_HAL_Driver/Src/stm32f4xx_ll_sdmmc.c ****   sdmmc_cmdinit.Argument         = (uint32_t)Argument;
1051:Drivers/STM32F4xx_HAL_Driver/Src/stm32f4xx_ll_sdmmc.c ****   sdmmc_cmdinit.CmdIndex         = SDMMC_CMD_SEND_STATUS;
1052:Drivers/STM32F4xx_HAL_Driver/Src/stm32f4xx_ll_sdmmc.c ****   sdmmc_cmdinit.Response         = SDIO_RESPONSE_SHORT;
1053:Drivers/STM32F4xx_HAL_Driver/Src/stm32f4xx_ll_sdmmc.c ****   sdmmc_cmdinit.WaitForInterrupt = SDIO_WAIT_NO;
1054:Drivers/STM32F4xx_HAL_Driver/Src/stm32f4xx_ll_sdmmc.c ****   sdmmc_cmdinit.CPSM             = SDIO_CPSM_ENABLE;
1055:Drivers/STM32F4xx_HAL_Driver/Src/stm32f4xx_ll_sdmmc.c ****   SDIO_SendCommand(SDIOx, &sdmmc_cmdinit);
1056:Drivers/STM32F4xx_HAL_Driver/Src/stm32f4xx_ll_sdmmc.c ****   
ARM GAS  /tmp/ccO3W952.s 			page 20


1057:Drivers/STM32F4xx_HAL_Driver/Src/stm32f4xx_ll_sdmmc.c ****   /* Check for error conditions */
1058:Drivers/STM32F4xx_HAL_Driver/Src/stm32f4xx_ll_sdmmc.c ****   errorstate = SDMMC_GetCmdResp1(SDIOx, SDMMC_CMD_SEND_STATUS, SDIO_CMDTIMEOUT);
1059:Drivers/STM32F4xx_HAL_Driver/Src/stm32f4xx_ll_sdmmc.c **** 
1060:Drivers/STM32F4xx_HAL_Driver/Src/stm32f4xx_ll_sdmmc.c ****   return errorstate;
1061:Drivers/STM32F4xx_HAL_Driver/Src/stm32f4xx_ll_sdmmc.c **** }
1062:Drivers/STM32F4xx_HAL_Driver/Src/stm32f4xx_ll_sdmmc.c **** 
1063:Drivers/STM32F4xx_HAL_Driver/Src/stm32f4xx_ll_sdmmc.c **** /**
1064:Drivers/STM32F4xx_HAL_Driver/Src/stm32f4xx_ll_sdmmc.c ****   * @brief  Send the Status register command and check the response.
1065:Drivers/STM32F4xx_HAL_Driver/Src/stm32f4xx_ll_sdmmc.c ****   * @param  SDIOx Pointer to SDIO register base 
1066:Drivers/STM32F4xx_HAL_Driver/Src/stm32f4xx_ll_sdmmc.c ****   * @retval HAL status
1067:Drivers/STM32F4xx_HAL_Driver/Src/stm32f4xx_ll_sdmmc.c ****   */
1068:Drivers/STM32F4xx_HAL_Driver/Src/stm32f4xx_ll_sdmmc.c **** uint32_t SDMMC_CmdStatusRegister(SDIO_TypeDef *SDIOx)
1069:Drivers/STM32F4xx_HAL_Driver/Src/stm32f4xx_ll_sdmmc.c **** {
1070:Drivers/STM32F4xx_HAL_Driver/Src/stm32f4xx_ll_sdmmc.c ****   SDIO_CmdInitTypeDef  sdmmc_cmdinit;
1071:Drivers/STM32F4xx_HAL_Driver/Src/stm32f4xx_ll_sdmmc.c ****   uint32_t errorstate = SDMMC_ERROR_NONE;
1072:Drivers/STM32F4xx_HAL_Driver/Src/stm32f4xx_ll_sdmmc.c ****   
1073:Drivers/STM32F4xx_HAL_Driver/Src/stm32f4xx_ll_sdmmc.c ****   sdmmc_cmdinit.Argument         = 0U;
1074:Drivers/STM32F4xx_HAL_Driver/Src/stm32f4xx_ll_sdmmc.c ****   sdmmc_cmdinit.CmdIndex         = SDMMC_CMD_SD_APP_STATUS;
1075:Drivers/STM32F4xx_HAL_Driver/Src/stm32f4xx_ll_sdmmc.c ****   sdmmc_cmdinit.Response         = SDIO_RESPONSE_SHORT;
1076:Drivers/STM32F4xx_HAL_Driver/Src/stm32f4xx_ll_sdmmc.c ****   sdmmc_cmdinit.WaitForInterrupt = SDIO_WAIT_NO;
1077:Drivers/STM32F4xx_HAL_Driver/Src/stm32f4xx_ll_sdmmc.c ****   sdmmc_cmdinit.CPSM             = SDIO_CPSM_ENABLE;
1078:Drivers/STM32F4xx_HAL_Driver/Src/stm32f4xx_ll_sdmmc.c ****   SDIO_SendCommand(SDIOx, &sdmmc_cmdinit);
1079:Drivers/STM32F4xx_HAL_Driver/Src/stm32f4xx_ll_sdmmc.c ****   
1080:Drivers/STM32F4xx_HAL_Driver/Src/stm32f4xx_ll_sdmmc.c ****   /* Check for error conditions */
1081:Drivers/STM32F4xx_HAL_Driver/Src/stm32f4xx_ll_sdmmc.c ****   errorstate = SDMMC_GetCmdResp1(SDIOx, SDMMC_CMD_SD_APP_STATUS, SDIO_CMDTIMEOUT);
1082:Drivers/STM32F4xx_HAL_Driver/Src/stm32f4xx_ll_sdmmc.c **** 
1083:Drivers/STM32F4xx_HAL_Driver/Src/stm32f4xx_ll_sdmmc.c ****   return errorstate;
1084:Drivers/STM32F4xx_HAL_Driver/Src/stm32f4xx_ll_sdmmc.c **** }
1085:Drivers/STM32F4xx_HAL_Driver/Src/stm32f4xx_ll_sdmmc.c **** 
1086:Drivers/STM32F4xx_HAL_Driver/Src/stm32f4xx_ll_sdmmc.c **** /**
1087:Drivers/STM32F4xx_HAL_Driver/Src/stm32f4xx_ll_sdmmc.c ****   * @brief  Sends host capacity support information and activates the card's 
1088:Drivers/STM32F4xx_HAL_Driver/Src/stm32f4xx_ll_sdmmc.c ****   *         initialization process. Send SDMMC_CMD_SEND_OP_COND command
1089:Drivers/STM32F4xx_HAL_Driver/Src/stm32f4xx_ll_sdmmc.c ****   * @param  SDIOx Pointer to SDIO register base 
1090:Drivers/STM32F4xx_HAL_Driver/Src/stm32f4xx_ll_sdmmc.c ****   * @parame Argument Argument used for the command
1091:Drivers/STM32F4xx_HAL_Driver/Src/stm32f4xx_ll_sdmmc.c ****   * @retval HAL status
1092:Drivers/STM32F4xx_HAL_Driver/Src/stm32f4xx_ll_sdmmc.c ****   */
1093:Drivers/STM32F4xx_HAL_Driver/Src/stm32f4xx_ll_sdmmc.c **** uint32_t SDMMC_CmdOpCondition(SDIO_TypeDef *SDIOx, uint32_t Argument)
1094:Drivers/STM32F4xx_HAL_Driver/Src/stm32f4xx_ll_sdmmc.c **** {
1095:Drivers/STM32F4xx_HAL_Driver/Src/stm32f4xx_ll_sdmmc.c ****   SDIO_CmdInitTypeDef  sdmmc_cmdinit;
1096:Drivers/STM32F4xx_HAL_Driver/Src/stm32f4xx_ll_sdmmc.c ****   uint32_t errorstate = SDMMC_ERROR_NONE;
1097:Drivers/STM32F4xx_HAL_Driver/Src/stm32f4xx_ll_sdmmc.c ****   
1098:Drivers/STM32F4xx_HAL_Driver/Src/stm32f4xx_ll_sdmmc.c ****   sdmmc_cmdinit.Argument         = Argument;
1099:Drivers/STM32F4xx_HAL_Driver/Src/stm32f4xx_ll_sdmmc.c ****   sdmmc_cmdinit.CmdIndex         = SDMMC_CMD_SEND_OP_COND;
1100:Drivers/STM32F4xx_HAL_Driver/Src/stm32f4xx_ll_sdmmc.c ****   sdmmc_cmdinit.Response         = SDIO_RESPONSE_SHORT;
1101:Drivers/STM32F4xx_HAL_Driver/Src/stm32f4xx_ll_sdmmc.c ****   sdmmc_cmdinit.WaitForInterrupt = SDIO_WAIT_NO;
1102:Drivers/STM32F4xx_HAL_Driver/Src/stm32f4xx_ll_sdmmc.c ****   sdmmc_cmdinit.CPSM             = SDIO_CPSM_ENABLE;
1103:Drivers/STM32F4xx_HAL_Driver/Src/stm32f4xx_ll_sdmmc.c ****   SDIO_SendCommand(SDIOx, &sdmmc_cmdinit);
1104:Drivers/STM32F4xx_HAL_Driver/Src/stm32f4xx_ll_sdmmc.c ****   
1105:Drivers/STM32F4xx_HAL_Driver/Src/stm32f4xx_ll_sdmmc.c ****   /* Check for error conditions */
1106:Drivers/STM32F4xx_HAL_Driver/Src/stm32f4xx_ll_sdmmc.c ****   errorstate = SDMMC_GetCmdResp3(SDIOx);
1107:Drivers/STM32F4xx_HAL_Driver/Src/stm32f4xx_ll_sdmmc.c **** 
1108:Drivers/STM32F4xx_HAL_Driver/Src/stm32f4xx_ll_sdmmc.c ****   return errorstate;
1109:Drivers/STM32F4xx_HAL_Driver/Src/stm32f4xx_ll_sdmmc.c **** }
1110:Drivers/STM32F4xx_HAL_Driver/Src/stm32f4xx_ll_sdmmc.c **** 
1111:Drivers/STM32F4xx_HAL_Driver/Src/stm32f4xx_ll_sdmmc.c **** /**
1112:Drivers/STM32F4xx_HAL_Driver/Src/stm32f4xx_ll_sdmmc.c ****   * @brief  Checks switchable function and switch card function. SDMMC_CMD_HS_SWITCH comand
1113:Drivers/STM32F4xx_HAL_Driver/Src/stm32f4xx_ll_sdmmc.c ****   * @param  SDIOx Pointer to SDIO register base 
ARM GAS  /tmp/ccO3W952.s 			page 21


1114:Drivers/STM32F4xx_HAL_Driver/Src/stm32f4xx_ll_sdmmc.c ****   * @parame Argument Argument used for the command
1115:Drivers/STM32F4xx_HAL_Driver/Src/stm32f4xx_ll_sdmmc.c ****   * @retval HAL status
1116:Drivers/STM32F4xx_HAL_Driver/Src/stm32f4xx_ll_sdmmc.c ****   */
1117:Drivers/STM32F4xx_HAL_Driver/Src/stm32f4xx_ll_sdmmc.c **** uint32_t SDMMC_CmdSwitch(SDIO_TypeDef *SDIOx, uint32_t Argument)
1118:Drivers/STM32F4xx_HAL_Driver/Src/stm32f4xx_ll_sdmmc.c **** {
1119:Drivers/STM32F4xx_HAL_Driver/Src/stm32f4xx_ll_sdmmc.c ****   SDIO_CmdInitTypeDef  sdmmc_cmdinit;
1120:Drivers/STM32F4xx_HAL_Driver/Src/stm32f4xx_ll_sdmmc.c ****   uint32_t errorstate = SDMMC_ERROR_NONE;
1121:Drivers/STM32F4xx_HAL_Driver/Src/stm32f4xx_ll_sdmmc.c ****   
1122:Drivers/STM32F4xx_HAL_Driver/Src/stm32f4xx_ll_sdmmc.c ****   sdmmc_cmdinit.Argument         = Argument;
1123:Drivers/STM32F4xx_HAL_Driver/Src/stm32f4xx_ll_sdmmc.c ****   sdmmc_cmdinit.CmdIndex         = SDMMC_CMD_HS_SWITCH;
1124:Drivers/STM32F4xx_HAL_Driver/Src/stm32f4xx_ll_sdmmc.c ****   sdmmc_cmdinit.Response         = SDIO_RESPONSE_SHORT;
1125:Drivers/STM32F4xx_HAL_Driver/Src/stm32f4xx_ll_sdmmc.c ****   sdmmc_cmdinit.WaitForInterrupt = SDIO_WAIT_NO;
1126:Drivers/STM32F4xx_HAL_Driver/Src/stm32f4xx_ll_sdmmc.c ****   sdmmc_cmdinit.CPSM             = SDIO_CPSM_ENABLE;
1127:Drivers/STM32F4xx_HAL_Driver/Src/stm32f4xx_ll_sdmmc.c ****   SDIO_SendCommand(SDIOx, &sdmmc_cmdinit);
1128:Drivers/STM32F4xx_HAL_Driver/Src/stm32f4xx_ll_sdmmc.c ****   
1129:Drivers/STM32F4xx_HAL_Driver/Src/stm32f4xx_ll_sdmmc.c ****   /* Check for error conditions */
1130:Drivers/STM32F4xx_HAL_Driver/Src/stm32f4xx_ll_sdmmc.c ****   errorstate = SDMMC_GetCmdResp1(SDIOx, SDMMC_CMD_HS_SWITCH, SDIO_CMDTIMEOUT);
1131:Drivers/STM32F4xx_HAL_Driver/Src/stm32f4xx_ll_sdmmc.c **** 
1132:Drivers/STM32F4xx_HAL_Driver/Src/stm32f4xx_ll_sdmmc.c ****   return errorstate;
1133:Drivers/STM32F4xx_HAL_Driver/Src/stm32f4xx_ll_sdmmc.c **** }
1134:Drivers/STM32F4xx_HAL_Driver/Src/stm32f4xx_ll_sdmmc.c **** 
1135:Drivers/STM32F4xx_HAL_Driver/Src/stm32f4xx_ll_sdmmc.c **** /**
1136:Drivers/STM32F4xx_HAL_Driver/Src/stm32f4xx_ll_sdmmc.c ****   * @}
1137:Drivers/STM32F4xx_HAL_Driver/Src/stm32f4xx_ll_sdmmc.c ****   */
1138:Drivers/STM32F4xx_HAL_Driver/Src/stm32f4xx_ll_sdmmc.c **** 
1139:Drivers/STM32F4xx_HAL_Driver/Src/stm32f4xx_ll_sdmmc.c **** /* Private function ----------------------------------------------------------*/  
1140:Drivers/STM32F4xx_HAL_Driver/Src/stm32f4xx_ll_sdmmc.c **** /** @addtogroup SD_Private_Functions
1141:Drivers/STM32F4xx_HAL_Driver/Src/stm32f4xx_ll_sdmmc.c ****   * @{
1142:Drivers/STM32F4xx_HAL_Driver/Src/stm32f4xx_ll_sdmmc.c ****   */
1143:Drivers/STM32F4xx_HAL_Driver/Src/stm32f4xx_ll_sdmmc.c ****     
1144:Drivers/STM32F4xx_HAL_Driver/Src/stm32f4xx_ll_sdmmc.c **** /**
1145:Drivers/STM32F4xx_HAL_Driver/Src/stm32f4xx_ll_sdmmc.c ****   * @brief  Checks for error conditions for CMD0.
1146:Drivers/STM32F4xx_HAL_Driver/Src/stm32f4xx_ll_sdmmc.c ****   * @param  hsd SD handle
1147:Drivers/STM32F4xx_HAL_Driver/Src/stm32f4xx_ll_sdmmc.c ****   * @retval SD Card error state
1148:Drivers/STM32F4xx_HAL_Driver/Src/stm32f4xx_ll_sdmmc.c ****   */
1149:Drivers/STM32F4xx_HAL_Driver/Src/stm32f4xx_ll_sdmmc.c **** static uint32_t SDMMC_GetCmdError(SDIO_TypeDef *SDIOx)
1150:Drivers/STM32F4xx_HAL_Driver/Src/stm32f4xx_ll_sdmmc.c **** {
  29              		.loc 1 1150 0
  30              		.cfi_startproc
  31              		@ args = 0, pretend = 0, frame = 0
  32              		@ frame_needed = 0, uses_anonymous_args = 0
  33              		@ link register save eliminated.
  34              	.LVL0:
1151:Drivers/STM32F4xx_HAL_Driver/Src/stm32f4xx_ll_sdmmc.c ****   /* 8 is the number of required instructions cycles for the below loop statement.
1152:Drivers/STM32F4xx_HAL_Driver/Src/stm32f4xx_ll_sdmmc.c ****   The SDMMC_CMDTIMEOUT is expressed in ms */
1153:Drivers/STM32F4xx_HAL_Driver/Src/stm32f4xx_ll_sdmmc.c ****   register uint32_t count = SDIO_CMDTIMEOUT * (SystemCoreClock / 8U /1000U);
  35              		.loc 1 1153 0
  36 0000 0C4B     		ldr	r3, .L5
  37 0002 1B68     		ldr	r3, [r3]
  38 0004 0C4A     		ldr	r2, .L5+4
  39 0006 A2FB0323 		umull	r2, r3, r2, r3
  40 000a 5A0A     		lsrs	r2, r3, #9
  41 000c 41F28833 		movw	r3, #5000
  42 0010 03FB02F3 		mul	r3, r3, r2
  43              	.LVL1:
  44              	.L3:
1154:Drivers/STM32F4xx_HAL_Driver/Src/stm32f4xx_ll_sdmmc.c ****   
ARM GAS  /tmp/ccO3W952.s 			page 22


1155:Drivers/STM32F4xx_HAL_Driver/Src/stm32f4xx_ll_sdmmc.c ****   do
1156:Drivers/STM32F4xx_HAL_Driver/Src/stm32f4xx_ll_sdmmc.c ****   {
1157:Drivers/STM32F4xx_HAL_Driver/Src/stm32f4xx_ll_sdmmc.c ****     if (count-- == 0U)
  45              		.loc 1 1157 0
  46 0014 5A1E     		subs	r2, r3, #1
  47              	.LVL2:
  48 0016 4BB1     		cbz	r3, .L4
1158:Drivers/STM32F4xx_HAL_Driver/Src/stm32f4xx_ll_sdmmc.c ****     {
1159:Drivers/STM32F4xx_HAL_Driver/Src/stm32f4xx_ll_sdmmc.c ****       return SDMMC_ERROR_TIMEOUT;
1160:Drivers/STM32F4xx_HAL_Driver/Src/stm32f4xx_ll_sdmmc.c ****     }
1161:Drivers/STM32F4xx_HAL_Driver/Src/stm32f4xx_ll_sdmmc.c ****     
1162:Drivers/STM32F4xx_HAL_Driver/Src/stm32f4xx_ll_sdmmc.c ****   }while(!__SDIO_GET_FLAG(SDIOx, SDIO_FLAG_CMDSENT));
  49              		.loc 1 1162 0
  50 0018 416B     		ldr	r1, [r0, #52]
1157:Drivers/STM32F4xx_HAL_Driver/Src/stm32f4xx_ll_sdmmc.c ****     {
  51              		.loc 1 1157 0
  52 001a 1346     		mov	r3, r2
  53              		.loc 1 1162 0
  54 001c 11F0800F 		tst	r1, #128
  55 0020 F8D0     		beq	.L3
1163:Drivers/STM32F4xx_HAL_Driver/Src/stm32f4xx_ll_sdmmc.c ****   
1164:Drivers/STM32F4xx_HAL_Driver/Src/stm32f4xx_ll_sdmmc.c ****   /* Clear all the static flags */
1165:Drivers/STM32F4xx_HAL_Driver/Src/stm32f4xx_ll_sdmmc.c ****   __SDIO_CLEAR_FLAG(SDIOx, SDIO_STATIC_FLAGS);
  56              		.loc 1 1165 0
  57 0022 40F2FF53 		movw	r3, #1535
  58 0026 8363     		str	r3, [r0, #56]
1166:Drivers/STM32F4xx_HAL_Driver/Src/stm32f4xx_ll_sdmmc.c ****   
1167:Drivers/STM32F4xx_HAL_Driver/Src/stm32f4xx_ll_sdmmc.c ****   return SDMMC_ERROR_NONE;
  59              		.loc 1 1167 0
  60 0028 0020     		movs	r0, #0
  61              	.LVL3:
  62 002a 7047     		bx	lr
  63              	.LVL4:
  64              	.L4:
1159:Drivers/STM32F4xx_HAL_Driver/Src/stm32f4xx_ll_sdmmc.c ****     }
  65              		.loc 1 1159 0
  66 002c 4FF00040 		mov	r0, #-2147483648
  67              	.LVL5:
1168:Drivers/STM32F4xx_HAL_Driver/Src/stm32f4xx_ll_sdmmc.c **** }
  68              		.loc 1 1168 0
  69 0030 7047     		bx	lr
  70              	.L6:
  71 0032 00BF     		.align	2
  72              	.L5:
  73 0034 00000000 		.word	SystemCoreClock
  74 0038 D34D6210 		.word	274877907
  75              		.cfi_endproc
  76              	.LFE162:
  78              		.section	.text.SDMMC_GetCmdResp2,"ax",%progbits
  79              		.align	2
  80              		.thumb
  81              		.thumb_func
  83              	SDMMC_GetCmdResp2:
  84              	.LFB164:
1169:Drivers/STM32F4xx_HAL_Driver/Src/stm32f4xx_ll_sdmmc.c **** 
1170:Drivers/STM32F4xx_HAL_Driver/Src/stm32f4xx_ll_sdmmc.c **** /**
1171:Drivers/STM32F4xx_HAL_Driver/Src/stm32f4xx_ll_sdmmc.c ****   * @brief  Checks for error conditions for R1 response.
ARM GAS  /tmp/ccO3W952.s 			page 23


1172:Drivers/STM32F4xx_HAL_Driver/Src/stm32f4xx_ll_sdmmc.c ****   * @param  hsd SD handle
1173:Drivers/STM32F4xx_HAL_Driver/Src/stm32f4xx_ll_sdmmc.c ****   * @param  SD_CMD The sent command index  
1174:Drivers/STM32F4xx_HAL_Driver/Src/stm32f4xx_ll_sdmmc.c ****   * @retval SD Card error state
1175:Drivers/STM32F4xx_HAL_Driver/Src/stm32f4xx_ll_sdmmc.c ****   */
1176:Drivers/STM32F4xx_HAL_Driver/Src/stm32f4xx_ll_sdmmc.c **** static uint32_t SDMMC_GetCmdResp1(SDIO_TypeDef *SDIOx, uint8_t SD_CMD, uint32_t Timeout)
1177:Drivers/STM32F4xx_HAL_Driver/Src/stm32f4xx_ll_sdmmc.c **** {
1178:Drivers/STM32F4xx_HAL_Driver/Src/stm32f4xx_ll_sdmmc.c ****   uint32_t response_r1;
1179:Drivers/STM32F4xx_HAL_Driver/Src/stm32f4xx_ll_sdmmc.c ****   
1180:Drivers/STM32F4xx_HAL_Driver/Src/stm32f4xx_ll_sdmmc.c ****   /* 8 is the number of required instructions cycles for the below loop statement.
1181:Drivers/STM32F4xx_HAL_Driver/Src/stm32f4xx_ll_sdmmc.c ****   The Timeout is expressed in ms */
1182:Drivers/STM32F4xx_HAL_Driver/Src/stm32f4xx_ll_sdmmc.c ****   register uint32_t count = Timeout * (SystemCoreClock / 8U /1000U);
1183:Drivers/STM32F4xx_HAL_Driver/Src/stm32f4xx_ll_sdmmc.c ****   
1184:Drivers/STM32F4xx_HAL_Driver/Src/stm32f4xx_ll_sdmmc.c ****   do
1185:Drivers/STM32F4xx_HAL_Driver/Src/stm32f4xx_ll_sdmmc.c ****   {
1186:Drivers/STM32F4xx_HAL_Driver/Src/stm32f4xx_ll_sdmmc.c ****     if (count-- == 0U)
1187:Drivers/STM32F4xx_HAL_Driver/Src/stm32f4xx_ll_sdmmc.c ****     {
1188:Drivers/STM32F4xx_HAL_Driver/Src/stm32f4xx_ll_sdmmc.c ****       return SDMMC_ERROR_TIMEOUT;
1189:Drivers/STM32F4xx_HAL_Driver/Src/stm32f4xx_ll_sdmmc.c ****     }
1190:Drivers/STM32F4xx_HAL_Driver/Src/stm32f4xx_ll_sdmmc.c ****     
1191:Drivers/STM32F4xx_HAL_Driver/Src/stm32f4xx_ll_sdmmc.c ****   }while(!__SDIO_GET_FLAG(SDIOx, SDIO_FLAG_CCRCFAIL | SDIO_FLAG_CMDREND | SDIO_FLAG_CTIMEOUT));
1192:Drivers/STM32F4xx_HAL_Driver/Src/stm32f4xx_ll_sdmmc.c ****   
1193:Drivers/STM32F4xx_HAL_Driver/Src/stm32f4xx_ll_sdmmc.c ****   if(__SDIO_GET_FLAG(SDIOx, SDIO_FLAG_CTIMEOUT))
1194:Drivers/STM32F4xx_HAL_Driver/Src/stm32f4xx_ll_sdmmc.c ****   {
1195:Drivers/STM32F4xx_HAL_Driver/Src/stm32f4xx_ll_sdmmc.c ****     __SDIO_CLEAR_FLAG(SDIOx, SDIO_FLAG_CTIMEOUT);
1196:Drivers/STM32F4xx_HAL_Driver/Src/stm32f4xx_ll_sdmmc.c ****     
1197:Drivers/STM32F4xx_HAL_Driver/Src/stm32f4xx_ll_sdmmc.c ****     return SDMMC_ERROR_CMD_RSP_TIMEOUT;
1198:Drivers/STM32F4xx_HAL_Driver/Src/stm32f4xx_ll_sdmmc.c ****   }
1199:Drivers/STM32F4xx_HAL_Driver/Src/stm32f4xx_ll_sdmmc.c ****   else if(__SDIO_GET_FLAG(SDIOx, SDIO_FLAG_CCRCFAIL))
1200:Drivers/STM32F4xx_HAL_Driver/Src/stm32f4xx_ll_sdmmc.c ****   {
1201:Drivers/STM32F4xx_HAL_Driver/Src/stm32f4xx_ll_sdmmc.c ****     __SDIO_CLEAR_FLAG(SDIOx, SDIO_FLAG_CCRCFAIL);
1202:Drivers/STM32F4xx_HAL_Driver/Src/stm32f4xx_ll_sdmmc.c ****     
1203:Drivers/STM32F4xx_HAL_Driver/Src/stm32f4xx_ll_sdmmc.c ****     return SDMMC_ERROR_CMD_CRC_FAIL;
1204:Drivers/STM32F4xx_HAL_Driver/Src/stm32f4xx_ll_sdmmc.c ****   }
1205:Drivers/STM32F4xx_HAL_Driver/Src/stm32f4xx_ll_sdmmc.c ****   
1206:Drivers/STM32F4xx_HAL_Driver/Src/stm32f4xx_ll_sdmmc.c ****   /* Check response received is of desired command */
1207:Drivers/STM32F4xx_HAL_Driver/Src/stm32f4xx_ll_sdmmc.c ****   if(SDIO_GetCommandResponse(SDIOx) != SD_CMD)
1208:Drivers/STM32F4xx_HAL_Driver/Src/stm32f4xx_ll_sdmmc.c ****   {
1209:Drivers/STM32F4xx_HAL_Driver/Src/stm32f4xx_ll_sdmmc.c ****     return SDMMC_ERROR_CMD_CRC_FAIL;
1210:Drivers/STM32F4xx_HAL_Driver/Src/stm32f4xx_ll_sdmmc.c ****   }
1211:Drivers/STM32F4xx_HAL_Driver/Src/stm32f4xx_ll_sdmmc.c ****   
1212:Drivers/STM32F4xx_HAL_Driver/Src/stm32f4xx_ll_sdmmc.c ****   /* Clear all the static flags */
1213:Drivers/STM32F4xx_HAL_Driver/Src/stm32f4xx_ll_sdmmc.c ****   __SDIO_CLEAR_FLAG(SDIOx, SDIO_STATIC_FLAGS);
1214:Drivers/STM32F4xx_HAL_Driver/Src/stm32f4xx_ll_sdmmc.c ****   
1215:Drivers/STM32F4xx_HAL_Driver/Src/stm32f4xx_ll_sdmmc.c ****   /* We have received response, retrieve it for analysis  */
1216:Drivers/STM32F4xx_HAL_Driver/Src/stm32f4xx_ll_sdmmc.c ****   response_r1 = SDIO_GetResponse(SDIOx, SDIO_RESP1);
1217:Drivers/STM32F4xx_HAL_Driver/Src/stm32f4xx_ll_sdmmc.c ****   
1218:Drivers/STM32F4xx_HAL_Driver/Src/stm32f4xx_ll_sdmmc.c ****   if((response_r1 & SDMMC_OCR_ERRORBITS) == SDMMC_ALLZERO)
1219:Drivers/STM32F4xx_HAL_Driver/Src/stm32f4xx_ll_sdmmc.c ****   {
1220:Drivers/STM32F4xx_HAL_Driver/Src/stm32f4xx_ll_sdmmc.c ****     return SDMMC_ERROR_NONE;
1221:Drivers/STM32F4xx_HAL_Driver/Src/stm32f4xx_ll_sdmmc.c ****   }
1222:Drivers/STM32F4xx_HAL_Driver/Src/stm32f4xx_ll_sdmmc.c ****   else if((response_r1 & SDMMC_OCR_ADDR_OUT_OF_RANGE) == SDMMC_OCR_ADDR_OUT_OF_RANGE)
1223:Drivers/STM32F4xx_HAL_Driver/Src/stm32f4xx_ll_sdmmc.c ****   {
1224:Drivers/STM32F4xx_HAL_Driver/Src/stm32f4xx_ll_sdmmc.c ****     return SDMMC_ERROR_ADDR_OUT_OF_RANGE;
1225:Drivers/STM32F4xx_HAL_Driver/Src/stm32f4xx_ll_sdmmc.c ****   }
1226:Drivers/STM32F4xx_HAL_Driver/Src/stm32f4xx_ll_sdmmc.c ****   else if((response_r1 & SDMMC_OCR_ADDR_MISALIGNED) == SDMMC_OCR_ADDR_MISALIGNED)
1227:Drivers/STM32F4xx_HAL_Driver/Src/stm32f4xx_ll_sdmmc.c ****   {
1228:Drivers/STM32F4xx_HAL_Driver/Src/stm32f4xx_ll_sdmmc.c ****     return SDMMC_ERROR_ADDR_MISALIGNED;
ARM GAS  /tmp/ccO3W952.s 			page 24


1229:Drivers/STM32F4xx_HAL_Driver/Src/stm32f4xx_ll_sdmmc.c ****   }
1230:Drivers/STM32F4xx_HAL_Driver/Src/stm32f4xx_ll_sdmmc.c ****   else if((response_r1 & SDMMC_OCR_BLOCK_LEN_ERR) == SDMMC_OCR_BLOCK_LEN_ERR)
1231:Drivers/STM32F4xx_HAL_Driver/Src/stm32f4xx_ll_sdmmc.c ****   {
1232:Drivers/STM32F4xx_HAL_Driver/Src/stm32f4xx_ll_sdmmc.c ****     return SDMMC_ERROR_BLOCK_LEN_ERR;
1233:Drivers/STM32F4xx_HAL_Driver/Src/stm32f4xx_ll_sdmmc.c ****   }
1234:Drivers/STM32F4xx_HAL_Driver/Src/stm32f4xx_ll_sdmmc.c ****   else if((response_r1 & SDMMC_OCR_ERASE_SEQ_ERR) == SDMMC_OCR_ERASE_SEQ_ERR)
1235:Drivers/STM32F4xx_HAL_Driver/Src/stm32f4xx_ll_sdmmc.c ****   {
1236:Drivers/STM32F4xx_HAL_Driver/Src/stm32f4xx_ll_sdmmc.c ****     return SDMMC_ERROR_ERASE_SEQ_ERR;
1237:Drivers/STM32F4xx_HAL_Driver/Src/stm32f4xx_ll_sdmmc.c ****   }
1238:Drivers/STM32F4xx_HAL_Driver/Src/stm32f4xx_ll_sdmmc.c ****   else if((response_r1 & SDMMC_OCR_BAD_ERASE_PARAM) == SDMMC_OCR_BAD_ERASE_PARAM)
1239:Drivers/STM32F4xx_HAL_Driver/Src/stm32f4xx_ll_sdmmc.c ****   {
1240:Drivers/STM32F4xx_HAL_Driver/Src/stm32f4xx_ll_sdmmc.c ****     return SDMMC_ERROR_BAD_ERASE_PARAM;
1241:Drivers/STM32F4xx_HAL_Driver/Src/stm32f4xx_ll_sdmmc.c ****   }
1242:Drivers/STM32F4xx_HAL_Driver/Src/stm32f4xx_ll_sdmmc.c ****   else if((response_r1 & SDMMC_OCR_WRITE_PROT_VIOLATION) == SDMMC_OCR_WRITE_PROT_VIOLATION)
1243:Drivers/STM32F4xx_HAL_Driver/Src/stm32f4xx_ll_sdmmc.c ****   {
1244:Drivers/STM32F4xx_HAL_Driver/Src/stm32f4xx_ll_sdmmc.c ****     return SDMMC_ERROR_WRITE_PROT_VIOLATION;
1245:Drivers/STM32F4xx_HAL_Driver/Src/stm32f4xx_ll_sdmmc.c ****   }
1246:Drivers/STM32F4xx_HAL_Driver/Src/stm32f4xx_ll_sdmmc.c ****   else if((response_r1 & SDMMC_OCR_LOCK_UNLOCK_FAILED) == SDMMC_OCR_LOCK_UNLOCK_FAILED)
1247:Drivers/STM32F4xx_HAL_Driver/Src/stm32f4xx_ll_sdmmc.c ****   {
1248:Drivers/STM32F4xx_HAL_Driver/Src/stm32f4xx_ll_sdmmc.c ****     return SDMMC_ERROR_LOCK_UNLOCK_FAILED;
1249:Drivers/STM32F4xx_HAL_Driver/Src/stm32f4xx_ll_sdmmc.c ****   }
1250:Drivers/STM32F4xx_HAL_Driver/Src/stm32f4xx_ll_sdmmc.c ****   else if((response_r1 & SDMMC_OCR_COM_CRC_FAILED) == SDMMC_OCR_COM_CRC_FAILED)
1251:Drivers/STM32F4xx_HAL_Driver/Src/stm32f4xx_ll_sdmmc.c ****   {
1252:Drivers/STM32F4xx_HAL_Driver/Src/stm32f4xx_ll_sdmmc.c ****     return SDMMC_ERROR_COM_CRC_FAILED;
1253:Drivers/STM32F4xx_HAL_Driver/Src/stm32f4xx_ll_sdmmc.c ****   }
1254:Drivers/STM32F4xx_HAL_Driver/Src/stm32f4xx_ll_sdmmc.c ****   else if((response_r1 & SDMMC_OCR_ILLEGAL_CMD) == SDMMC_OCR_ILLEGAL_CMD)
1255:Drivers/STM32F4xx_HAL_Driver/Src/stm32f4xx_ll_sdmmc.c ****   {
1256:Drivers/STM32F4xx_HAL_Driver/Src/stm32f4xx_ll_sdmmc.c ****     return SDMMC_ERROR_ILLEGAL_CMD;
1257:Drivers/STM32F4xx_HAL_Driver/Src/stm32f4xx_ll_sdmmc.c ****   }
1258:Drivers/STM32F4xx_HAL_Driver/Src/stm32f4xx_ll_sdmmc.c ****   else if((response_r1 & SDMMC_OCR_CARD_ECC_FAILED) == SDMMC_OCR_CARD_ECC_FAILED)
1259:Drivers/STM32F4xx_HAL_Driver/Src/stm32f4xx_ll_sdmmc.c ****   {
1260:Drivers/STM32F4xx_HAL_Driver/Src/stm32f4xx_ll_sdmmc.c ****     return SDMMC_ERROR_CARD_ECC_FAILED;
1261:Drivers/STM32F4xx_HAL_Driver/Src/stm32f4xx_ll_sdmmc.c ****   }
1262:Drivers/STM32F4xx_HAL_Driver/Src/stm32f4xx_ll_sdmmc.c ****   else if((response_r1 & SDMMC_OCR_CC_ERROR) == SDMMC_OCR_CC_ERROR)
1263:Drivers/STM32F4xx_HAL_Driver/Src/stm32f4xx_ll_sdmmc.c ****   {
1264:Drivers/STM32F4xx_HAL_Driver/Src/stm32f4xx_ll_sdmmc.c ****     return SDMMC_ERROR_CC_ERR;
1265:Drivers/STM32F4xx_HAL_Driver/Src/stm32f4xx_ll_sdmmc.c ****   }
1266:Drivers/STM32F4xx_HAL_Driver/Src/stm32f4xx_ll_sdmmc.c ****   else if((response_r1 & SDMMC_OCR_STREAM_READ_UNDERRUN) == SDMMC_OCR_STREAM_READ_UNDERRUN)
1267:Drivers/STM32F4xx_HAL_Driver/Src/stm32f4xx_ll_sdmmc.c ****   {
1268:Drivers/STM32F4xx_HAL_Driver/Src/stm32f4xx_ll_sdmmc.c ****     return SDMMC_ERROR_STREAM_READ_UNDERRUN;
1269:Drivers/STM32F4xx_HAL_Driver/Src/stm32f4xx_ll_sdmmc.c ****   }
1270:Drivers/STM32F4xx_HAL_Driver/Src/stm32f4xx_ll_sdmmc.c ****   else if((response_r1 & SDMMC_OCR_STREAM_WRITE_OVERRUN) == SDMMC_OCR_STREAM_WRITE_OVERRUN)
1271:Drivers/STM32F4xx_HAL_Driver/Src/stm32f4xx_ll_sdmmc.c ****   {
1272:Drivers/STM32F4xx_HAL_Driver/Src/stm32f4xx_ll_sdmmc.c ****     return SDMMC_ERROR_STREAM_WRITE_OVERRUN;
1273:Drivers/STM32F4xx_HAL_Driver/Src/stm32f4xx_ll_sdmmc.c ****   }
1274:Drivers/STM32F4xx_HAL_Driver/Src/stm32f4xx_ll_sdmmc.c ****   else if((response_r1 & SDMMC_OCR_CID_CSD_OVERWRITE) == SDMMC_OCR_CID_CSD_OVERWRITE)
1275:Drivers/STM32F4xx_HAL_Driver/Src/stm32f4xx_ll_sdmmc.c ****   {
1276:Drivers/STM32F4xx_HAL_Driver/Src/stm32f4xx_ll_sdmmc.c ****     return SDMMC_ERROR_CID_CSD_OVERWRITE;
1277:Drivers/STM32F4xx_HAL_Driver/Src/stm32f4xx_ll_sdmmc.c ****   }
1278:Drivers/STM32F4xx_HAL_Driver/Src/stm32f4xx_ll_sdmmc.c ****   else if((response_r1 & SDMMC_OCR_WP_ERASE_SKIP) == SDMMC_OCR_WP_ERASE_SKIP)
1279:Drivers/STM32F4xx_HAL_Driver/Src/stm32f4xx_ll_sdmmc.c ****   {
1280:Drivers/STM32F4xx_HAL_Driver/Src/stm32f4xx_ll_sdmmc.c ****     return SDMMC_ERROR_WP_ERASE_SKIP;
1281:Drivers/STM32F4xx_HAL_Driver/Src/stm32f4xx_ll_sdmmc.c ****   }
1282:Drivers/STM32F4xx_HAL_Driver/Src/stm32f4xx_ll_sdmmc.c ****   else if((response_r1 & SDMMC_OCR_CARD_ECC_DISABLED) == SDMMC_OCR_CARD_ECC_DISABLED)
1283:Drivers/STM32F4xx_HAL_Driver/Src/stm32f4xx_ll_sdmmc.c ****   {
1284:Drivers/STM32F4xx_HAL_Driver/Src/stm32f4xx_ll_sdmmc.c ****     return SDMMC_ERROR_CARD_ECC_DISABLED;
1285:Drivers/STM32F4xx_HAL_Driver/Src/stm32f4xx_ll_sdmmc.c ****   }
ARM GAS  /tmp/ccO3W952.s 			page 25


1286:Drivers/STM32F4xx_HAL_Driver/Src/stm32f4xx_ll_sdmmc.c ****   else if((response_r1 & SDMMC_OCR_ERASE_RESET) == SDMMC_OCR_ERASE_RESET)
1287:Drivers/STM32F4xx_HAL_Driver/Src/stm32f4xx_ll_sdmmc.c ****   {
1288:Drivers/STM32F4xx_HAL_Driver/Src/stm32f4xx_ll_sdmmc.c ****     return SDMMC_ERROR_ERASE_RESET;
1289:Drivers/STM32F4xx_HAL_Driver/Src/stm32f4xx_ll_sdmmc.c ****   }
1290:Drivers/STM32F4xx_HAL_Driver/Src/stm32f4xx_ll_sdmmc.c ****   else if((response_r1 & SDMMC_OCR_AKE_SEQ_ERROR) == SDMMC_OCR_AKE_SEQ_ERROR)
1291:Drivers/STM32F4xx_HAL_Driver/Src/stm32f4xx_ll_sdmmc.c ****   {
1292:Drivers/STM32F4xx_HAL_Driver/Src/stm32f4xx_ll_sdmmc.c ****     return SDMMC_ERROR_AKE_SEQ_ERR;
1293:Drivers/STM32F4xx_HAL_Driver/Src/stm32f4xx_ll_sdmmc.c ****   }
1294:Drivers/STM32F4xx_HAL_Driver/Src/stm32f4xx_ll_sdmmc.c ****   else
1295:Drivers/STM32F4xx_HAL_Driver/Src/stm32f4xx_ll_sdmmc.c ****   {
1296:Drivers/STM32F4xx_HAL_Driver/Src/stm32f4xx_ll_sdmmc.c ****     return SDMMC_ERROR_GENERAL_UNKNOWN_ERR;
1297:Drivers/STM32F4xx_HAL_Driver/Src/stm32f4xx_ll_sdmmc.c ****   }
1298:Drivers/STM32F4xx_HAL_Driver/Src/stm32f4xx_ll_sdmmc.c **** }
1299:Drivers/STM32F4xx_HAL_Driver/Src/stm32f4xx_ll_sdmmc.c **** 
1300:Drivers/STM32F4xx_HAL_Driver/Src/stm32f4xx_ll_sdmmc.c **** /**
1301:Drivers/STM32F4xx_HAL_Driver/Src/stm32f4xx_ll_sdmmc.c ****   * @brief  Checks for error conditions for R2 (CID or CSD) response.
1302:Drivers/STM32F4xx_HAL_Driver/Src/stm32f4xx_ll_sdmmc.c ****   * @param  hsd SD handle
1303:Drivers/STM32F4xx_HAL_Driver/Src/stm32f4xx_ll_sdmmc.c ****   * @retval SD Card error state
1304:Drivers/STM32F4xx_HAL_Driver/Src/stm32f4xx_ll_sdmmc.c ****   */
1305:Drivers/STM32F4xx_HAL_Driver/Src/stm32f4xx_ll_sdmmc.c **** static uint32_t SDMMC_GetCmdResp2(SDIO_TypeDef *SDIOx)
1306:Drivers/STM32F4xx_HAL_Driver/Src/stm32f4xx_ll_sdmmc.c **** {
  85              		.loc 1 1306 0
  86              		.cfi_startproc
  87              		@ args = 0, pretend = 0, frame = 0
  88              		@ frame_needed = 0, uses_anonymous_args = 0
  89              		@ link register save eliminated.
  90              	.LVL6:
  91 0000 10B4     		push	{r4}
  92              	.LCFI0:
  93              		.cfi_def_cfa_offset 4
  94              		.cfi_offset 4, -4
  95 0002 0446     		mov	r4, r0
1307:Drivers/STM32F4xx_HAL_Driver/Src/stm32f4xx_ll_sdmmc.c ****   /* 8 is the number of required instructions cycles for the below loop statement.
1308:Drivers/STM32F4xx_HAL_Driver/Src/stm32f4xx_ll_sdmmc.c ****   The SDMMC_CMDTIMEOUT is expressed in ms */
1309:Drivers/STM32F4xx_HAL_Driver/Src/stm32f4xx_ll_sdmmc.c ****   register uint32_t count = SDIO_CMDTIMEOUT * (SystemCoreClock / 8U /1000U);
  96              		.loc 1 1309 0
  97 0004 134B     		ldr	r3, .L14
  98 0006 1B68     		ldr	r3, [r3]
  99 0008 134A     		ldr	r2, .L14+4
 100 000a A2FB0323 		umull	r2, r3, r2, r3
 101 000e 5A0A     		lsrs	r2, r3, #9
 102 0010 41F28833 		movw	r3, #5000
 103 0014 03FB02F3 		mul	r3, r3, r2
 104              	.LVL7:
 105              	.L9:
1310:Drivers/STM32F4xx_HAL_Driver/Src/stm32f4xx_ll_sdmmc.c ****   
1311:Drivers/STM32F4xx_HAL_Driver/Src/stm32f4xx_ll_sdmmc.c ****   do
1312:Drivers/STM32F4xx_HAL_Driver/Src/stm32f4xx_ll_sdmmc.c ****   {
1313:Drivers/STM32F4xx_HAL_Driver/Src/stm32f4xx_ll_sdmmc.c ****     if (count-- == 0U)
 106              		.loc 1 1313 0
 107 0018 5A1E     		subs	r2, r3, #1
 108              	.LVL8:
 109 001a B3B1     		cbz	r3, .L12
1314:Drivers/STM32F4xx_HAL_Driver/Src/stm32f4xx_ll_sdmmc.c ****     {
1315:Drivers/STM32F4xx_HAL_Driver/Src/stm32f4xx_ll_sdmmc.c ****       return SDMMC_ERROR_TIMEOUT;
1316:Drivers/STM32F4xx_HAL_Driver/Src/stm32f4xx_ll_sdmmc.c ****     }
1317:Drivers/STM32F4xx_HAL_Driver/Src/stm32f4xx_ll_sdmmc.c ****     
ARM GAS  /tmp/ccO3W952.s 			page 26


1318:Drivers/STM32F4xx_HAL_Driver/Src/stm32f4xx_ll_sdmmc.c ****   }while(!__SDIO_GET_FLAG(SDIOx, SDIO_FLAG_CCRCFAIL | SDIO_FLAG_CMDREND | SDIO_FLAG_CTIMEOUT));
 110              		.loc 1 1318 0
 111 001c 616B     		ldr	r1, [r4, #52]
1313:Drivers/STM32F4xx_HAL_Driver/Src/stm32f4xx_ll_sdmmc.c ****     {
 112              		.loc 1 1313 0
 113 001e 1346     		mov	r3, r2
 114              		.loc 1 1318 0
 115 0020 11F0450F 		tst	r1, #69
 116 0024 F8D0     		beq	.L9
1319:Drivers/STM32F4xx_HAL_Driver/Src/stm32f4xx_ll_sdmmc.c ****     
1320:Drivers/STM32F4xx_HAL_Driver/Src/stm32f4xx_ll_sdmmc.c ****   if (__SDIO_GET_FLAG(SDIOx, SDIO_FLAG_CTIMEOUT))
 117              		.loc 1 1320 0
 118 0026 636B     		ldr	r3, [r4, #52]
 119 0028 13F0040F 		tst	r3, #4
 120 002c 02D0     		beq	.L10
1321:Drivers/STM32F4xx_HAL_Driver/Src/stm32f4xx_ll_sdmmc.c ****   {
1322:Drivers/STM32F4xx_HAL_Driver/Src/stm32f4xx_ll_sdmmc.c ****     __SDIO_CLEAR_FLAG(SDIOx, SDIO_FLAG_CTIMEOUT);
 121              		.loc 1 1322 0
 122 002e 0420     		movs	r0, #4
 123              	.LVL9:
 124 0030 A063     		str	r0, [r4, #56]
1323:Drivers/STM32F4xx_HAL_Driver/Src/stm32f4xx_ll_sdmmc.c ****     
1324:Drivers/STM32F4xx_HAL_Driver/Src/stm32f4xx_ll_sdmmc.c ****     return SDMMC_ERROR_CMD_RSP_TIMEOUT;
 125              		.loc 1 1324 0
 126 0032 0CE0     		b	.L8
 127              	.LVL10:
 128              	.L10:
1325:Drivers/STM32F4xx_HAL_Driver/Src/stm32f4xx_ll_sdmmc.c ****   }
1326:Drivers/STM32F4xx_HAL_Driver/Src/stm32f4xx_ll_sdmmc.c ****   else if (__SDIO_GET_FLAG(SDIOx, SDIO_FLAG_CCRCFAIL))
 129              		.loc 1 1326 0
 130 0034 606B     		ldr	r0, [r4, #52]
 131              	.LVL11:
 132 0036 10F00100 		ands	r0, r0, #1
 133 003a 02D0     		beq	.L11
1327:Drivers/STM32F4xx_HAL_Driver/Src/stm32f4xx_ll_sdmmc.c ****   {
1328:Drivers/STM32F4xx_HAL_Driver/Src/stm32f4xx_ll_sdmmc.c ****     __SDIO_CLEAR_FLAG(SDIOx, SDIO_FLAG_CCRCFAIL);
 134              		.loc 1 1328 0
 135 003c 0120     		movs	r0, #1
 136 003e A063     		str	r0, [r4, #56]
1329:Drivers/STM32F4xx_HAL_Driver/Src/stm32f4xx_ll_sdmmc.c ****     
1330:Drivers/STM32F4xx_HAL_Driver/Src/stm32f4xx_ll_sdmmc.c ****     return SDMMC_ERROR_CMD_CRC_FAIL;
 137              		.loc 1 1330 0
 138 0040 05E0     		b	.L8
 139              	.L11:
1331:Drivers/STM32F4xx_HAL_Driver/Src/stm32f4xx_ll_sdmmc.c ****   }
1332:Drivers/STM32F4xx_HAL_Driver/Src/stm32f4xx_ll_sdmmc.c ****   else
1333:Drivers/STM32F4xx_HAL_Driver/Src/stm32f4xx_ll_sdmmc.c ****   {
1334:Drivers/STM32F4xx_HAL_Driver/Src/stm32f4xx_ll_sdmmc.c ****     /* No error flag set */
1335:Drivers/STM32F4xx_HAL_Driver/Src/stm32f4xx_ll_sdmmc.c ****     /* Clear all the static flags */
1336:Drivers/STM32F4xx_HAL_Driver/Src/stm32f4xx_ll_sdmmc.c ****     __SDIO_CLEAR_FLAG(SDIOx, SDIO_STATIC_FLAGS);
 140              		.loc 1 1336 0
 141 0042 40F2FF53 		movw	r3, #1535
 142 0046 A363     		str	r3, [r4, #56]
1337:Drivers/STM32F4xx_HAL_Driver/Src/stm32f4xx_ll_sdmmc.c ****   }
1338:Drivers/STM32F4xx_HAL_Driver/Src/stm32f4xx_ll_sdmmc.c **** 
1339:Drivers/STM32F4xx_HAL_Driver/Src/stm32f4xx_ll_sdmmc.c ****   return SDMMC_ERROR_NONE;
 143              		.loc 1 1339 0
ARM GAS  /tmp/ccO3W952.s 			page 27


 144 0048 01E0     		b	.L8
 145              	.LVL12:
 146              	.L12:
1315:Drivers/STM32F4xx_HAL_Driver/Src/stm32f4xx_ll_sdmmc.c ****     }
 147              		.loc 1 1315 0
 148 004a 4FF00040 		mov	r0, #-2147483648
 149              	.LVL13:
 150              	.L8:
1340:Drivers/STM32F4xx_HAL_Driver/Src/stm32f4xx_ll_sdmmc.c **** }
 151              		.loc 1 1340 0
 152 004e 5DF8044B 		ldr	r4, [sp], #4
 153              	.LCFI1:
 154              		.cfi_restore 4
 155              		.cfi_def_cfa_offset 0
 156              	.LVL14:
 157 0052 7047     		bx	lr
 158              	.L15:
 159              		.align	2
 160              	.L14:
 161 0054 00000000 		.word	SystemCoreClock
 162 0058 D34D6210 		.word	274877907
 163              		.cfi_endproc
 164              	.LFE164:
 166              		.section	.text.SDMMC_GetCmdResp3,"ax",%progbits
 167              		.align	2
 168              		.thumb
 169              		.thumb_func
 171              	SDMMC_GetCmdResp3:
 172              	.LFB165:
1341:Drivers/STM32F4xx_HAL_Driver/Src/stm32f4xx_ll_sdmmc.c **** 
1342:Drivers/STM32F4xx_HAL_Driver/Src/stm32f4xx_ll_sdmmc.c **** /**
1343:Drivers/STM32F4xx_HAL_Driver/Src/stm32f4xx_ll_sdmmc.c ****   * @brief  Checks for error conditions for R3 (OCR) response.
1344:Drivers/STM32F4xx_HAL_Driver/Src/stm32f4xx_ll_sdmmc.c ****   * @param  hsd SD handle
1345:Drivers/STM32F4xx_HAL_Driver/Src/stm32f4xx_ll_sdmmc.c ****   * @retval SD Card error state
1346:Drivers/STM32F4xx_HAL_Driver/Src/stm32f4xx_ll_sdmmc.c ****   */
1347:Drivers/STM32F4xx_HAL_Driver/Src/stm32f4xx_ll_sdmmc.c **** static uint32_t SDMMC_GetCmdResp3(SDIO_TypeDef *SDIOx)
1348:Drivers/STM32F4xx_HAL_Driver/Src/stm32f4xx_ll_sdmmc.c **** {
 173              		.loc 1 1348 0
 174              		.cfi_startproc
 175              		@ args = 0, pretend = 0, frame = 0
 176              		@ frame_needed = 0, uses_anonymous_args = 0
 177              		@ link register save eliminated.
 178              	.LVL15:
 179 0000 10B4     		push	{r4}
 180              	.LCFI2:
 181              		.cfi_def_cfa_offset 4
 182              		.cfi_offset 4, -4
 183 0002 0446     		mov	r4, r0
1349:Drivers/STM32F4xx_HAL_Driver/Src/stm32f4xx_ll_sdmmc.c ****   /* 8 is the number of required instructions cycles for the below loop statement.
1350:Drivers/STM32F4xx_HAL_Driver/Src/stm32f4xx_ll_sdmmc.c ****   The SDMMC_CMDTIMEOUT is expressed in ms */
1351:Drivers/STM32F4xx_HAL_Driver/Src/stm32f4xx_ll_sdmmc.c ****   register uint32_t count = SDIO_CMDTIMEOUT * (SystemCoreClock / 8U /1000U);
 184              		.loc 1 1351 0
 185 0004 104B     		ldr	r3, .L22
 186 0006 1B68     		ldr	r3, [r3]
 187 0008 104A     		ldr	r2, .L22+4
 188 000a A2FB0323 		umull	r2, r3, r2, r3
 189 000e 5A0A     		lsrs	r2, r3, #9
ARM GAS  /tmp/ccO3W952.s 			page 28


 190 0010 41F28833 		movw	r3, #5000
 191 0014 03FB02F3 		mul	r3, r3, r2
 192              	.LVL16:
 193              	.L18:
1352:Drivers/STM32F4xx_HAL_Driver/Src/stm32f4xx_ll_sdmmc.c ****   
1353:Drivers/STM32F4xx_HAL_Driver/Src/stm32f4xx_ll_sdmmc.c ****   do
1354:Drivers/STM32F4xx_HAL_Driver/Src/stm32f4xx_ll_sdmmc.c ****   {
1355:Drivers/STM32F4xx_HAL_Driver/Src/stm32f4xx_ll_sdmmc.c ****     if (count-- == 0U)
 194              		.loc 1 1355 0
 195 0018 5A1E     		subs	r2, r3, #1
 196              	.LVL17:
 197 001a 7BB1     		cbz	r3, .L20
1356:Drivers/STM32F4xx_HAL_Driver/Src/stm32f4xx_ll_sdmmc.c ****     {
1357:Drivers/STM32F4xx_HAL_Driver/Src/stm32f4xx_ll_sdmmc.c ****       return SDMMC_ERROR_TIMEOUT;
1358:Drivers/STM32F4xx_HAL_Driver/Src/stm32f4xx_ll_sdmmc.c ****     }
1359:Drivers/STM32F4xx_HAL_Driver/Src/stm32f4xx_ll_sdmmc.c ****     
1360:Drivers/STM32F4xx_HAL_Driver/Src/stm32f4xx_ll_sdmmc.c ****   }while(!__SDIO_GET_FLAG(SDIOx, SDIO_FLAG_CCRCFAIL | SDIO_FLAG_CMDREND | SDIO_FLAG_CTIMEOUT));
 198              		.loc 1 1360 0
 199 001c 616B     		ldr	r1, [r4, #52]
1355:Drivers/STM32F4xx_HAL_Driver/Src/stm32f4xx_ll_sdmmc.c ****     {
 200              		.loc 1 1355 0
 201 001e 1346     		mov	r3, r2
 202              		.loc 1 1360 0
 203 0020 11F0450F 		tst	r1, #69
 204 0024 F8D0     		beq	.L18
1361:Drivers/STM32F4xx_HAL_Driver/Src/stm32f4xx_ll_sdmmc.c ****   
1362:Drivers/STM32F4xx_HAL_Driver/Src/stm32f4xx_ll_sdmmc.c ****   if(__SDIO_GET_FLAG(SDIOx, SDIO_FLAG_CTIMEOUT))
 205              		.loc 1 1362 0
 206 0026 606B     		ldr	r0, [r4, #52]
 207              	.LVL18:
 208 0028 10F00400 		ands	r0, r0, #4
 209 002c 02D0     		beq	.L19
1363:Drivers/STM32F4xx_HAL_Driver/Src/stm32f4xx_ll_sdmmc.c ****   {
1364:Drivers/STM32F4xx_HAL_Driver/Src/stm32f4xx_ll_sdmmc.c ****     __SDIO_CLEAR_FLAG(SDIOx, SDIO_FLAG_CTIMEOUT);
 210              		.loc 1 1364 0
 211 002e 0420     		movs	r0, #4
 212 0030 A063     		str	r0, [r4, #56]
1365:Drivers/STM32F4xx_HAL_Driver/Src/stm32f4xx_ll_sdmmc.c ****     
1366:Drivers/STM32F4xx_HAL_Driver/Src/stm32f4xx_ll_sdmmc.c ****     return SDMMC_ERROR_CMD_RSP_TIMEOUT;
 213              		.loc 1 1366 0
 214 0032 05E0     		b	.L17
 215              	.L19:
1367:Drivers/STM32F4xx_HAL_Driver/Src/stm32f4xx_ll_sdmmc.c ****   }
1368:Drivers/STM32F4xx_HAL_Driver/Src/stm32f4xx_ll_sdmmc.c ****   else
1369:Drivers/STM32F4xx_HAL_Driver/Src/stm32f4xx_ll_sdmmc.c ****  
1370:Drivers/STM32F4xx_HAL_Driver/Src/stm32f4xx_ll_sdmmc.c ****   {  
1371:Drivers/STM32F4xx_HAL_Driver/Src/stm32f4xx_ll_sdmmc.c ****     /* Clear all the static flags */
1372:Drivers/STM32F4xx_HAL_Driver/Src/stm32f4xx_ll_sdmmc.c ****     __SDIO_CLEAR_FLAG(SDIOx, SDIO_STATIC_FLAGS);
 216              		.loc 1 1372 0
 217 0034 40F2FF53 		movw	r3, #1535
 218 0038 A363     		str	r3, [r4, #56]
1373:Drivers/STM32F4xx_HAL_Driver/Src/stm32f4xx_ll_sdmmc.c ****   }
1374:Drivers/STM32F4xx_HAL_Driver/Src/stm32f4xx_ll_sdmmc.c ****   
1375:Drivers/STM32F4xx_HAL_Driver/Src/stm32f4xx_ll_sdmmc.c ****   return SDMMC_ERROR_NONE;
 219              		.loc 1 1375 0
 220 003a 01E0     		b	.L17
 221              	.LVL19:
ARM GAS  /tmp/ccO3W952.s 			page 29


 222              	.L20:
1357:Drivers/STM32F4xx_HAL_Driver/Src/stm32f4xx_ll_sdmmc.c ****     }
 223              		.loc 1 1357 0
 224 003c 4FF00040 		mov	r0, #-2147483648
 225              	.LVL20:
 226              	.L17:
1376:Drivers/STM32F4xx_HAL_Driver/Src/stm32f4xx_ll_sdmmc.c **** }
 227              		.loc 1 1376 0
 228 0040 5DF8044B 		ldr	r4, [sp], #4
 229              	.LCFI3:
 230              		.cfi_restore 4
 231              		.cfi_def_cfa_offset 0
 232              	.LVL21:
 233 0044 7047     		bx	lr
 234              	.L23:
 235 0046 00BF     		.align	2
 236              	.L22:
 237 0048 00000000 		.word	SystemCoreClock
 238 004c D34D6210 		.word	274877907
 239              		.cfi_endproc
 240              	.LFE165:
 242              		.section	.text.SDMMC_GetCmdResp7,"ax",%progbits
 243              		.align	2
 244              		.thumb
 245              		.thumb_func
 247              	SDMMC_GetCmdResp7:
 248              	.LFB167:
1377:Drivers/STM32F4xx_HAL_Driver/Src/stm32f4xx_ll_sdmmc.c **** 
1378:Drivers/STM32F4xx_HAL_Driver/Src/stm32f4xx_ll_sdmmc.c **** /**
1379:Drivers/STM32F4xx_HAL_Driver/Src/stm32f4xx_ll_sdmmc.c ****   * @brief  Checks for error conditions for R6 (RCA) response.
1380:Drivers/STM32F4xx_HAL_Driver/Src/stm32f4xx_ll_sdmmc.c ****   * @param  hsd SD handle
1381:Drivers/STM32F4xx_HAL_Driver/Src/stm32f4xx_ll_sdmmc.c ****   * @param  SD_CMD The sent command index
1382:Drivers/STM32F4xx_HAL_Driver/Src/stm32f4xx_ll_sdmmc.c ****   * @param  pRCA Pointer to the variable that will contain the SD card relative 
1383:Drivers/STM32F4xx_HAL_Driver/Src/stm32f4xx_ll_sdmmc.c ****   *         address RCA   
1384:Drivers/STM32F4xx_HAL_Driver/Src/stm32f4xx_ll_sdmmc.c ****   * @retval SD Card error state
1385:Drivers/STM32F4xx_HAL_Driver/Src/stm32f4xx_ll_sdmmc.c ****   */
1386:Drivers/STM32F4xx_HAL_Driver/Src/stm32f4xx_ll_sdmmc.c **** static uint32_t SDMMC_GetCmdResp6(SDIO_TypeDef *SDIOx, uint8_t SD_CMD, uint16_t *pRCA)
1387:Drivers/STM32F4xx_HAL_Driver/Src/stm32f4xx_ll_sdmmc.c **** {
1388:Drivers/STM32F4xx_HAL_Driver/Src/stm32f4xx_ll_sdmmc.c ****   uint32_t response_r1;
1389:Drivers/STM32F4xx_HAL_Driver/Src/stm32f4xx_ll_sdmmc.c **** 
1390:Drivers/STM32F4xx_HAL_Driver/Src/stm32f4xx_ll_sdmmc.c ****   /* 8 is the number of required instructions cycles for the below loop statement.
1391:Drivers/STM32F4xx_HAL_Driver/Src/stm32f4xx_ll_sdmmc.c ****   The SDMMC_CMDTIMEOUT is expressed in ms */
1392:Drivers/STM32F4xx_HAL_Driver/Src/stm32f4xx_ll_sdmmc.c ****   register uint32_t count = SDIO_CMDTIMEOUT * (SystemCoreClock / 8U /1000U);
1393:Drivers/STM32F4xx_HAL_Driver/Src/stm32f4xx_ll_sdmmc.c ****   
1394:Drivers/STM32F4xx_HAL_Driver/Src/stm32f4xx_ll_sdmmc.c ****   do
1395:Drivers/STM32F4xx_HAL_Driver/Src/stm32f4xx_ll_sdmmc.c ****   {
1396:Drivers/STM32F4xx_HAL_Driver/Src/stm32f4xx_ll_sdmmc.c ****     if (count-- == 0U)
1397:Drivers/STM32F4xx_HAL_Driver/Src/stm32f4xx_ll_sdmmc.c ****     {
1398:Drivers/STM32F4xx_HAL_Driver/Src/stm32f4xx_ll_sdmmc.c ****       return SDMMC_ERROR_TIMEOUT;
1399:Drivers/STM32F4xx_HAL_Driver/Src/stm32f4xx_ll_sdmmc.c ****     }
1400:Drivers/STM32F4xx_HAL_Driver/Src/stm32f4xx_ll_sdmmc.c ****     
1401:Drivers/STM32F4xx_HAL_Driver/Src/stm32f4xx_ll_sdmmc.c ****   }while(!__SDIO_GET_FLAG(SDIOx, SDIO_FLAG_CCRCFAIL | SDIO_FLAG_CMDREND | SDIO_FLAG_CTIMEOUT));
1402:Drivers/STM32F4xx_HAL_Driver/Src/stm32f4xx_ll_sdmmc.c ****   
1403:Drivers/STM32F4xx_HAL_Driver/Src/stm32f4xx_ll_sdmmc.c ****   if(__SDIO_GET_FLAG(SDIOx, SDIO_FLAG_CTIMEOUT))
1404:Drivers/STM32F4xx_HAL_Driver/Src/stm32f4xx_ll_sdmmc.c ****   {
1405:Drivers/STM32F4xx_HAL_Driver/Src/stm32f4xx_ll_sdmmc.c ****     __SDIO_CLEAR_FLAG(SDIOx, SDIO_FLAG_CTIMEOUT);
1406:Drivers/STM32F4xx_HAL_Driver/Src/stm32f4xx_ll_sdmmc.c ****     
ARM GAS  /tmp/ccO3W952.s 			page 30


1407:Drivers/STM32F4xx_HAL_Driver/Src/stm32f4xx_ll_sdmmc.c ****     return SDMMC_ERROR_CMD_RSP_TIMEOUT;
1408:Drivers/STM32F4xx_HAL_Driver/Src/stm32f4xx_ll_sdmmc.c ****   }
1409:Drivers/STM32F4xx_HAL_Driver/Src/stm32f4xx_ll_sdmmc.c ****   else if(__SDIO_GET_FLAG(SDIOx, SDIO_FLAG_CCRCFAIL))
1410:Drivers/STM32F4xx_HAL_Driver/Src/stm32f4xx_ll_sdmmc.c ****   {
1411:Drivers/STM32F4xx_HAL_Driver/Src/stm32f4xx_ll_sdmmc.c ****     __SDIO_CLEAR_FLAG(SDIOx, SDIO_FLAG_CCRCFAIL);
1412:Drivers/STM32F4xx_HAL_Driver/Src/stm32f4xx_ll_sdmmc.c ****     
1413:Drivers/STM32F4xx_HAL_Driver/Src/stm32f4xx_ll_sdmmc.c ****     return SDMMC_ERROR_CMD_CRC_FAIL;
1414:Drivers/STM32F4xx_HAL_Driver/Src/stm32f4xx_ll_sdmmc.c ****   }
1415:Drivers/STM32F4xx_HAL_Driver/Src/stm32f4xx_ll_sdmmc.c ****   
1416:Drivers/STM32F4xx_HAL_Driver/Src/stm32f4xx_ll_sdmmc.c ****   /* Check response received is of desired command */
1417:Drivers/STM32F4xx_HAL_Driver/Src/stm32f4xx_ll_sdmmc.c ****   if(SDIO_GetCommandResponse(SDIOx) != SD_CMD)
1418:Drivers/STM32F4xx_HAL_Driver/Src/stm32f4xx_ll_sdmmc.c ****   {
1419:Drivers/STM32F4xx_HAL_Driver/Src/stm32f4xx_ll_sdmmc.c ****     return SDMMC_ERROR_CMD_CRC_FAIL;
1420:Drivers/STM32F4xx_HAL_Driver/Src/stm32f4xx_ll_sdmmc.c ****   }
1421:Drivers/STM32F4xx_HAL_Driver/Src/stm32f4xx_ll_sdmmc.c ****   
1422:Drivers/STM32F4xx_HAL_Driver/Src/stm32f4xx_ll_sdmmc.c ****   /* Clear all the static flags */
1423:Drivers/STM32F4xx_HAL_Driver/Src/stm32f4xx_ll_sdmmc.c ****   __SDIO_CLEAR_FLAG(SDIOx, SDIO_STATIC_FLAGS);
1424:Drivers/STM32F4xx_HAL_Driver/Src/stm32f4xx_ll_sdmmc.c ****   
1425:Drivers/STM32F4xx_HAL_Driver/Src/stm32f4xx_ll_sdmmc.c ****   /* We have received response, retrieve it.  */
1426:Drivers/STM32F4xx_HAL_Driver/Src/stm32f4xx_ll_sdmmc.c ****   response_r1 = SDIO_GetResponse(SDIOx, SDIO_RESP1);
1427:Drivers/STM32F4xx_HAL_Driver/Src/stm32f4xx_ll_sdmmc.c ****   
1428:Drivers/STM32F4xx_HAL_Driver/Src/stm32f4xx_ll_sdmmc.c ****   if((response_r1 & (SDMMC_R6_GENERAL_UNKNOWN_ERROR | SDMMC_R6_ILLEGAL_CMD | SDMMC_R6_COM_CRC_FAILE
1429:Drivers/STM32F4xx_HAL_Driver/Src/stm32f4xx_ll_sdmmc.c ****   {
1430:Drivers/STM32F4xx_HAL_Driver/Src/stm32f4xx_ll_sdmmc.c ****     *pRCA = (uint16_t) (response_r1 >> 16);
1431:Drivers/STM32F4xx_HAL_Driver/Src/stm32f4xx_ll_sdmmc.c ****     
1432:Drivers/STM32F4xx_HAL_Driver/Src/stm32f4xx_ll_sdmmc.c ****     return SDMMC_ERROR_NONE;
1433:Drivers/STM32F4xx_HAL_Driver/Src/stm32f4xx_ll_sdmmc.c ****   }
1434:Drivers/STM32F4xx_HAL_Driver/Src/stm32f4xx_ll_sdmmc.c ****   else if((response_r1 & SDMMC_R6_ILLEGAL_CMD) == SDMMC_R6_ILLEGAL_CMD)
1435:Drivers/STM32F4xx_HAL_Driver/Src/stm32f4xx_ll_sdmmc.c ****   {
1436:Drivers/STM32F4xx_HAL_Driver/Src/stm32f4xx_ll_sdmmc.c ****     return SDMMC_ERROR_ILLEGAL_CMD;
1437:Drivers/STM32F4xx_HAL_Driver/Src/stm32f4xx_ll_sdmmc.c ****   }
1438:Drivers/STM32F4xx_HAL_Driver/Src/stm32f4xx_ll_sdmmc.c ****   else if((response_r1 & SDMMC_R6_COM_CRC_FAILED) == SDMMC_R6_COM_CRC_FAILED)
1439:Drivers/STM32F4xx_HAL_Driver/Src/stm32f4xx_ll_sdmmc.c ****   {
1440:Drivers/STM32F4xx_HAL_Driver/Src/stm32f4xx_ll_sdmmc.c ****     return SDMMC_ERROR_COM_CRC_FAILED;
1441:Drivers/STM32F4xx_HAL_Driver/Src/stm32f4xx_ll_sdmmc.c ****   }
1442:Drivers/STM32F4xx_HAL_Driver/Src/stm32f4xx_ll_sdmmc.c ****   else
1443:Drivers/STM32F4xx_HAL_Driver/Src/stm32f4xx_ll_sdmmc.c ****   {
1444:Drivers/STM32F4xx_HAL_Driver/Src/stm32f4xx_ll_sdmmc.c ****     return SDMMC_ERROR_GENERAL_UNKNOWN_ERR;
1445:Drivers/STM32F4xx_HAL_Driver/Src/stm32f4xx_ll_sdmmc.c ****   }
1446:Drivers/STM32F4xx_HAL_Driver/Src/stm32f4xx_ll_sdmmc.c **** }
1447:Drivers/STM32F4xx_HAL_Driver/Src/stm32f4xx_ll_sdmmc.c **** 
1448:Drivers/STM32F4xx_HAL_Driver/Src/stm32f4xx_ll_sdmmc.c **** /**
1449:Drivers/STM32F4xx_HAL_Driver/Src/stm32f4xx_ll_sdmmc.c ****   * @brief  Checks for error conditions for R7 response.
1450:Drivers/STM32F4xx_HAL_Driver/Src/stm32f4xx_ll_sdmmc.c ****   * @param  hsd SD handle
1451:Drivers/STM32F4xx_HAL_Driver/Src/stm32f4xx_ll_sdmmc.c ****   * @retval SD Card error state
1452:Drivers/STM32F4xx_HAL_Driver/Src/stm32f4xx_ll_sdmmc.c ****   */
1453:Drivers/STM32F4xx_HAL_Driver/Src/stm32f4xx_ll_sdmmc.c **** static uint32_t SDMMC_GetCmdResp7(SDIO_TypeDef *SDIOx)
1454:Drivers/STM32F4xx_HAL_Driver/Src/stm32f4xx_ll_sdmmc.c **** {
 249              		.loc 1 1454 0
 250              		.cfi_startproc
 251              		@ args = 0, pretend = 0, frame = 0
 252              		@ frame_needed = 0, uses_anonymous_args = 0
 253              		@ link register save eliminated.
 254              	.LVL22:
1455:Drivers/STM32F4xx_HAL_Driver/Src/stm32f4xx_ll_sdmmc.c ****   /* 8 is the number of required instructions cycles for the below loop statement.
1456:Drivers/STM32F4xx_HAL_Driver/Src/stm32f4xx_ll_sdmmc.c ****   The SDIO_CMDTIMEOUT is expressed in ms */
1457:Drivers/STM32F4xx_HAL_Driver/Src/stm32f4xx_ll_sdmmc.c ****   register uint32_t count = SDIO_CMDTIMEOUT * (SystemCoreClock / 8U /1000U);
ARM GAS  /tmp/ccO3W952.s 			page 31


 255              		.loc 1 1457 0
 256 0000 124B     		ldr	r3, .L29
 257 0002 1B68     		ldr	r3, [r3]
 258 0004 124A     		ldr	r2, .L29+4
 259 0006 A2FB0323 		umull	r2, r3, r2, r3
 260 000a 5A0A     		lsrs	r2, r3, #9
 261 000c 41F28833 		movw	r3, #5000
 262 0010 03FB02F3 		mul	r3, r3, r2
 263              	.LVL23:
 264              	.L26:
1458:Drivers/STM32F4xx_HAL_Driver/Src/stm32f4xx_ll_sdmmc.c ****   
1459:Drivers/STM32F4xx_HAL_Driver/Src/stm32f4xx_ll_sdmmc.c ****   do
1460:Drivers/STM32F4xx_HAL_Driver/Src/stm32f4xx_ll_sdmmc.c ****   {
1461:Drivers/STM32F4xx_HAL_Driver/Src/stm32f4xx_ll_sdmmc.c ****     if (count-- == 0U)
 265              		.loc 1 1461 0
 266 0014 5A1E     		subs	r2, r3, #1
 267              	.LVL24:
 268 0016 A3B1     		cbz	r3, .L28
1462:Drivers/STM32F4xx_HAL_Driver/Src/stm32f4xx_ll_sdmmc.c ****     {
1463:Drivers/STM32F4xx_HAL_Driver/Src/stm32f4xx_ll_sdmmc.c ****       return SDMMC_ERROR_TIMEOUT;
1464:Drivers/STM32F4xx_HAL_Driver/Src/stm32f4xx_ll_sdmmc.c ****     }
1465:Drivers/STM32F4xx_HAL_Driver/Src/stm32f4xx_ll_sdmmc.c ****     
1466:Drivers/STM32F4xx_HAL_Driver/Src/stm32f4xx_ll_sdmmc.c ****   }while(!__SDIO_GET_FLAG(SDIOx, SDIO_FLAG_CCRCFAIL | SDIO_FLAG_CMDREND | SDIO_FLAG_CTIMEOUT));
 269              		.loc 1 1466 0
 270 0018 416B     		ldr	r1, [r0, #52]
1461:Drivers/STM32F4xx_HAL_Driver/Src/stm32f4xx_ll_sdmmc.c ****     {
 271              		.loc 1 1461 0
 272 001a 1346     		mov	r3, r2
 273              		.loc 1 1466 0
 274 001c 11F0450F 		tst	r1, #69
 275 0020 F8D0     		beq	.L26
1467:Drivers/STM32F4xx_HAL_Driver/Src/stm32f4xx_ll_sdmmc.c **** 
1468:Drivers/STM32F4xx_HAL_Driver/Src/stm32f4xx_ll_sdmmc.c ****   if(__SDIO_GET_FLAG(SDIOx, SDIO_FLAG_CTIMEOUT))
 276              		.loc 1 1468 0
 277 0022 436B     		ldr	r3, [r0, #52]
 278 0024 13F00402 		ands	r2, r3, #4
 279              	.LVL25:
 280 0028 03D0     		beq	.L27
1469:Drivers/STM32F4xx_HAL_Driver/Src/stm32f4xx_ll_sdmmc.c ****   {
1470:Drivers/STM32F4xx_HAL_Driver/Src/stm32f4xx_ll_sdmmc.c ****     /* Card is SD V2.0 compliant */
1471:Drivers/STM32F4xx_HAL_Driver/Src/stm32f4xx_ll_sdmmc.c ****     __SDIO_CLEAR_FLAG(SDIOx, SDIO_FLAG_CMDREND);
 281              		.loc 1 1471 0
 282 002a 4023     		movs	r3, #64
 283 002c 8363     		str	r3, [r0, #56]
1472:Drivers/STM32F4xx_HAL_Driver/Src/stm32f4xx_ll_sdmmc.c ****     
1473:Drivers/STM32F4xx_HAL_Driver/Src/stm32f4xx_ll_sdmmc.c ****     return SDMMC_ERROR_CMD_RSP_TIMEOUT;
 284              		.loc 1 1473 0
 285 002e 0423     		movs	r3, #4
 286 0030 09E0     		b	.L25
 287              	.L27:
1474:Drivers/STM32F4xx_HAL_Driver/Src/stm32f4xx_ll_sdmmc.c ****   }
1475:Drivers/STM32F4xx_HAL_Driver/Src/stm32f4xx_ll_sdmmc.c ****   
1476:Drivers/STM32F4xx_HAL_Driver/Src/stm32f4xx_ll_sdmmc.c ****   if(__SDIO_GET_FLAG(SDIOx, SDIO_FLAG_CMDREND))
 288              		.loc 1 1476 0
 289 0032 436B     		ldr	r3, [r0, #52]
 290 0034 13F04003 		ands	r3, r3, #64
 291 0038 05D0     		beq	.L25
ARM GAS  /tmp/ccO3W952.s 			page 32


1477:Drivers/STM32F4xx_HAL_Driver/Src/stm32f4xx_ll_sdmmc.c ****   {
1478:Drivers/STM32F4xx_HAL_Driver/Src/stm32f4xx_ll_sdmmc.c ****     /* Card is SD V2.0 compliant */
1479:Drivers/STM32F4xx_HAL_Driver/Src/stm32f4xx_ll_sdmmc.c ****     __SDIO_CLEAR_FLAG(SDIOx, SDIO_FLAG_CMDREND);
 292              		.loc 1 1479 0
 293 003a 4023     		movs	r3, #64
 294 003c 8363     		str	r3, [r0, #56]
1480:Drivers/STM32F4xx_HAL_Driver/Src/stm32f4xx_ll_sdmmc.c ****   }
1481:Drivers/STM32F4xx_HAL_Driver/Src/stm32f4xx_ll_sdmmc.c ****   
1482:Drivers/STM32F4xx_HAL_Driver/Src/stm32f4xx_ll_sdmmc.c ****   return SDMMC_ERROR_NONE;
 295              		.loc 1 1482 0
 296 003e 1346     		mov	r3, r2
 297 0040 01E0     		b	.L25
 298              	.LVL26:
 299              	.L28:
1463:Drivers/STM32F4xx_HAL_Driver/Src/stm32f4xx_ll_sdmmc.c ****     }
 300              		.loc 1 1463 0
 301 0042 4FF00043 		mov	r3, #-2147483648
 302              	.LVL27:
 303              	.L25:
1483:Drivers/STM32F4xx_HAL_Driver/Src/stm32f4xx_ll_sdmmc.c ****   
1484:Drivers/STM32F4xx_HAL_Driver/Src/stm32f4xx_ll_sdmmc.c **** }
 304              		.loc 1 1484 0
 305 0046 1846     		mov	r0, r3
 306              	.LVL28:
 307 0048 7047     		bx	lr
 308              	.L30:
 309 004a 00BF     		.align	2
 310              	.L29:
 311 004c 00000000 		.word	SystemCoreClock
 312 0050 D34D6210 		.word	274877907
 313              		.cfi_endproc
 314              	.LFE167:
 316              		.section	.text.SDIO_Init,"ax",%progbits
 317              		.align	2
 318              		.global	SDIO_Init
 319              		.thumb
 320              		.thumb_func
 322              	SDIO_Init:
 323              	.LFB124:
 233:Drivers/STM32F4xx_HAL_Driver/Src/stm32f4xx_ll_sdmmc.c ****   uint32_t tmpreg = 0U;
 324              		.loc 1 233 0
 325              		.cfi_startproc
 326              		@ args = 28, pretend = 16, frame = 0
 327              		@ frame_needed = 0, uses_anonymous_args = 0
 328              		@ link register save eliminated.
 329              	.LVL29:
 330 0000 84B0     		sub	sp, sp, #16
 331              	.LCFI4:
 332              		.cfi_def_cfa_offset 16
 333 0002 10B4     		push	{r4}
 334              	.LCFI5:
 335              		.cfi_def_cfa_offset 20
 336              		.cfi_offset 4, -20
 337 0004 02AC     		add	r4, sp, #8
 338 0006 84E80E00 		stmia	r4, {r1, r2, r3}
 339              	.LVL30:
 247:Drivers/STM32F4xx_HAL_Driver/Src/stm32f4xx_ll_sdmmc.c ****              Init.ClockPowerSave      |\
ARM GAS  /tmp/ccO3W952.s 			page 33


 340              		.loc 1 247 0
 341 000a 039B     		ldr	r3, [sp, #12]
 246:Drivers/STM32F4xx_HAL_Driver/Src/stm32f4xx_ll_sdmmc.c ****              Init.ClockBypass         |\
 342              		.loc 1 246 0
 343 000c 1943     		orrs	r1, r1, r3
 248:Drivers/STM32F4xx_HAL_Driver/Src/stm32f4xx_ll_sdmmc.c ****              Init.BusWide             |\
 344              		.loc 1 248 0
 345 000e 049B     		ldr	r3, [sp, #16]
 247:Drivers/STM32F4xx_HAL_Driver/Src/stm32f4xx_ll_sdmmc.c ****              Init.ClockPowerSave      |\
 346              		.loc 1 247 0
 347 0010 1943     		orrs	r1, r1, r3
 249:Drivers/STM32F4xx_HAL_Driver/Src/stm32f4xx_ll_sdmmc.c ****              Init.HardwareFlowControl |\
 348              		.loc 1 249 0
 349 0012 059B     		ldr	r3, [sp, #20]
 248:Drivers/STM32F4xx_HAL_Driver/Src/stm32f4xx_ll_sdmmc.c ****              Init.BusWide             |\
 350              		.loc 1 248 0
 351 0014 1943     		orrs	r1, r1, r3
 250:Drivers/STM32F4xx_HAL_Driver/Src/stm32f4xx_ll_sdmmc.c ****              Init.ClockDiv
 352              		.loc 1 250 0
 353 0016 069B     		ldr	r3, [sp, #24]
 249:Drivers/STM32F4xx_HAL_Driver/Src/stm32f4xx_ll_sdmmc.c ****              Init.HardwareFlowControl |\
 354              		.loc 1 249 0
 355 0018 1943     		orrs	r1, r1, r3
 251:Drivers/STM32F4xx_HAL_Driver/Src/stm32f4xx_ll_sdmmc.c ****              ); 
 356              		.loc 1 251 0
 357 001a 079B     		ldr	r3, [sp, #28]
 250:Drivers/STM32F4xx_HAL_Driver/Src/stm32f4xx_ll_sdmmc.c ****              Init.ClockDiv
 358              		.loc 1 250 0
 359 001c 1943     		orrs	r1, r1, r3
 360              	.LVL31:
 255:Drivers/STM32F4xx_HAL_Driver/Src/stm32f4xx_ll_sdmmc.c **** 
 361              		.loc 1 255 0
 362 001e 4268     		ldr	r2, [r0, #4]
 363 0020 22F4FD43 		bic	r3, r2, #32384
 364 0024 23F07F03 		bic	r3, r3, #127
 365 0028 0B43     		orrs	r3, r3, r1
 366 002a 4360     		str	r3, [r0, #4]
 258:Drivers/STM32F4xx_HAL_Driver/Src/stm32f4xx_ll_sdmmc.c **** 
 367              		.loc 1 258 0
 368 002c 0020     		movs	r0, #0
 369              	.LVL32:
 370 002e 5DF8044B 		ldr	r4, [sp], #4
 371              	.LCFI6:
 372              		.cfi_restore 4
 373              		.cfi_def_cfa_offset 16
 374 0032 04B0     		add	sp, sp, #16
 375              	.LCFI7:
 376              		.cfi_def_cfa_offset 0
 377 0034 7047     		bx	lr
 378              		.cfi_endproc
 379              	.LFE124:
 381 0036 00BF     		.section	.text.SDIO_ReadFIFO,"ax",%progbits
 382              		.align	2
 383              		.global	SDIO_ReadFIFO
 384              		.thumb
 385              		.thumb_func
 387              	SDIO_ReadFIFO:
ARM GAS  /tmp/ccO3W952.s 			page 34


 388              	.LFB125:
 286:Drivers/STM32F4xx_HAL_Driver/Src/stm32f4xx_ll_sdmmc.c ****   /* Read data from Rx FIFO */ 
 389              		.loc 1 286 0
 390              		.cfi_startproc
 391              		@ args = 0, pretend = 0, frame = 0
 392              		@ frame_needed = 0, uses_anonymous_args = 0
 393              		@ link register save eliminated.
 394              	.LVL33:
 288:Drivers/STM32F4xx_HAL_Driver/Src/stm32f4xx_ll_sdmmc.c **** }
 395              		.loc 1 288 0
 396 0000 D0F88000 		ldr	r0, [r0, #128]
 397              	.LVL34:
 289:Drivers/STM32F4xx_HAL_Driver/Src/stm32f4xx_ll_sdmmc.c **** 
 398              		.loc 1 289 0
 399 0004 7047     		bx	lr
 400              		.cfi_endproc
 401              	.LFE125:
 403 0006 00BF     		.section	.text.SDIO_WriteFIFO,"ax",%progbits
 404              		.align	2
 405              		.global	SDIO_WriteFIFO
 406              		.thumb
 407              		.thumb_func
 409              	SDIO_WriteFIFO:
 410              	.LFB126:
 298:Drivers/STM32F4xx_HAL_Driver/Src/stm32f4xx_ll_sdmmc.c ****   /* Write data to FIFO */ 
 411              		.loc 1 298 0
 412              		.cfi_startproc
 413              		@ args = 0, pretend = 0, frame = 0
 414              		@ frame_needed = 0, uses_anonymous_args = 0
 415              		@ link register save eliminated.
 416              	.LVL35:
 300:Drivers/STM32F4xx_HAL_Driver/Src/stm32f4xx_ll_sdmmc.c **** 
 417              		.loc 1 300 0
 418 0000 0B68     		ldr	r3, [r1]
 419 0002 C0F88030 		str	r3, [r0, #128]
 303:Drivers/STM32F4xx_HAL_Driver/Src/stm32f4xx_ll_sdmmc.c **** 
 420              		.loc 1 303 0
 421 0006 0020     		movs	r0, #0
 422              	.LVL36:
 423 0008 7047     		bx	lr
 424              		.cfi_endproc
 425              	.LFE126:
 427 000a 00BF     		.section	.text.SDIO_PowerState_ON,"ax",%progbits
 428              		.align	2
 429              		.global	SDIO_PowerState_ON
 430              		.thumb
 431              		.thumb_func
 433              	SDIO_PowerState_ON:
 434              	.LFB127:
 330:Drivers/STM32F4xx_HAL_Driver/Src/stm32f4xx_ll_sdmmc.c ****   /* Set power state to ON */ 
 435              		.loc 1 330 0
 436              		.cfi_startproc
 437              		@ args = 0, pretend = 0, frame = 0
 438              		@ frame_needed = 0, uses_anonymous_args = 0
 439              		@ link register save eliminated.
 440              	.LVL37:
 332:Drivers/STM32F4xx_HAL_Driver/Src/stm32f4xx_ll_sdmmc.c ****   
ARM GAS  /tmp/ccO3W952.s 			page 35


 441              		.loc 1 332 0
 442 0000 0323     		movs	r3, #3
 443 0002 0360     		str	r3, [r0]
 335:Drivers/STM32F4xx_HAL_Driver/Src/stm32f4xx_ll_sdmmc.c **** 
 444              		.loc 1 335 0
 445 0004 0020     		movs	r0, #0
 446              	.LVL38:
 447 0006 7047     		bx	lr
 448              		.cfi_endproc
 449              	.LFE127:
 451              		.section	.text.SDIO_PowerState_OFF,"ax",%progbits
 452              		.align	2
 453              		.global	SDIO_PowerState_OFF
 454              		.thumb
 455              		.thumb_func
 457              	SDIO_PowerState_OFF:
 458              	.LFB128:
 343:Drivers/STM32F4xx_HAL_Driver/Src/stm32f4xx_ll_sdmmc.c ****   /* Set power state to OFF */
 459              		.loc 1 343 0
 460              		.cfi_startproc
 461              		@ args = 0, pretend = 0, frame = 0
 462              		@ frame_needed = 0, uses_anonymous_args = 0
 463              		@ link register save eliminated.
 464              	.LVL39:
 345:Drivers/STM32F4xx_HAL_Driver/Src/stm32f4xx_ll_sdmmc.c ****   
 465              		.loc 1 345 0
 466 0000 0023     		movs	r3, #0
 467 0002 0360     		str	r3, [r0]
 348:Drivers/STM32F4xx_HAL_Driver/Src/stm32f4xx_ll_sdmmc.c **** 
 468              		.loc 1 348 0
 469 0004 1846     		mov	r0, r3
 470              	.LVL40:
 471 0006 7047     		bx	lr
 472              		.cfi_endproc
 473              	.LFE128:
 475              		.section	.text.SDIO_GetPowerState,"ax",%progbits
 476              		.align	2
 477              		.global	SDIO_GetPowerState
 478              		.thumb
 479              		.thumb_func
 481              	SDIO_GetPowerState:
 482              	.LFB129:
 360:Drivers/STM32F4xx_HAL_Driver/Src/stm32f4xx_ll_sdmmc.c ****   return (SDIOx->POWER & SDIO_POWER_PWRCTRL);
 483              		.loc 1 360 0
 484              		.cfi_startproc
 485              		@ args = 0, pretend = 0, frame = 0
 486              		@ frame_needed = 0, uses_anonymous_args = 0
 487              		@ link register save eliminated.
 488              	.LVL41:
 361:Drivers/STM32F4xx_HAL_Driver/Src/stm32f4xx_ll_sdmmc.c **** }
 489              		.loc 1 361 0
 490 0000 0068     		ldr	r0, [r0]
 491              	.LVL42:
 362:Drivers/STM32F4xx_HAL_Driver/Src/stm32f4xx_ll_sdmmc.c **** 
 492              		.loc 1 362 0
 493 0002 00F00300 		and	r0, r0, #3
 494 0006 7047     		bx	lr
ARM GAS  /tmp/ccO3W952.s 			page 36


 495              		.cfi_endproc
 496              	.LFE129:
 498              		.section	.text.SDIO_SendCommand,"ax",%progbits
 499              		.align	2
 500              		.global	SDIO_SendCommand
 501              		.thumb
 502              		.thumb_func
 504              	SDIO_SendCommand:
 505              	.LFB130:
 373:Drivers/STM32F4xx_HAL_Driver/Src/stm32f4xx_ll_sdmmc.c ****   uint32_t tmpreg = 0U;
 506              		.loc 1 373 0
 507              		.cfi_startproc
 508              		@ args = 0, pretend = 0, frame = 0
 509              		@ frame_needed = 0, uses_anonymous_args = 0
 510              		@ link register save eliminated.
 511              	.LVL43:
 383:Drivers/STM32F4xx_HAL_Driver/Src/stm32f4xx_ll_sdmmc.c **** 
 512              		.loc 1 383 0
 513 0000 0B68     		ldr	r3, [r1]
 514 0002 8360     		str	r3, [r0, #8]
 386:Drivers/STM32F4xx_HAL_Driver/Src/stm32f4xx_ll_sdmmc.c ****                        Command->Response         |\
 515              		.loc 1 386 0
 516 0004 4A68     		ldr	r2, [r1, #4]
 387:Drivers/STM32F4xx_HAL_Driver/Src/stm32f4xx_ll_sdmmc.c ****                        Command->WaitForInterrupt |\
 517              		.loc 1 387 0
 518 0006 8B68     		ldr	r3, [r1, #8]
 386:Drivers/STM32F4xx_HAL_Driver/Src/stm32f4xx_ll_sdmmc.c ****                        Command->Response         |\
 519              		.loc 1 386 0
 520 0008 1A43     		orrs	r2, r2, r3
 388:Drivers/STM32F4xx_HAL_Driver/Src/stm32f4xx_ll_sdmmc.c ****                        Command->CPSM);
 521              		.loc 1 388 0
 522 000a CB68     		ldr	r3, [r1, #12]
 387:Drivers/STM32F4xx_HAL_Driver/Src/stm32f4xx_ll_sdmmc.c ****                        Command->WaitForInterrupt |\
 523              		.loc 1 387 0
 524 000c 1343     		orrs	r3, r3, r2
 389:Drivers/STM32F4xx_HAL_Driver/Src/stm32f4xx_ll_sdmmc.c ****   
 525              		.loc 1 389 0
 526 000e 0A69     		ldr	r2, [r1, #16]
 388:Drivers/STM32F4xx_HAL_Driver/Src/stm32f4xx_ll_sdmmc.c ****                        Command->CPSM);
 527              		.loc 1 388 0
 528 0010 43EA0201 		orr	r1, r3, r2
 529              	.LVL44:
 392:Drivers/STM32F4xx_HAL_Driver/Src/stm32f4xx_ll_sdmmc.c ****   
 530              		.loc 1 392 0
 531 0014 C268     		ldr	r2, [r0, #12]
 532 0016 22F47F63 		bic	r3, r2, #4080
 533 001a 23F00F03 		bic	r3, r3, #15
 534 001e 0B43     		orrs	r3, r3, r1
 535 0020 C360     		str	r3, [r0, #12]
 395:Drivers/STM32F4xx_HAL_Driver/Src/stm32f4xx_ll_sdmmc.c **** 
 536              		.loc 1 395 0
 537 0022 0020     		movs	r0, #0
 538              	.LVL45:
 539 0024 7047     		bx	lr
 540              		.cfi_endproc
 541              	.LFE130:
 543 0026 00BF     		.section	.text.SDIO_GetCommandResponse,"ax",%progbits
ARM GAS  /tmp/ccO3W952.s 			page 37


 544              		.align	2
 545              		.global	SDIO_GetCommandResponse
 546              		.thumb
 547              		.thumb_func
 549              	SDIO_GetCommandResponse:
 550              	.LFB131:
 403:Drivers/STM32F4xx_HAL_Driver/Src/stm32f4xx_ll_sdmmc.c ****   return (uint8_t)(SDIOx->RESPCMD);
 551              		.loc 1 403 0
 552              		.cfi_startproc
 553              		@ args = 0, pretend = 0, frame = 0
 554              		@ frame_needed = 0, uses_anonymous_args = 0
 555              		@ link register save eliminated.
 556              	.LVL46:
 404:Drivers/STM32F4xx_HAL_Driver/Src/stm32f4xx_ll_sdmmc.c **** }
 557              		.loc 1 404 0
 558 0000 0069     		ldr	r0, [r0, #16]
 559              	.LVL47:
 405:Drivers/STM32F4xx_HAL_Driver/Src/stm32f4xx_ll_sdmmc.c **** 
 560              		.loc 1 405 0
 561 0002 C0B2     		uxtb	r0, r0
 562 0004 7047     		bx	lr
 563              		.cfi_endproc
 564              	.LFE131:
 566 0006 00BF     		.section	.text.SDIO_GetResponse,"ax",%progbits
 567              		.align	2
 568              		.global	SDIO_GetResponse
 569              		.thumb
 570              		.thumb_func
 572              	SDIO_GetResponse:
 573              	.LFB132:
 420:Drivers/STM32F4xx_HAL_Driver/Src/stm32f4xx_ll_sdmmc.c ****   __IO uint32_t tmp = 0U;
 574              		.loc 1 420 0
 575              		.cfi_startproc
 576              		@ args = 0, pretend = 0, frame = 8
 577              		@ frame_needed = 0, uses_anonymous_args = 0
 578              		@ link register save eliminated.
 579              	.LVL48:
 580 0000 82B0     		sub	sp, sp, #8
 581              	.LCFI8:
 582              		.cfi_def_cfa_offset 8
 421:Drivers/STM32F4xx_HAL_Driver/Src/stm32f4xx_ll_sdmmc.c **** 
 583              		.loc 1 421 0
 584 0002 0023     		movs	r3, #0
 585 0004 0193     		str	r3, [sp, #4]
 427:Drivers/STM32F4xx_HAL_Driver/Src/stm32f4xx_ll_sdmmc.c ****   
 586              		.loc 1 427 0
 587 0006 1430     		adds	r0, r0, #20
 588              	.LVL49:
 589 0008 0144     		add	r1, r1, r0
 590              	.LVL50:
 591 000a 0191     		str	r1, [sp, #4]
 429:Drivers/STM32F4xx_HAL_Driver/Src/stm32f4xx_ll_sdmmc.c **** }  
 592              		.loc 1 429 0
 593 000c 019B     		ldr	r3, [sp, #4]
 594 000e 1868     		ldr	r0, [r3]
 595              	.LVL51:
 430:Drivers/STM32F4xx_HAL_Driver/Src/stm32f4xx_ll_sdmmc.c **** 
ARM GAS  /tmp/ccO3W952.s 			page 38


 596              		.loc 1 430 0
 597 0010 02B0     		add	sp, sp, #8
 598              	.LCFI9:
 599              		.cfi_def_cfa_offset 0
 600              		@ sp needed
 601 0012 7047     		bx	lr
 602              		.cfi_endproc
 603              	.LFE132:
 605              		.section	.text.SDMMC_GetCmdResp1,"ax",%progbits
 606              		.align	2
 607              		.thumb
 608              		.thumb_func
 610              	SDMMC_GetCmdResp1:
 611              	.LFB163:
1177:Drivers/STM32F4xx_HAL_Driver/Src/stm32f4xx_ll_sdmmc.c ****   uint32_t response_r1;
 612              		.loc 1 1177 0
 613              		.cfi_startproc
 614              		@ args = 0, pretend = 0, frame = 0
 615              		@ frame_needed = 0, uses_anonymous_args = 0
 616              	.LVL52:
 617 0000 38B5     		push	{r3, r4, r5, lr}
 618              	.LCFI10:
 619              		.cfi_def_cfa_offset 16
 620              		.cfi_offset 3, -16
 621              		.cfi_offset 4, -12
 622              		.cfi_offset 5, -8
 623              		.cfi_offset 14, -4
1182:Drivers/STM32F4xx_HAL_Driver/Src/stm32f4xx_ll_sdmmc.c ****   
 624              		.loc 1 1182 0
 625 0002 514B     		ldr	r3, .L68
 626 0004 1B68     		ldr	r3, [r3]
 627 0006 514C     		ldr	r4, .L68+4
 628 0008 A4FB0343 		umull	r4, r3, r4, r3
 629 000c 5B0A     		lsrs	r3, r3, #9
 630 000e 02FB03F2 		mul	r2, r2, r3
 631              	.LVL53:
 632              	.L44:
1186:Drivers/STM32F4xx_HAL_Driver/Src/stm32f4xx_ll_sdmmc.c ****     {
 633              		.loc 1 1186 0
 634 0012 531E     		subs	r3, r2, #1
 635              	.LVL54:
 636 0014 002A     		cmp	r2, #0
 637 0016 5ED0     		beq	.L47
1191:Drivers/STM32F4xx_HAL_Driver/Src/stm32f4xx_ll_sdmmc.c ****   
 638              		.loc 1 1191 0
 639 0018 446B     		ldr	r4, [r0, #52]
1186:Drivers/STM32F4xx_HAL_Driver/Src/stm32f4xx_ll_sdmmc.c ****     {
 640              		.loc 1 1186 0
 641 001a 1A46     		mov	r2, r3
1191:Drivers/STM32F4xx_HAL_Driver/Src/stm32f4xx_ll_sdmmc.c ****   
 642              		.loc 1 1191 0
 643 001c 14F0450F 		tst	r4, #69
 644 0020 F7D0     		beq	.L44
1193:Drivers/STM32F4xx_HAL_Driver/Src/stm32f4xx_ll_sdmmc.c ****   {
 645              		.loc 1 1193 0
 646 0022 436B     		ldr	r3, [r0, #52]
 647              	.LVL55:
ARM GAS  /tmp/ccO3W952.s 			page 39


 648 0024 13F0040F 		tst	r3, #4
 649 0028 03D0     		beq	.L45
1195:Drivers/STM32F4xx_HAL_Driver/Src/stm32f4xx_ll_sdmmc.c ****     
 650              		.loc 1 1195 0
 651 002a 0423     		movs	r3, #4
 652 002c 8363     		str	r3, [r0, #56]
1197:Drivers/STM32F4xx_HAL_Driver/Src/stm32f4xx_ll_sdmmc.c ****   }
 653              		.loc 1 1197 0
 654 002e 1846     		mov	r0, r3
 655              	.LVL56:
 656 0030 38BD     		pop	{r3, r4, r5, pc}
 657              	.LVL57:
 658              	.L45:
1199:Drivers/STM32F4xx_HAL_Driver/Src/stm32f4xx_ll_sdmmc.c ****   {
 659              		.loc 1 1199 0
 660 0032 436B     		ldr	r3, [r0, #52]
 661 0034 13F0010F 		tst	r3, #1
 662 0038 03D0     		beq	.L46
1201:Drivers/STM32F4xx_HAL_Driver/Src/stm32f4xx_ll_sdmmc.c ****     
 663              		.loc 1 1201 0
 664 003a 0123     		movs	r3, #1
 665 003c 8363     		str	r3, [r0, #56]
1203:Drivers/STM32F4xx_HAL_Driver/Src/stm32f4xx_ll_sdmmc.c ****   }
 666              		.loc 1 1203 0
 667 003e 1846     		mov	r0, r3
 668              	.LVL58:
 669 0040 38BD     		pop	{r3, r4, r5, pc}
 670              	.LVL59:
 671              	.L46:
 672 0042 0D46     		mov	r5, r1
 673 0044 0446     		mov	r4, r0
1207:Drivers/STM32F4xx_HAL_Driver/Src/stm32f4xx_ll_sdmmc.c ****   {
 674              		.loc 1 1207 0
 675 0046 FFF7FEFF 		bl	SDIO_GetCommandResponse
 676              	.LVL60:
 677 004a A842     		cmp	r0, r5
 678 004c 46D1     		bne	.L48
1213:Drivers/STM32F4xx_HAL_Driver/Src/stm32f4xx_ll_sdmmc.c ****   
 679              		.loc 1 1213 0
 680 004e 40F2FF53 		movw	r3, #1535
 681 0052 A363     		str	r3, [r4, #56]
1216:Drivers/STM32F4xx_HAL_Driver/Src/stm32f4xx_ll_sdmmc.c ****   
 682              		.loc 1 1216 0
 683 0054 0021     		movs	r1, #0
 684 0056 2046     		mov	r0, r4
 685 0058 FFF7FEFF 		bl	SDIO_GetResponse
 686              	.LVL61:
 687 005c 0346     		mov	r3, r0
 688              	.LVL62:
1218:Drivers/STM32F4xx_HAL_Driver/Src/stm32f4xx_ll_sdmmc.c ****   {
 689              		.loc 1 1218 0
 690 005e 3C48     		ldr	r0, .L68+8
 691              	.LVL63:
 692 0060 1840     		ands	r0, r0, r3
 693 0062 0028     		cmp	r0, #0
 694 0064 6FD0     		beq	.L43
1222:Drivers/STM32F4xx_HAL_Driver/Src/stm32f4xx_ll_sdmmc.c ****   {
ARM GAS  /tmp/ccO3W952.s 			page 40


 695              		.loc 1 1222 0
 696 0066 002B     		cmp	r3, #0
 697 0068 3ADB     		blt	.L49
1226:Drivers/STM32F4xx_HAL_Driver/Src/stm32f4xx_ll_sdmmc.c ****   {
 698              		.loc 1 1226 0
 699 006a 13F0804F 		tst	r3, #1073741824
 700 006e 3AD1     		bne	.L50
1230:Drivers/STM32F4xx_HAL_Driver/Src/stm32f4xx_ll_sdmmc.c ****   {
 701              		.loc 1 1230 0
 702 0070 13F0005F 		tst	r3, #536870912
 703 0074 39D1     		bne	.L51
1234:Drivers/STM32F4xx_HAL_Driver/Src/stm32f4xx_ll_sdmmc.c ****   {
 704              		.loc 1 1234 0
 705 0076 13F0805F 		tst	r3, #268435456
 706 007a 38D1     		bne	.L52
1238:Drivers/STM32F4xx_HAL_Driver/Src/stm32f4xx_ll_sdmmc.c ****   {
 707              		.loc 1 1238 0
 708 007c 13F0006F 		tst	r3, #134217728
 709 0080 38D1     		bne	.L53
1242:Drivers/STM32F4xx_HAL_Driver/Src/stm32f4xx_ll_sdmmc.c ****   {
 710              		.loc 1 1242 0
 711 0082 13F0806F 		tst	r3, #67108864
 712 0086 38D1     		bne	.L54
1246:Drivers/STM32F4xx_HAL_Driver/Src/stm32f4xx_ll_sdmmc.c ****   {
 713              		.loc 1 1246 0
 714 0088 13F0807F 		tst	r3, #16777216
 715 008c 38D1     		bne	.L55
1250:Drivers/STM32F4xx_HAL_Driver/Src/stm32f4xx_ll_sdmmc.c ****   {
 716              		.loc 1 1250 0
 717 008e 13F4000F 		tst	r3, #8388608
 718 0092 38D1     		bne	.L56
1254:Drivers/STM32F4xx_HAL_Driver/Src/stm32f4xx_ll_sdmmc.c ****   {
 719              		.loc 1 1254 0
 720 0094 13F4800F 		tst	r3, #4194304
 721 0098 38D1     		bne	.L57
1258:Drivers/STM32F4xx_HAL_Driver/Src/stm32f4xx_ll_sdmmc.c ****   {
 722              		.loc 1 1258 0
 723 009a 13F4001F 		tst	r3, #2097152
 724 009e 38D1     		bne	.L58
1262:Drivers/STM32F4xx_HAL_Driver/Src/stm32f4xx_ll_sdmmc.c ****   {
 725              		.loc 1 1262 0
 726 00a0 13F4801F 		tst	r3, #1048576
 727 00a4 38D1     		bne	.L59
1266:Drivers/STM32F4xx_HAL_Driver/Src/stm32f4xx_ll_sdmmc.c ****   {
 728              		.loc 1 1266 0
 729 00a6 13F4802F 		tst	r3, #262144
 730 00aa 38D1     		bne	.L60
1270:Drivers/STM32F4xx_HAL_Driver/Src/stm32f4xx_ll_sdmmc.c ****   {
 731              		.loc 1 1270 0
 732 00ac 13F4003F 		tst	r3, #131072
 733 00b0 38D1     		bne	.L61
1274:Drivers/STM32F4xx_HAL_Driver/Src/stm32f4xx_ll_sdmmc.c ****   {
 734              		.loc 1 1274 0
 735 00b2 13F4803F 		tst	r3, #65536
 736 00b6 38D1     		bne	.L62
1278:Drivers/STM32F4xx_HAL_Driver/Src/stm32f4xx_ll_sdmmc.c ****   {
 737              		.loc 1 1278 0
ARM GAS  /tmp/ccO3W952.s 			page 41


 738 00b8 13F4004F 		tst	r3, #32768
 739 00bc 38D1     		bne	.L63
1282:Drivers/STM32F4xx_HAL_Driver/Src/stm32f4xx_ll_sdmmc.c ****   {
 740              		.loc 1 1282 0
 741 00be 13F4804F 		tst	r3, #16384
 742 00c2 38D1     		bne	.L64
1286:Drivers/STM32F4xx_HAL_Driver/Src/stm32f4xx_ll_sdmmc.c ****   {
 743              		.loc 1 1286 0
 744 00c4 13F4005F 		tst	r3, #8192
 745 00c8 38D1     		bne	.L65
1290:Drivers/STM32F4xx_HAL_Driver/Src/stm32f4xx_ll_sdmmc.c ****   {
 746              		.loc 1 1290 0
 747 00ca 13F0080F 		tst	r3, #8
 748 00ce 38D0     		beq	.L66
1292:Drivers/STM32F4xx_HAL_Driver/Src/stm32f4xx_ll_sdmmc.c ****   }
 749              		.loc 1 1292 0
 750 00d0 4FF40000 		mov	r0, #8388608
 751 00d4 38BD     		pop	{r3, r4, r5, pc}
 752              	.LVL64:
 753              	.L47:
1188:Drivers/STM32F4xx_HAL_Driver/Src/stm32f4xx_ll_sdmmc.c ****     }
 754              		.loc 1 1188 0
 755 00d6 4FF00040 		mov	r0, #-2147483648
 756              	.LVL65:
 757 00da 38BD     		pop	{r3, r4, r5, pc}
 758              	.LVL66:
 759              	.L48:
1209:Drivers/STM32F4xx_HAL_Driver/Src/stm32f4xx_ll_sdmmc.c ****   }
 760              		.loc 1 1209 0
 761 00dc 0120     		movs	r0, #1
 762 00de 38BD     		pop	{r3, r4, r5, pc}
 763              	.LVL67:
 764              	.L49:
1224:Drivers/STM32F4xx_HAL_Driver/Src/stm32f4xx_ll_sdmmc.c ****   }
 765              		.loc 1 1224 0
 766 00e0 4FF00070 		mov	r0, #33554432
 767 00e4 38BD     		pop	{r3, r4, r5, pc}
 768              	.LVL68:
 769              	.L50:
1228:Drivers/STM32F4xx_HAL_Driver/Src/stm32f4xx_ll_sdmmc.c ****   }
 770              		.loc 1 1228 0
 771 00e6 4020     		movs	r0, #64
 772 00e8 38BD     		pop	{r3, r4, r5, pc}
 773              	.LVL69:
 774              	.L51:
1232:Drivers/STM32F4xx_HAL_Driver/Src/stm32f4xx_ll_sdmmc.c ****   }
 775              		.loc 1 1232 0
 776 00ea 8020     		movs	r0, #128
 777 00ec 38BD     		pop	{r3, r4, r5, pc}
 778              	.LVL70:
 779              	.L52:
1236:Drivers/STM32F4xx_HAL_Driver/Src/stm32f4xx_ll_sdmmc.c ****   }
 780              		.loc 1 1236 0
 781 00ee 4FF48070 		mov	r0, #256
 782 00f2 38BD     		pop	{r3, r4, r5, pc}
 783              	.LVL71:
 784              	.L53:
ARM GAS  /tmp/ccO3W952.s 			page 42


1240:Drivers/STM32F4xx_HAL_Driver/Src/stm32f4xx_ll_sdmmc.c ****   }
 785              		.loc 1 1240 0
 786 00f4 4FF40070 		mov	r0, #512
 787 00f8 38BD     		pop	{r3, r4, r5, pc}
 788              	.LVL72:
 789              	.L54:
1244:Drivers/STM32F4xx_HAL_Driver/Src/stm32f4xx_ll_sdmmc.c ****   }
 790              		.loc 1 1244 0
 791 00fa 4FF48060 		mov	r0, #1024
 792 00fe 38BD     		pop	{r3, r4, r5, pc}
 793              	.LVL73:
 794              	.L55:
1248:Drivers/STM32F4xx_HAL_Driver/Src/stm32f4xx_ll_sdmmc.c ****   }
 795              		.loc 1 1248 0
 796 0100 4FF40060 		mov	r0, #2048
 797 0104 38BD     		pop	{r3, r4, r5, pc}
 798              	.LVL74:
 799              	.L56:
1252:Drivers/STM32F4xx_HAL_Driver/Src/stm32f4xx_ll_sdmmc.c ****   }
 800              		.loc 1 1252 0
 801 0106 4FF48050 		mov	r0, #4096
 802 010a 38BD     		pop	{r3, r4, r5, pc}
 803              	.LVL75:
 804              	.L57:
1256:Drivers/STM32F4xx_HAL_Driver/Src/stm32f4xx_ll_sdmmc.c ****   }
 805              		.loc 1 1256 0
 806 010c 4FF40050 		mov	r0, #8192
 807 0110 38BD     		pop	{r3, r4, r5, pc}
 808              	.LVL76:
 809              	.L58:
1260:Drivers/STM32F4xx_HAL_Driver/Src/stm32f4xx_ll_sdmmc.c ****   }
 810              		.loc 1 1260 0
 811 0112 4FF48040 		mov	r0, #16384
 812 0116 38BD     		pop	{r3, r4, r5, pc}
 813              	.LVL77:
 814              	.L59:
1264:Drivers/STM32F4xx_HAL_Driver/Src/stm32f4xx_ll_sdmmc.c ****   }
 815              		.loc 1 1264 0
 816 0118 4FF40040 		mov	r0, #32768
 817 011c 38BD     		pop	{r3, r4, r5, pc}
 818              	.LVL78:
 819              	.L60:
1268:Drivers/STM32F4xx_HAL_Driver/Src/stm32f4xx_ll_sdmmc.c ****   }
 820              		.loc 1 1268 0
 821 011e 4FF40030 		mov	r0, #131072
 822 0122 38BD     		pop	{r3, r4, r5, pc}
 823              	.LVL79:
 824              	.L61:
1272:Drivers/STM32F4xx_HAL_Driver/Src/stm32f4xx_ll_sdmmc.c ****   }
 825              		.loc 1 1272 0
 826 0124 4FF48020 		mov	r0, #262144
 827 0128 38BD     		pop	{r3, r4, r5, pc}
 828              	.LVL80:
 829              	.L62:
1276:Drivers/STM32F4xx_HAL_Driver/Src/stm32f4xx_ll_sdmmc.c ****   }
 830              		.loc 1 1276 0
 831 012a 4FF40020 		mov	r0, #524288
ARM GAS  /tmp/ccO3W952.s 			page 43


 832 012e 38BD     		pop	{r3, r4, r5, pc}
 833              	.LVL81:
 834              	.L63:
1280:Drivers/STM32F4xx_HAL_Driver/Src/stm32f4xx_ll_sdmmc.c ****   }
 835              		.loc 1 1280 0
 836 0130 4FF48010 		mov	r0, #1048576
 837 0134 38BD     		pop	{r3, r4, r5, pc}
 838              	.LVL82:
 839              	.L64:
1284:Drivers/STM32F4xx_HAL_Driver/Src/stm32f4xx_ll_sdmmc.c ****   }
 840              		.loc 1 1284 0
 841 0136 4FF40010 		mov	r0, #2097152
 842 013a 38BD     		pop	{r3, r4, r5, pc}
 843              	.LVL83:
 844              	.L65:
1288:Drivers/STM32F4xx_HAL_Driver/Src/stm32f4xx_ll_sdmmc.c ****   }
 845              		.loc 1 1288 0
 846 013c 4FF48000 		mov	r0, #4194304
 847 0140 38BD     		pop	{r3, r4, r5, pc}
 848              	.LVL84:
 849              	.L66:
1296:Drivers/STM32F4xx_HAL_Driver/Src/stm32f4xx_ll_sdmmc.c ****   }
 850              		.loc 1 1296 0
 851 0142 4FF48030 		mov	r0, #65536
 852              	.L43:
1298:Drivers/STM32F4xx_HAL_Driver/Src/stm32f4xx_ll_sdmmc.c **** 
 853              		.loc 1 1298 0
 854 0146 38BD     		pop	{r3, r4, r5, pc}
 855              	.LVL85:
 856              	.L69:
 857              		.align	2
 858              	.L68:
 859 0148 00000000 		.word	SystemCoreClock
 860 014c D34D6210 		.word	274877907
 861 0150 08E0FFFD 		.word	-33562616
 862              		.cfi_endproc
 863              	.LFE163:
 865              		.section	.text.SDMMC_GetCmdResp6,"ax",%progbits
 866              		.align	2
 867              		.thumb
 868              		.thumb_func
 870              	SDMMC_GetCmdResp6:
 871              	.LFB166:
1387:Drivers/STM32F4xx_HAL_Driver/Src/stm32f4xx_ll_sdmmc.c ****   uint32_t response_r1;
 872              		.loc 1 1387 0
 873              		.cfi_startproc
 874              		@ args = 0, pretend = 0, frame = 0
 875              		@ frame_needed = 0, uses_anonymous_args = 0
 876              	.LVL86:
 877 0000 70B5     		push	{r4, r5, r6, lr}
 878              	.LCFI11:
 879              		.cfi_def_cfa_offset 16
 880              		.cfi_offset 4, -16
 881              		.cfi_offset 5, -12
 882              		.cfi_offset 6, -8
 883              		.cfi_offset 14, -4
1392:Drivers/STM32F4xx_HAL_Driver/Src/stm32f4xx_ll_sdmmc.c ****   
ARM GAS  /tmp/ccO3W952.s 			page 44


 884              		.loc 1 1392 0
 885 0002 254B     		ldr	r3, .L81
 886 0004 1B68     		ldr	r3, [r3]
 887 0006 254C     		ldr	r4, .L81+4
 888 0008 A4FB0343 		umull	r4, r3, r4, r3
 889 000c 5C0A     		lsrs	r4, r3, #9
 890 000e 41F28833 		movw	r3, #5000
 891 0012 03FB04F3 		mul	r3, r3, r4
 892              	.LVL87:
 893              	.L72:
1396:Drivers/STM32F4xx_HAL_Driver/Src/stm32f4xx_ll_sdmmc.c ****     {
 894              		.loc 1 1396 0
 895 0016 5C1E     		subs	r4, r3, #1
 896              	.LVL88:
 897 0018 93B3     		cbz	r3, .L76
1401:Drivers/STM32F4xx_HAL_Driver/Src/stm32f4xx_ll_sdmmc.c ****   
 898              		.loc 1 1401 0
 899 001a 456B     		ldr	r5, [r0, #52]
1396:Drivers/STM32F4xx_HAL_Driver/Src/stm32f4xx_ll_sdmmc.c ****     {
 900              		.loc 1 1396 0
 901 001c 2346     		mov	r3, r4
1401:Drivers/STM32F4xx_HAL_Driver/Src/stm32f4xx_ll_sdmmc.c ****   
 902              		.loc 1 1401 0
 903 001e 15F0450F 		tst	r5, #69
 904 0022 F8D0     		beq	.L72
1403:Drivers/STM32F4xx_HAL_Driver/Src/stm32f4xx_ll_sdmmc.c ****   {
 905              		.loc 1 1403 0
 906 0024 436B     		ldr	r3, [r0, #52]
 907 0026 13F0040F 		tst	r3, #4
 908 002a 03D0     		beq	.L73
1405:Drivers/STM32F4xx_HAL_Driver/Src/stm32f4xx_ll_sdmmc.c ****     
 909              		.loc 1 1405 0
 910 002c 0423     		movs	r3, #4
 911 002e 8363     		str	r3, [r0, #56]
1407:Drivers/STM32F4xx_HAL_Driver/Src/stm32f4xx_ll_sdmmc.c ****   }
 912              		.loc 1 1407 0
 913 0030 1846     		mov	r0, r3
 914              	.LVL89:
 915 0032 70BD     		pop	{r4, r5, r6, pc}
 916              	.LVL90:
 917              	.L73:
1409:Drivers/STM32F4xx_HAL_Driver/Src/stm32f4xx_ll_sdmmc.c ****   {
 918              		.loc 1 1409 0
 919 0034 436B     		ldr	r3, [r0, #52]
 920 0036 13F0010F 		tst	r3, #1
 921 003a 03D0     		beq	.L74
1411:Drivers/STM32F4xx_HAL_Driver/Src/stm32f4xx_ll_sdmmc.c ****     
 922              		.loc 1 1411 0
 923 003c 0123     		movs	r3, #1
 924 003e 8363     		str	r3, [r0, #56]
1413:Drivers/STM32F4xx_HAL_Driver/Src/stm32f4xx_ll_sdmmc.c ****   }
 925              		.loc 1 1413 0
 926 0040 1846     		mov	r0, r3
 927              	.LVL91:
 928 0042 70BD     		pop	{r4, r5, r6, pc}
 929              	.LVL92:
 930              	.L74:
ARM GAS  /tmp/ccO3W952.s 			page 45


 931 0044 1646     		mov	r6, r2
 932 0046 0D46     		mov	r5, r1
 933 0048 0446     		mov	r4, r0
 934              	.LVL93:
1417:Drivers/STM32F4xx_HAL_Driver/Src/stm32f4xx_ll_sdmmc.c ****   {
 935              		.loc 1 1417 0
 936 004a FFF7FEFF 		bl	SDIO_GetCommandResponse
 937              	.LVL94:
 938 004e A842     		cmp	r0, r5
 939 0050 19D1     		bne	.L77
1423:Drivers/STM32F4xx_HAL_Driver/Src/stm32f4xx_ll_sdmmc.c ****   
 940              		.loc 1 1423 0
 941 0052 40F2FF53 		movw	r3, #1535
 942 0056 A363     		str	r3, [r4, #56]
1426:Drivers/STM32F4xx_HAL_Driver/Src/stm32f4xx_ll_sdmmc.c ****   
 943              		.loc 1 1426 0
 944 0058 0021     		movs	r1, #0
 945 005a 2046     		mov	r0, r4
 946 005c FFF7FEFF 		bl	SDIO_GetResponse
 947              	.LVL95:
 948 0060 0346     		mov	r3, r0
 949              	.LVL96:
1428:Drivers/STM32F4xx_HAL_Driver/Src/stm32f4xx_ll_sdmmc.c ****   {
 950              		.loc 1 1428 0
 951 0062 10F46040 		ands	r0, r0, #57344
 952              	.LVL97:
 953 0066 02D1     		bne	.L75
1430:Drivers/STM32F4xx_HAL_Driver/Src/stm32f4xx_ll_sdmmc.c ****     
 954              		.loc 1 1430 0
 955 0068 1B0C     		lsrs	r3, r3, #16
 956              	.LVL98:
 957 006a 3380     		strh	r3, [r6]	@ movhi
1432:Drivers/STM32F4xx_HAL_Driver/Src/stm32f4xx_ll_sdmmc.c ****   }
 958              		.loc 1 1432 0
 959 006c 70BD     		pop	{r4, r5, r6, pc}
 960              	.LVL99:
 961              	.L75:
1434:Drivers/STM32F4xx_HAL_Driver/Src/stm32f4xx_ll_sdmmc.c ****   {
 962              		.loc 1 1434 0
 963 006e 13F4804F 		tst	r3, #16384
 964 0072 0AD1     		bne	.L78
1438:Drivers/STM32F4xx_HAL_Driver/Src/stm32f4xx_ll_sdmmc.c ****   {
 965              		.loc 1 1438 0
 966 0074 13F4004F 		tst	r3, #32768
 967 0078 0AD0     		beq	.L79
1440:Drivers/STM32F4xx_HAL_Driver/Src/stm32f4xx_ll_sdmmc.c ****   }
 968              		.loc 1 1440 0
 969 007a 4FF48050 		mov	r0, #4096
 970 007e 70BD     		pop	{r4, r5, r6, pc}
 971              	.LVL100:
 972              	.L76:
1398:Drivers/STM32F4xx_HAL_Driver/Src/stm32f4xx_ll_sdmmc.c ****     }
 973              		.loc 1 1398 0
 974 0080 4FF00040 		mov	r0, #-2147483648
 975              	.LVL101:
 976 0084 70BD     		pop	{r4, r5, r6, pc}
 977              	.LVL102:
ARM GAS  /tmp/ccO3W952.s 			page 46


 978              	.L77:
1419:Drivers/STM32F4xx_HAL_Driver/Src/stm32f4xx_ll_sdmmc.c ****   }
 979              		.loc 1 1419 0
 980 0086 0120     		movs	r0, #1
 981 0088 70BD     		pop	{r4, r5, r6, pc}
 982              	.LVL103:
 983              	.L78:
1436:Drivers/STM32F4xx_HAL_Driver/Src/stm32f4xx_ll_sdmmc.c ****   }
 984              		.loc 1 1436 0
 985 008a 4FF40050 		mov	r0, #8192
 986 008e 70BD     		pop	{r4, r5, r6, pc}
 987              	.LVL104:
 988              	.L79:
1444:Drivers/STM32F4xx_HAL_Driver/Src/stm32f4xx_ll_sdmmc.c ****   }
 989              		.loc 1 1444 0
 990 0090 4FF48030 		mov	r0, #65536
1446:Drivers/STM32F4xx_HAL_Driver/Src/stm32f4xx_ll_sdmmc.c **** 
 991              		.loc 1 1446 0
 992 0094 70BD     		pop	{r4, r5, r6, pc}
 993              	.LVL105:
 994              	.L82:
 995 0096 00BF     		.align	2
 996              	.L81:
 997 0098 00000000 		.word	SystemCoreClock
 998 009c D34D6210 		.word	274877907
 999              		.cfi_endproc
 1000              	.LFE166:
 1002              		.section	.text.SDIO_ConfigData,"ax",%progbits
 1003              		.align	2
 1004              		.global	SDIO_ConfigData
 1005              		.thumb
 1006              		.thumb_func
 1008              	SDIO_ConfigData:
 1009              	.LFB133:
 441:Drivers/STM32F4xx_HAL_Driver/Src/stm32f4xx_ll_sdmmc.c ****   uint32_t tmpreg = 0U;
 1010              		.loc 1 441 0
 1011              		.cfi_startproc
 1012              		@ args = 0, pretend = 0, frame = 0
 1013              		@ frame_needed = 0, uses_anonymous_args = 0
 1014              		@ link register save eliminated.
 1015              	.LVL106:
 452:Drivers/STM32F4xx_HAL_Driver/Src/stm32f4xx_ll_sdmmc.c **** 
 1016              		.loc 1 452 0
 1017 0000 0B68     		ldr	r3, [r1]
 1018 0002 4362     		str	r3, [r0, #36]
 455:Drivers/STM32F4xx_HAL_Driver/Src/stm32f4xx_ll_sdmmc.c **** 
 1019              		.loc 1 455 0
 1020 0004 4B68     		ldr	r3, [r1, #4]
 1021 0006 8362     		str	r3, [r0, #40]
 458:Drivers/STM32F4xx_HAL_Driver/Src/stm32f4xx_ll_sdmmc.c ****                        Data->TransferDir   |\
 1022              		.loc 1 458 0
 1023 0008 8A68     		ldr	r2, [r1, #8]
 459:Drivers/STM32F4xx_HAL_Driver/Src/stm32f4xx_ll_sdmmc.c ****                        Data->TransferMode  |\
 1024              		.loc 1 459 0
 1025 000a CB68     		ldr	r3, [r1, #12]
 458:Drivers/STM32F4xx_HAL_Driver/Src/stm32f4xx_ll_sdmmc.c ****                        Data->TransferDir   |\
 1026              		.loc 1 458 0
ARM GAS  /tmp/ccO3W952.s 			page 47


 1027 000c 1A43     		orrs	r2, r2, r3
 460:Drivers/STM32F4xx_HAL_Driver/Src/stm32f4xx_ll_sdmmc.c ****                        Data->DPSM);
 1028              		.loc 1 460 0
 1029 000e 0B69     		ldr	r3, [r1, #16]
 459:Drivers/STM32F4xx_HAL_Driver/Src/stm32f4xx_ll_sdmmc.c ****                        Data->TransferMode  |\
 1030              		.loc 1 459 0
 1031 0010 1343     		orrs	r3, r3, r2
 461:Drivers/STM32F4xx_HAL_Driver/Src/stm32f4xx_ll_sdmmc.c ****   
 1032              		.loc 1 461 0
 1033 0012 4A69     		ldr	r2, [r1, #20]
 460:Drivers/STM32F4xx_HAL_Driver/Src/stm32f4xx_ll_sdmmc.c ****                        Data->DPSM);
 1034              		.loc 1 460 0
 1035 0014 1A43     		orrs	r2, r2, r3
 1036              	.LVL107:
 464:Drivers/STM32F4xx_HAL_Driver/Src/stm32f4xx_ll_sdmmc.c **** 
 1037              		.loc 1 464 0
 1038 0016 C36A     		ldr	r3, [r0, #44]
 1039 0018 23F0F703 		bic	r3, r3, #247
 1040 001c 1343     		orrs	r3, r3, r2
 1041 001e C362     		str	r3, [r0, #44]
 468:Drivers/STM32F4xx_HAL_Driver/Src/stm32f4xx_ll_sdmmc.c **** 
 1042              		.loc 1 468 0
 1043 0020 0020     		movs	r0, #0
 1044              	.LVL108:
 1045 0022 7047     		bx	lr
 1046              		.cfi_endproc
 1047              	.LFE133:
 1049              		.section	.text.SDIO_GetDataCounter,"ax",%progbits
 1050              		.align	2
 1051              		.global	SDIO_GetDataCounter
 1052              		.thumb
 1053              		.thumb_func
 1055              	SDIO_GetDataCounter:
 1056              	.LFB134:
 476:Drivers/STM32F4xx_HAL_Driver/Src/stm32f4xx_ll_sdmmc.c ****   return (SDIOx->DCOUNT);
 1057              		.loc 1 476 0
 1058              		.cfi_startproc
 1059              		@ args = 0, pretend = 0, frame = 0
 1060              		@ frame_needed = 0, uses_anonymous_args = 0
 1061              		@ link register save eliminated.
 1062              	.LVL109:
 477:Drivers/STM32F4xx_HAL_Driver/Src/stm32f4xx_ll_sdmmc.c **** }
 1063              		.loc 1 477 0
 1064 0000 006B     		ldr	r0, [r0, #48]
 1065              	.LVL110:
 478:Drivers/STM32F4xx_HAL_Driver/Src/stm32f4xx_ll_sdmmc.c **** 
 1066              		.loc 1 478 0
 1067 0002 7047     		bx	lr
 1068              		.cfi_endproc
 1069              	.LFE134:
 1071              		.section	.text.SDIO_GetFIFOCount,"ax",%progbits
 1072              		.align	2
 1073              		.global	SDIO_GetFIFOCount
 1074              		.thumb
 1075              		.thumb_func
 1077              	SDIO_GetFIFOCount:
 1078              	.LFB135:
ARM GAS  /tmp/ccO3W952.s 			page 48


 486:Drivers/STM32F4xx_HAL_Driver/Src/stm32f4xx_ll_sdmmc.c ****   return (SDIOx->FIFO);
 1079              		.loc 1 486 0
 1080              		.cfi_startproc
 1081              		@ args = 0, pretend = 0, frame = 0
 1082              		@ frame_needed = 0, uses_anonymous_args = 0
 1083              		@ link register save eliminated.
 1084              	.LVL111:
 487:Drivers/STM32F4xx_HAL_Driver/Src/stm32f4xx_ll_sdmmc.c **** }
 1085              		.loc 1 487 0
 1086 0000 D0F88000 		ldr	r0, [r0, #128]
 1087              	.LVL112:
 488:Drivers/STM32F4xx_HAL_Driver/Src/stm32f4xx_ll_sdmmc.c **** 
 1088              		.loc 1 488 0
 1089 0004 7047     		bx	lr
 1090              		.cfi_endproc
 1091              	.LFE135:
 1093 0006 00BF     		.section	.text.SDIO_SetSDMMCReadWaitMode,"ax",%progbits
 1094              		.align	2
 1095              		.global	SDIO_SetSDMMCReadWaitMode
 1096              		.thumb
 1097              		.thumb_func
 1099              	SDIO_SetSDMMCReadWaitMode:
 1100              	.LFB136:
 500:Drivers/STM32F4xx_HAL_Driver/Src/stm32f4xx_ll_sdmmc.c ****   /* Check the parameters */
 1101              		.loc 1 500 0
 1102              		.cfi_startproc
 1103              		@ args = 0, pretend = 0, frame = 0
 1104              		@ frame_needed = 0, uses_anonymous_args = 0
 1105              		@ link register save eliminated.
 1106              	.LVL113:
 505:Drivers/STM32F4xx_HAL_Driver/Src/stm32f4xx_ll_sdmmc.c ****   
 1107              		.loc 1 505 0
 1108 0000 C36A     		ldr	r3, [r0, #44]
 1109 0002 23F48063 		bic	r3, r3, #1024
 1110 0006 1943     		orrs	r1, r1, r3
 1111              	.LVL114:
 1112 0008 C162     		str	r1, [r0, #44]
 508:Drivers/STM32F4xx_HAL_Driver/Src/stm32f4xx_ll_sdmmc.c **** 
 1113              		.loc 1 508 0
 1114 000a 0020     		movs	r0, #0
 1115              	.LVL115:
 1116 000c 7047     		bx	lr
 1117              		.cfi_endproc
 1118              	.LFE136:
 1120 000e 00BF     		.section	.text.SDMMC_CmdBlockLength,"ax",%progbits
 1121              		.align	2
 1122              		.global	SDMMC_CmdBlockLength
 1123              		.thumb
 1124              		.thumb_func
 1126              	SDMMC_CmdBlockLength:
 1127              	.LFB137:
 535:Drivers/STM32F4xx_HAL_Driver/Src/stm32f4xx_ll_sdmmc.c ****   SDIO_CmdInitTypeDef  sdmmc_cmdinit;
 1128              		.loc 1 535 0
 1129              		.cfi_startproc
 1130              		@ args = 0, pretend = 0, frame = 24
 1131              		@ frame_needed = 0, uses_anonymous_args = 0
 1132              	.LVL116:
ARM GAS  /tmp/ccO3W952.s 			page 49


 1133 0000 30B5     		push	{r4, r5, lr}
 1134              	.LCFI12:
 1135              		.cfi_def_cfa_offset 12
 1136              		.cfi_offset 4, -12
 1137              		.cfi_offset 5, -8
 1138              		.cfi_offset 14, -4
 1139 0002 87B0     		sub	sp, sp, #28
 1140              	.LCFI13:
 1141              		.cfi_def_cfa_offset 40
 1142 0004 0546     		mov	r5, r0
 1143              	.LVL117:
 540:Drivers/STM32F4xx_HAL_Driver/Src/stm32f4xx_ll_sdmmc.c ****   sdmmc_cmdinit.CmdIndex         = SDMMC_CMD_SET_BLOCKLEN;
 1144              		.loc 1 540 0
 1145 0006 0191     		str	r1, [sp, #4]
 541:Drivers/STM32F4xx_HAL_Driver/Src/stm32f4xx_ll_sdmmc.c ****   sdmmc_cmdinit.Response         = SDIO_RESPONSE_SHORT;
 1146              		.loc 1 541 0
 1147 0008 1024     		movs	r4, #16
 1148 000a 0294     		str	r4, [sp, #8]
 542:Drivers/STM32F4xx_HAL_Driver/Src/stm32f4xx_ll_sdmmc.c ****   sdmmc_cmdinit.WaitForInterrupt = SDIO_WAIT_NO;
 1149              		.loc 1 542 0
 1150 000c 4023     		movs	r3, #64
 1151 000e 0393     		str	r3, [sp, #12]
 543:Drivers/STM32F4xx_HAL_Driver/Src/stm32f4xx_ll_sdmmc.c ****   sdmmc_cmdinit.CPSM             = SDIO_CPSM_ENABLE;
 1152              		.loc 1 543 0
 1153 0010 0023     		movs	r3, #0
 1154 0012 0493     		str	r3, [sp, #16]
 544:Drivers/STM32F4xx_HAL_Driver/Src/stm32f4xx_ll_sdmmc.c ****   SDIO_SendCommand(SDIOx, &sdmmc_cmdinit);
 1155              		.loc 1 544 0
 1156 0014 4FF48063 		mov	r3, #1024
 1157 0018 0593     		str	r3, [sp, #20]
 545:Drivers/STM32F4xx_HAL_Driver/Src/stm32f4xx_ll_sdmmc.c ****   
 1158              		.loc 1 545 0
 1159 001a 01A9     		add	r1, sp, #4
 1160              	.LVL118:
 1161 001c FFF7FEFF 		bl	SDIO_SendCommand
 1162              	.LVL119:
 548:Drivers/STM32F4xx_HAL_Driver/Src/stm32f4xx_ll_sdmmc.c **** 
 1163              		.loc 1 548 0
 1164 0020 41F28832 		movw	r2, #5000
 1165 0024 2146     		mov	r1, r4
 1166 0026 2846     		mov	r0, r5
 1167 0028 FFF7FEFF 		bl	SDMMC_GetCmdResp1
 1168              	.LVL120:
 551:Drivers/STM32F4xx_HAL_Driver/Src/stm32f4xx_ll_sdmmc.c **** 
 1169              		.loc 1 551 0
 1170 002c 07B0     		add	sp, sp, #28
 1171              	.LCFI14:
 1172              		.cfi_def_cfa_offset 12
 1173              		@ sp needed
 1174 002e 30BD     		pop	{r4, r5, pc}
 1175              		.cfi_endproc
 1176              	.LFE137:
 1178              		.section	.text.SDMMC_CmdReadSingleBlock,"ax",%progbits
 1179              		.align	2
 1180              		.global	SDMMC_CmdReadSingleBlock
 1181              		.thumb
 1182              		.thumb_func
ARM GAS  /tmp/ccO3W952.s 			page 50


 1184              	SDMMC_CmdReadSingleBlock:
 1185              	.LFB138:
 559:Drivers/STM32F4xx_HAL_Driver/Src/stm32f4xx_ll_sdmmc.c ****   SDIO_CmdInitTypeDef  sdmmc_cmdinit;
 1186              		.loc 1 559 0
 1187              		.cfi_startproc
 1188              		@ args = 0, pretend = 0, frame = 24
 1189              		@ frame_needed = 0, uses_anonymous_args = 0
 1190              	.LVL121:
 1191 0000 30B5     		push	{r4, r5, lr}
 1192              	.LCFI15:
 1193              		.cfi_def_cfa_offset 12
 1194              		.cfi_offset 4, -12
 1195              		.cfi_offset 5, -8
 1196              		.cfi_offset 14, -4
 1197 0002 87B0     		sub	sp, sp, #28
 1198              	.LCFI16:
 1199              		.cfi_def_cfa_offset 40
 1200 0004 0546     		mov	r5, r0
 1201              	.LVL122:
 564:Drivers/STM32F4xx_HAL_Driver/Src/stm32f4xx_ll_sdmmc.c ****   sdmmc_cmdinit.CmdIndex         = SDMMC_CMD_READ_SINGLE_BLOCK;
 1202              		.loc 1 564 0
 1203 0006 0191     		str	r1, [sp, #4]
 565:Drivers/STM32F4xx_HAL_Driver/Src/stm32f4xx_ll_sdmmc.c ****   sdmmc_cmdinit.Response         = SDIO_RESPONSE_SHORT;
 1204              		.loc 1 565 0
 1205 0008 1124     		movs	r4, #17
 1206 000a 0294     		str	r4, [sp, #8]
 566:Drivers/STM32F4xx_HAL_Driver/Src/stm32f4xx_ll_sdmmc.c ****   sdmmc_cmdinit.WaitForInterrupt = SDIO_WAIT_NO;
 1207              		.loc 1 566 0
 1208 000c 4023     		movs	r3, #64
 1209 000e 0393     		str	r3, [sp, #12]
 567:Drivers/STM32F4xx_HAL_Driver/Src/stm32f4xx_ll_sdmmc.c ****   sdmmc_cmdinit.CPSM             = SDIO_CPSM_ENABLE;
 1210              		.loc 1 567 0
 1211 0010 0023     		movs	r3, #0
 1212 0012 0493     		str	r3, [sp, #16]
 568:Drivers/STM32F4xx_HAL_Driver/Src/stm32f4xx_ll_sdmmc.c ****   SDIO_SendCommand(SDIOx, &sdmmc_cmdinit);
 1213              		.loc 1 568 0
 1214 0014 4FF48063 		mov	r3, #1024
 1215 0018 0593     		str	r3, [sp, #20]
 569:Drivers/STM32F4xx_HAL_Driver/Src/stm32f4xx_ll_sdmmc.c ****   
 1216              		.loc 1 569 0
 1217 001a 01A9     		add	r1, sp, #4
 1218              	.LVL123:
 1219 001c FFF7FEFF 		bl	SDIO_SendCommand
 1220              	.LVL124:
 572:Drivers/STM32F4xx_HAL_Driver/Src/stm32f4xx_ll_sdmmc.c **** 
 1221              		.loc 1 572 0
 1222 0020 41F28832 		movw	r2, #5000
 1223 0024 2146     		mov	r1, r4
 1224 0026 2846     		mov	r0, r5
 1225 0028 FFF7FEFF 		bl	SDMMC_GetCmdResp1
 1226              	.LVL125:
 575:Drivers/STM32F4xx_HAL_Driver/Src/stm32f4xx_ll_sdmmc.c **** 
 1227              		.loc 1 575 0
 1228 002c 07B0     		add	sp, sp, #28
 1229              	.LCFI17:
 1230              		.cfi_def_cfa_offset 12
 1231              		@ sp needed
ARM GAS  /tmp/ccO3W952.s 			page 51


 1232 002e 30BD     		pop	{r4, r5, pc}
 1233              		.cfi_endproc
 1234              	.LFE138:
 1236              		.section	.text.SDMMC_CmdReadMultiBlock,"ax",%progbits
 1237              		.align	2
 1238              		.global	SDMMC_CmdReadMultiBlock
 1239              		.thumb
 1240              		.thumb_func
 1242              	SDMMC_CmdReadMultiBlock:
 1243              	.LFB139:
 583:Drivers/STM32F4xx_HAL_Driver/Src/stm32f4xx_ll_sdmmc.c ****   SDIO_CmdInitTypeDef  sdmmc_cmdinit;
 1244              		.loc 1 583 0
 1245              		.cfi_startproc
 1246              		@ args = 0, pretend = 0, frame = 24
 1247              		@ frame_needed = 0, uses_anonymous_args = 0
 1248              	.LVL126:
 1249 0000 30B5     		push	{r4, r5, lr}
 1250              	.LCFI18:
 1251              		.cfi_def_cfa_offset 12
 1252              		.cfi_offset 4, -12
 1253              		.cfi_offset 5, -8
 1254              		.cfi_offset 14, -4
 1255 0002 87B0     		sub	sp, sp, #28
 1256              	.LCFI19:
 1257              		.cfi_def_cfa_offset 40
 1258 0004 0546     		mov	r5, r0
 1259              	.LVL127:
 588:Drivers/STM32F4xx_HAL_Driver/Src/stm32f4xx_ll_sdmmc.c ****   sdmmc_cmdinit.CmdIndex         = SDMMC_CMD_READ_MULT_BLOCK;
 1260              		.loc 1 588 0
 1261 0006 0191     		str	r1, [sp, #4]
 589:Drivers/STM32F4xx_HAL_Driver/Src/stm32f4xx_ll_sdmmc.c ****   sdmmc_cmdinit.Response         = SDIO_RESPONSE_SHORT;
 1262              		.loc 1 589 0
 1263 0008 1224     		movs	r4, #18
 1264 000a 0294     		str	r4, [sp, #8]
 590:Drivers/STM32F4xx_HAL_Driver/Src/stm32f4xx_ll_sdmmc.c ****   sdmmc_cmdinit.WaitForInterrupt = SDIO_WAIT_NO;
 1265              		.loc 1 590 0
 1266 000c 4023     		movs	r3, #64
 1267 000e 0393     		str	r3, [sp, #12]
 591:Drivers/STM32F4xx_HAL_Driver/Src/stm32f4xx_ll_sdmmc.c ****   sdmmc_cmdinit.CPSM             = SDIO_CPSM_ENABLE;
 1268              		.loc 1 591 0
 1269 0010 0023     		movs	r3, #0
 1270 0012 0493     		str	r3, [sp, #16]
 592:Drivers/STM32F4xx_HAL_Driver/Src/stm32f4xx_ll_sdmmc.c ****   SDIO_SendCommand(SDIOx, &sdmmc_cmdinit);
 1271              		.loc 1 592 0
 1272 0014 4FF48063 		mov	r3, #1024
 1273 0018 0593     		str	r3, [sp, #20]
 593:Drivers/STM32F4xx_HAL_Driver/Src/stm32f4xx_ll_sdmmc.c ****   
 1274              		.loc 1 593 0
 1275 001a 01A9     		add	r1, sp, #4
 1276              	.LVL128:
 1277 001c FFF7FEFF 		bl	SDIO_SendCommand
 1278              	.LVL129:
 596:Drivers/STM32F4xx_HAL_Driver/Src/stm32f4xx_ll_sdmmc.c **** 
 1279              		.loc 1 596 0
 1280 0020 41F28832 		movw	r2, #5000
 1281 0024 2146     		mov	r1, r4
 1282 0026 2846     		mov	r0, r5
ARM GAS  /tmp/ccO3W952.s 			page 52


 1283 0028 FFF7FEFF 		bl	SDMMC_GetCmdResp1
 1284              	.LVL130:
 599:Drivers/STM32F4xx_HAL_Driver/Src/stm32f4xx_ll_sdmmc.c **** 
 1285              		.loc 1 599 0
 1286 002c 07B0     		add	sp, sp, #28
 1287              	.LCFI20:
 1288              		.cfi_def_cfa_offset 12
 1289              		@ sp needed
 1290 002e 30BD     		pop	{r4, r5, pc}
 1291              		.cfi_endproc
 1292              	.LFE139:
 1294              		.section	.text.SDMMC_CmdWriteSingleBlock,"ax",%progbits
 1295              		.align	2
 1296              		.global	SDMMC_CmdWriteSingleBlock
 1297              		.thumb
 1298              		.thumb_func
 1300              	SDMMC_CmdWriteSingleBlock:
 1301              	.LFB140:
 607:Drivers/STM32F4xx_HAL_Driver/Src/stm32f4xx_ll_sdmmc.c ****   SDIO_CmdInitTypeDef  sdmmc_cmdinit;
 1302              		.loc 1 607 0
 1303              		.cfi_startproc
 1304              		@ args = 0, pretend = 0, frame = 24
 1305              		@ frame_needed = 0, uses_anonymous_args = 0
 1306              	.LVL131:
 1307 0000 30B5     		push	{r4, r5, lr}
 1308              	.LCFI21:
 1309              		.cfi_def_cfa_offset 12
 1310              		.cfi_offset 4, -12
 1311              		.cfi_offset 5, -8
 1312              		.cfi_offset 14, -4
 1313 0002 87B0     		sub	sp, sp, #28
 1314              	.LCFI22:
 1315              		.cfi_def_cfa_offset 40
 1316 0004 0546     		mov	r5, r0
 1317              	.LVL132:
 612:Drivers/STM32F4xx_HAL_Driver/Src/stm32f4xx_ll_sdmmc.c ****   sdmmc_cmdinit.CmdIndex         = SDMMC_CMD_WRITE_SINGLE_BLOCK;
 1318              		.loc 1 612 0
 1319 0006 0191     		str	r1, [sp, #4]
 613:Drivers/STM32F4xx_HAL_Driver/Src/stm32f4xx_ll_sdmmc.c ****   sdmmc_cmdinit.Response         = SDIO_RESPONSE_SHORT;
 1320              		.loc 1 613 0
 1321 0008 1824     		movs	r4, #24
 1322 000a 0294     		str	r4, [sp, #8]
 614:Drivers/STM32F4xx_HAL_Driver/Src/stm32f4xx_ll_sdmmc.c ****   sdmmc_cmdinit.WaitForInterrupt = SDIO_WAIT_NO;
 1323              		.loc 1 614 0
 1324 000c 4023     		movs	r3, #64
 1325 000e 0393     		str	r3, [sp, #12]
 615:Drivers/STM32F4xx_HAL_Driver/Src/stm32f4xx_ll_sdmmc.c ****   sdmmc_cmdinit.CPSM             = SDIO_CPSM_ENABLE;
 1326              		.loc 1 615 0
 1327 0010 0023     		movs	r3, #0
 1328 0012 0493     		str	r3, [sp, #16]
 616:Drivers/STM32F4xx_HAL_Driver/Src/stm32f4xx_ll_sdmmc.c ****   SDIO_SendCommand(SDIOx, &sdmmc_cmdinit);
 1329              		.loc 1 616 0
 1330 0014 4FF48063 		mov	r3, #1024
 1331 0018 0593     		str	r3, [sp, #20]
 617:Drivers/STM32F4xx_HAL_Driver/Src/stm32f4xx_ll_sdmmc.c ****   
 1332              		.loc 1 617 0
 1333 001a 01A9     		add	r1, sp, #4
ARM GAS  /tmp/ccO3W952.s 			page 53


 1334              	.LVL133:
 1335 001c FFF7FEFF 		bl	SDIO_SendCommand
 1336              	.LVL134:
 620:Drivers/STM32F4xx_HAL_Driver/Src/stm32f4xx_ll_sdmmc.c **** 
 1337              		.loc 1 620 0
 1338 0020 41F28832 		movw	r2, #5000
 1339 0024 2146     		mov	r1, r4
 1340 0026 2846     		mov	r0, r5
 1341 0028 FFF7FEFF 		bl	SDMMC_GetCmdResp1
 1342              	.LVL135:
 623:Drivers/STM32F4xx_HAL_Driver/Src/stm32f4xx_ll_sdmmc.c **** 
 1343              		.loc 1 623 0
 1344 002c 07B0     		add	sp, sp, #28
 1345              	.LCFI23:
 1346              		.cfi_def_cfa_offset 12
 1347              		@ sp needed
 1348 002e 30BD     		pop	{r4, r5, pc}
 1349              		.cfi_endproc
 1350              	.LFE140:
 1352              		.section	.text.SDMMC_CmdWriteMultiBlock,"ax",%progbits
 1353              		.align	2
 1354              		.global	SDMMC_CmdWriteMultiBlock
 1355              		.thumb
 1356              		.thumb_func
 1358              	SDMMC_CmdWriteMultiBlock:
 1359              	.LFB141:
 631:Drivers/STM32F4xx_HAL_Driver/Src/stm32f4xx_ll_sdmmc.c ****   SDIO_CmdInitTypeDef  sdmmc_cmdinit;
 1360              		.loc 1 631 0
 1361              		.cfi_startproc
 1362              		@ args = 0, pretend = 0, frame = 24
 1363              		@ frame_needed = 0, uses_anonymous_args = 0
 1364              	.LVL136:
 1365 0000 30B5     		push	{r4, r5, lr}
 1366              	.LCFI24:
 1367              		.cfi_def_cfa_offset 12
 1368              		.cfi_offset 4, -12
 1369              		.cfi_offset 5, -8
 1370              		.cfi_offset 14, -4
 1371 0002 87B0     		sub	sp, sp, #28
 1372              	.LCFI25:
 1373              		.cfi_def_cfa_offset 40
 1374 0004 0546     		mov	r5, r0
 1375              	.LVL137:
 636:Drivers/STM32F4xx_HAL_Driver/Src/stm32f4xx_ll_sdmmc.c ****   sdmmc_cmdinit.CmdIndex         = SDMMC_CMD_WRITE_MULT_BLOCK;
 1376              		.loc 1 636 0
 1377 0006 0191     		str	r1, [sp, #4]
 637:Drivers/STM32F4xx_HAL_Driver/Src/stm32f4xx_ll_sdmmc.c ****   sdmmc_cmdinit.Response         = SDIO_RESPONSE_SHORT;
 1378              		.loc 1 637 0
 1379 0008 1924     		movs	r4, #25
 1380 000a 0294     		str	r4, [sp, #8]
 638:Drivers/STM32F4xx_HAL_Driver/Src/stm32f4xx_ll_sdmmc.c ****   sdmmc_cmdinit.WaitForInterrupt = SDIO_WAIT_NO;
 1381              		.loc 1 638 0
 1382 000c 4023     		movs	r3, #64
 1383 000e 0393     		str	r3, [sp, #12]
 639:Drivers/STM32F4xx_HAL_Driver/Src/stm32f4xx_ll_sdmmc.c ****   sdmmc_cmdinit.CPSM             = SDIO_CPSM_ENABLE;
 1384              		.loc 1 639 0
 1385 0010 0023     		movs	r3, #0
ARM GAS  /tmp/ccO3W952.s 			page 54


 1386 0012 0493     		str	r3, [sp, #16]
 640:Drivers/STM32F4xx_HAL_Driver/Src/stm32f4xx_ll_sdmmc.c ****   SDIO_SendCommand(SDIOx, &sdmmc_cmdinit);
 1387              		.loc 1 640 0
 1388 0014 4FF48063 		mov	r3, #1024
 1389 0018 0593     		str	r3, [sp, #20]
 641:Drivers/STM32F4xx_HAL_Driver/Src/stm32f4xx_ll_sdmmc.c ****   
 1390              		.loc 1 641 0
 1391 001a 01A9     		add	r1, sp, #4
 1392              	.LVL138:
 1393 001c FFF7FEFF 		bl	SDIO_SendCommand
 1394              	.LVL139:
 644:Drivers/STM32F4xx_HAL_Driver/Src/stm32f4xx_ll_sdmmc.c **** 
 1395              		.loc 1 644 0
 1396 0020 41F28832 		movw	r2, #5000
 1397 0024 2146     		mov	r1, r4
 1398 0026 2846     		mov	r0, r5
 1399 0028 FFF7FEFF 		bl	SDMMC_GetCmdResp1
 1400              	.LVL140:
 647:Drivers/STM32F4xx_HAL_Driver/Src/stm32f4xx_ll_sdmmc.c **** 
 1401              		.loc 1 647 0
 1402 002c 07B0     		add	sp, sp, #28
 1403              	.LCFI26:
 1404              		.cfi_def_cfa_offset 12
 1405              		@ sp needed
 1406 002e 30BD     		pop	{r4, r5, pc}
 1407              		.cfi_endproc
 1408              	.LFE141:
 1410              		.section	.text.SDMMC_CmdSDEraseStartAdd,"ax",%progbits
 1411              		.align	2
 1412              		.global	SDMMC_CmdSDEraseStartAdd
 1413              		.thumb
 1414              		.thumb_func
 1416              	SDMMC_CmdSDEraseStartAdd:
 1417              	.LFB142:
 655:Drivers/STM32F4xx_HAL_Driver/Src/stm32f4xx_ll_sdmmc.c ****   SDIO_CmdInitTypeDef  sdmmc_cmdinit;
 1418              		.loc 1 655 0
 1419              		.cfi_startproc
 1420              		@ args = 0, pretend = 0, frame = 24
 1421              		@ frame_needed = 0, uses_anonymous_args = 0
 1422              	.LVL141:
 1423 0000 30B5     		push	{r4, r5, lr}
 1424              	.LCFI27:
 1425              		.cfi_def_cfa_offset 12
 1426              		.cfi_offset 4, -12
 1427              		.cfi_offset 5, -8
 1428              		.cfi_offset 14, -4
 1429 0002 87B0     		sub	sp, sp, #28
 1430              	.LCFI28:
 1431              		.cfi_def_cfa_offset 40
 1432 0004 0546     		mov	r5, r0
 1433              	.LVL142:
 660:Drivers/STM32F4xx_HAL_Driver/Src/stm32f4xx_ll_sdmmc.c ****   sdmmc_cmdinit.CmdIndex         = SDMMC_CMD_SD_ERASE_GRP_START;
 1434              		.loc 1 660 0
 1435 0006 0191     		str	r1, [sp, #4]
 661:Drivers/STM32F4xx_HAL_Driver/Src/stm32f4xx_ll_sdmmc.c ****   sdmmc_cmdinit.Response         = SDIO_RESPONSE_SHORT;
 1436              		.loc 1 661 0
 1437 0008 2024     		movs	r4, #32
ARM GAS  /tmp/ccO3W952.s 			page 55


 1438 000a 0294     		str	r4, [sp, #8]
 662:Drivers/STM32F4xx_HAL_Driver/Src/stm32f4xx_ll_sdmmc.c ****   sdmmc_cmdinit.WaitForInterrupt = SDIO_WAIT_NO;
 1439              		.loc 1 662 0
 1440 000c 4023     		movs	r3, #64
 1441 000e 0393     		str	r3, [sp, #12]
 663:Drivers/STM32F4xx_HAL_Driver/Src/stm32f4xx_ll_sdmmc.c ****   sdmmc_cmdinit.CPSM             = SDIO_CPSM_ENABLE;
 1442              		.loc 1 663 0
 1443 0010 0023     		movs	r3, #0
 1444 0012 0493     		str	r3, [sp, #16]
 664:Drivers/STM32F4xx_HAL_Driver/Src/stm32f4xx_ll_sdmmc.c ****   SDIO_SendCommand(SDIOx, &sdmmc_cmdinit);
 1445              		.loc 1 664 0
 1446 0014 4FF48063 		mov	r3, #1024
 1447 0018 0593     		str	r3, [sp, #20]
 665:Drivers/STM32F4xx_HAL_Driver/Src/stm32f4xx_ll_sdmmc.c ****   
 1448              		.loc 1 665 0
 1449 001a 01A9     		add	r1, sp, #4
 1450              	.LVL143:
 1451 001c FFF7FEFF 		bl	SDIO_SendCommand
 1452              	.LVL144:
 668:Drivers/STM32F4xx_HAL_Driver/Src/stm32f4xx_ll_sdmmc.c **** 
 1453              		.loc 1 668 0
 1454 0020 41F28832 		movw	r2, #5000
 1455 0024 2146     		mov	r1, r4
 1456 0026 2846     		mov	r0, r5
 1457 0028 FFF7FEFF 		bl	SDMMC_GetCmdResp1
 1458              	.LVL145:
 671:Drivers/STM32F4xx_HAL_Driver/Src/stm32f4xx_ll_sdmmc.c **** 
 1459              		.loc 1 671 0
 1460 002c 07B0     		add	sp, sp, #28
 1461              	.LCFI29:
 1462              		.cfi_def_cfa_offset 12
 1463              		@ sp needed
 1464 002e 30BD     		pop	{r4, r5, pc}
 1465              		.cfi_endproc
 1466              	.LFE142:
 1468              		.section	.text.SDMMC_CmdSDEraseEndAdd,"ax",%progbits
 1469              		.align	2
 1470              		.global	SDMMC_CmdSDEraseEndAdd
 1471              		.thumb
 1472              		.thumb_func
 1474              	SDMMC_CmdSDEraseEndAdd:
 1475              	.LFB143:
 679:Drivers/STM32F4xx_HAL_Driver/Src/stm32f4xx_ll_sdmmc.c ****   SDIO_CmdInitTypeDef  sdmmc_cmdinit;
 1476              		.loc 1 679 0
 1477              		.cfi_startproc
 1478              		@ args = 0, pretend = 0, frame = 24
 1479              		@ frame_needed = 0, uses_anonymous_args = 0
 1480              	.LVL146:
 1481 0000 30B5     		push	{r4, r5, lr}
 1482              	.LCFI30:
 1483              		.cfi_def_cfa_offset 12
 1484              		.cfi_offset 4, -12
 1485              		.cfi_offset 5, -8
 1486              		.cfi_offset 14, -4
 1487 0002 87B0     		sub	sp, sp, #28
 1488              	.LCFI31:
 1489              		.cfi_def_cfa_offset 40
ARM GAS  /tmp/ccO3W952.s 			page 56


 1490 0004 0546     		mov	r5, r0
 1491              	.LVL147:
 684:Drivers/STM32F4xx_HAL_Driver/Src/stm32f4xx_ll_sdmmc.c ****   sdmmc_cmdinit.CmdIndex         = SDMMC_CMD_SD_ERASE_GRP_END;
 1492              		.loc 1 684 0
 1493 0006 0191     		str	r1, [sp, #4]
 685:Drivers/STM32F4xx_HAL_Driver/Src/stm32f4xx_ll_sdmmc.c ****   sdmmc_cmdinit.Response         = SDIO_RESPONSE_SHORT;
 1494              		.loc 1 685 0
 1495 0008 2124     		movs	r4, #33
 1496 000a 0294     		str	r4, [sp, #8]
 686:Drivers/STM32F4xx_HAL_Driver/Src/stm32f4xx_ll_sdmmc.c ****   sdmmc_cmdinit.WaitForInterrupt = SDIO_WAIT_NO;
 1497              		.loc 1 686 0
 1498 000c 4023     		movs	r3, #64
 1499 000e 0393     		str	r3, [sp, #12]
 687:Drivers/STM32F4xx_HAL_Driver/Src/stm32f4xx_ll_sdmmc.c ****   sdmmc_cmdinit.CPSM             = SDIO_CPSM_ENABLE;
 1500              		.loc 1 687 0
 1501 0010 0023     		movs	r3, #0
 1502 0012 0493     		str	r3, [sp, #16]
 688:Drivers/STM32F4xx_HAL_Driver/Src/stm32f4xx_ll_sdmmc.c ****   SDIO_SendCommand(SDIOx, &sdmmc_cmdinit);
 1503              		.loc 1 688 0
 1504 0014 4FF48063 		mov	r3, #1024
 1505 0018 0593     		str	r3, [sp, #20]
 689:Drivers/STM32F4xx_HAL_Driver/Src/stm32f4xx_ll_sdmmc.c ****   
 1506              		.loc 1 689 0
 1507 001a 01A9     		add	r1, sp, #4
 1508              	.LVL148:
 1509 001c FFF7FEFF 		bl	SDIO_SendCommand
 1510              	.LVL149:
 692:Drivers/STM32F4xx_HAL_Driver/Src/stm32f4xx_ll_sdmmc.c **** 
 1511              		.loc 1 692 0
 1512 0020 41F28832 		movw	r2, #5000
 1513 0024 2146     		mov	r1, r4
 1514 0026 2846     		mov	r0, r5
 1515 0028 FFF7FEFF 		bl	SDMMC_GetCmdResp1
 1516              	.LVL150:
 695:Drivers/STM32F4xx_HAL_Driver/Src/stm32f4xx_ll_sdmmc.c **** 
 1517              		.loc 1 695 0
 1518 002c 07B0     		add	sp, sp, #28
 1519              	.LCFI32:
 1520              		.cfi_def_cfa_offset 12
 1521              		@ sp needed
 1522 002e 30BD     		pop	{r4, r5, pc}
 1523              		.cfi_endproc
 1524              	.LFE143:
 1526              		.section	.text.SDMMC_CmdEraseStartAdd,"ax",%progbits
 1527              		.align	2
 1528              		.global	SDMMC_CmdEraseStartAdd
 1529              		.thumb
 1530              		.thumb_func
 1532              	SDMMC_CmdEraseStartAdd:
 1533              	.LFB144:
 703:Drivers/STM32F4xx_HAL_Driver/Src/stm32f4xx_ll_sdmmc.c ****   SDIO_CmdInitTypeDef  sdmmc_cmdinit;
 1534              		.loc 1 703 0
 1535              		.cfi_startproc
 1536              		@ args = 0, pretend = 0, frame = 24
 1537              		@ frame_needed = 0, uses_anonymous_args = 0
 1538              	.LVL151:
 1539 0000 30B5     		push	{r4, r5, lr}
ARM GAS  /tmp/ccO3W952.s 			page 57


 1540              	.LCFI33:
 1541              		.cfi_def_cfa_offset 12
 1542              		.cfi_offset 4, -12
 1543              		.cfi_offset 5, -8
 1544              		.cfi_offset 14, -4
 1545 0002 87B0     		sub	sp, sp, #28
 1546              	.LCFI34:
 1547              		.cfi_def_cfa_offset 40
 1548 0004 0546     		mov	r5, r0
 1549              	.LVL152:
 708:Drivers/STM32F4xx_HAL_Driver/Src/stm32f4xx_ll_sdmmc.c ****   sdmmc_cmdinit.CmdIndex         = SDMMC_CMD_ERASE_GRP_START;
 1550              		.loc 1 708 0
 1551 0006 0191     		str	r1, [sp, #4]
 709:Drivers/STM32F4xx_HAL_Driver/Src/stm32f4xx_ll_sdmmc.c ****   sdmmc_cmdinit.Response         = SDIO_RESPONSE_SHORT;
 1552              		.loc 1 709 0
 1553 0008 2324     		movs	r4, #35
 1554 000a 0294     		str	r4, [sp, #8]
 710:Drivers/STM32F4xx_HAL_Driver/Src/stm32f4xx_ll_sdmmc.c ****   sdmmc_cmdinit.WaitForInterrupt = SDIO_WAIT_NO;
 1555              		.loc 1 710 0
 1556 000c 4023     		movs	r3, #64
 1557 000e 0393     		str	r3, [sp, #12]
 711:Drivers/STM32F4xx_HAL_Driver/Src/stm32f4xx_ll_sdmmc.c ****   sdmmc_cmdinit.CPSM             = SDIO_CPSM_ENABLE;
 1558              		.loc 1 711 0
 1559 0010 0023     		movs	r3, #0
 1560 0012 0493     		str	r3, [sp, #16]
 712:Drivers/STM32F4xx_HAL_Driver/Src/stm32f4xx_ll_sdmmc.c ****   SDIO_SendCommand(SDIOx, &sdmmc_cmdinit);
 1561              		.loc 1 712 0
 1562 0014 4FF48063 		mov	r3, #1024
 1563 0018 0593     		str	r3, [sp, #20]
 713:Drivers/STM32F4xx_HAL_Driver/Src/stm32f4xx_ll_sdmmc.c ****   
 1564              		.loc 1 713 0
 1565 001a 01A9     		add	r1, sp, #4
 1566              	.LVL153:
 1567 001c FFF7FEFF 		bl	SDIO_SendCommand
 1568              	.LVL154:
 716:Drivers/STM32F4xx_HAL_Driver/Src/stm32f4xx_ll_sdmmc.c **** 
 1569              		.loc 1 716 0
 1570 0020 41F28832 		movw	r2, #5000
 1571 0024 2146     		mov	r1, r4
 1572 0026 2846     		mov	r0, r5
 1573 0028 FFF7FEFF 		bl	SDMMC_GetCmdResp1
 1574              	.LVL155:
 719:Drivers/STM32F4xx_HAL_Driver/Src/stm32f4xx_ll_sdmmc.c **** 
 1575              		.loc 1 719 0
 1576 002c 07B0     		add	sp, sp, #28
 1577              	.LCFI35:
 1578              		.cfi_def_cfa_offset 12
 1579              		@ sp needed
 1580 002e 30BD     		pop	{r4, r5, pc}
 1581              		.cfi_endproc
 1582              	.LFE144:
 1584              		.section	.text.SDMMC_CmdEraseEndAdd,"ax",%progbits
 1585              		.align	2
 1586              		.global	SDMMC_CmdEraseEndAdd
 1587              		.thumb
 1588              		.thumb_func
 1590              	SDMMC_CmdEraseEndAdd:
ARM GAS  /tmp/ccO3W952.s 			page 58


 1591              	.LFB145:
 727:Drivers/STM32F4xx_HAL_Driver/Src/stm32f4xx_ll_sdmmc.c ****   SDIO_CmdInitTypeDef  sdmmc_cmdinit;
 1592              		.loc 1 727 0
 1593              		.cfi_startproc
 1594              		@ args = 0, pretend = 0, frame = 24
 1595              		@ frame_needed = 0, uses_anonymous_args = 0
 1596              	.LVL156:
 1597 0000 30B5     		push	{r4, r5, lr}
 1598              	.LCFI36:
 1599              		.cfi_def_cfa_offset 12
 1600              		.cfi_offset 4, -12
 1601              		.cfi_offset 5, -8
 1602              		.cfi_offset 14, -4
 1603 0002 87B0     		sub	sp, sp, #28
 1604              	.LCFI37:
 1605              		.cfi_def_cfa_offset 40
 1606 0004 0546     		mov	r5, r0
 1607              	.LVL157:
 732:Drivers/STM32F4xx_HAL_Driver/Src/stm32f4xx_ll_sdmmc.c ****   sdmmc_cmdinit.CmdIndex         = SDMMC_CMD_ERASE_GRP_END;
 1608              		.loc 1 732 0
 1609 0006 0191     		str	r1, [sp, #4]
 733:Drivers/STM32F4xx_HAL_Driver/Src/stm32f4xx_ll_sdmmc.c ****   sdmmc_cmdinit.Response         = SDIO_RESPONSE_SHORT;
 1610              		.loc 1 733 0
 1611 0008 2424     		movs	r4, #36
 1612 000a 0294     		str	r4, [sp, #8]
 734:Drivers/STM32F4xx_HAL_Driver/Src/stm32f4xx_ll_sdmmc.c ****   sdmmc_cmdinit.WaitForInterrupt = SDIO_WAIT_NO;
 1613              		.loc 1 734 0
 1614 000c 4023     		movs	r3, #64
 1615 000e 0393     		str	r3, [sp, #12]
 735:Drivers/STM32F4xx_HAL_Driver/Src/stm32f4xx_ll_sdmmc.c ****   sdmmc_cmdinit.CPSM             = SDIO_CPSM_ENABLE;
 1616              		.loc 1 735 0
 1617 0010 0023     		movs	r3, #0
 1618 0012 0493     		str	r3, [sp, #16]
 736:Drivers/STM32F4xx_HAL_Driver/Src/stm32f4xx_ll_sdmmc.c ****   SDIO_SendCommand(SDIOx, &sdmmc_cmdinit);
 1619              		.loc 1 736 0
 1620 0014 4FF48063 		mov	r3, #1024
 1621 0018 0593     		str	r3, [sp, #20]
 737:Drivers/STM32F4xx_HAL_Driver/Src/stm32f4xx_ll_sdmmc.c ****   
 1622              		.loc 1 737 0
 1623 001a 01A9     		add	r1, sp, #4
 1624              	.LVL158:
 1625 001c FFF7FEFF 		bl	SDIO_SendCommand
 1626              	.LVL159:
 740:Drivers/STM32F4xx_HAL_Driver/Src/stm32f4xx_ll_sdmmc.c **** 
 1627              		.loc 1 740 0
 1628 0020 41F28832 		movw	r2, #5000
 1629 0024 2146     		mov	r1, r4
 1630 0026 2846     		mov	r0, r5
 1631 0028 FFF7FEFF 		bl	SDMMC_GetCmdResp1
 1632              	.LVL160:
 743:Drivers/STM32F4xx_HAL_Driver/Src/stm32f4xx_ll_sdmmc.c **** 
 1633              		.loc 1 743 0
 1634 002c 07B0     		add	sp, sp, #28
 1635              	.LCFI38:
 1636              		.cfi_def_cfa_offset 12
 1637              		@ sp needed
 1638 002e 30BD     		pop	{r4, r5, pc}
ARM GAS  /tmp/ccO3W952.s 			page 59


 1639              		.cfi_endproc
 1640              	.LFE145:
 1642              		.section	.text.SDMMC_CmdErase,"ax",%progbits
 1643              		.align	2
 1644              		.global	SDMMC_CmdErase
 1645              		.thumb
 1646              		.thumb_func
 1648              	SDMMC_CmdErase:
 1649              	.LFB146:
 751:Drivers/STM32F4xx_HAL_Driver/Src/stm32f4xx_ll_sdmmc.c ****   SDIO_CmdInitTypeDef  sdmmc_cmdinit;
 1650              		.loc 1 751 0
 1651              		.cfi_startproc
 1652              		@ args = 0, pretend = 0, frame = 24
 1653              		@ frame_needed = 0, uses_anonymous_args = 0
 1654              	.LVL161:
 1655 0000 30B5     		push	{r4, r5, lr}
 1656              	.LCFI39:
 1657              		.cfi_def_cfa_offset 12
 1658              		.cfi_offset 4, -12
 1659              		.cfi_offset 5, -8
 1660              		.cfi_offset 14, -4
 1661 0002 87B0     		sub	sp, sp, #28
 1662              	.LCFI40:
 1663              		.cfi_def_cfa_offset 40
 1664 0004 0546     		mov	r5, r0
 1665              	.LVL162:
 756:Drivers/STM32F4xx_HAL_Driver/Src/stm32f4xx_ll_sdmmc.c ****   sdmmc_cmdinit.CmdIndex         = SDMMC_CMD_ERASE;
 1666              		.loc 1 756 0
 1667 0006 0023     		movs	r3, #0
 1668 0008 0193     		str	r3, [sp, #4]
 757:Drivers/STM32F4xx_HAL_Driver/Src/stm32f4xx_ll_sdmmc.c ****   sdmmc_cmdinit.Response         = SDIO_RESPONSE_SHORT;
 1669              		.loc 1 757 0
 1670 000a 2624     		movs	r4, #38
 1671 000c 0294     		str	r4, [sp, #8]
 758:Drivers/STM32F4xx_HAL_Driver/Src/stm32f4xx_ll_sdmmc.c ****   sdmmc_cmdinit.WaitForInterrupt = SDIO_WAIT_NO;
 1672              		.loc 1 758 0
 1673 000e 4022     		movs	r2, #64
 1674 0010 0392     		str	r2, [sp, #12]
 759:Drivers/STM32F4xx_HAL_Driver/Src/stm32f4xx_ll_sdmmc.c ****   sdmmc_cmdinit.CPSM             = SDIO_CPSM_ENABLE;
 1675              		.loc 1 759 0
 1676 0012 0493     		str	r3, [sp, #16]
 760:Drivers/STM32F4xx_HAL_Driver/Src/stm32f4xx_ll_sdmmc.c ****   SDIO_SendCommand(SDIOx, &sdmmc_cmdinit);
 1677              		.loc 1 760 0
 1678 0014 4FF48063 		mov	r3, #1024
 1679 0018 0593     		str	r3, [sp, #20]
 761:Drivers/STM32F4xx_HAL_Driver/Src/stm32f4xx_ll_sdmmc.c ****   
 1680              		.loc 1 761 0
 1681 001a 01A9     		add	r1, sp, #4
 1682 001c FFF7FEFF 		bl	SDIO_SendCommand
 1683              	.LVL163:
 764:Drivers/STM32F4xx_HAL_Driver/Src/stm32f4xx_ll_sdmmc.c **** 
 1684              		.loc 1 764 0
 1685 0020 4FF21862 		movw	r2, #63000
 1686 0024 2146     		mov	r1, r4
 1687 0026 2846     		mov	r0, r5
 1688 0028 FFF7FEFF 		bl	SDMMC_GetCmdResp1
 1689              	.LVL164:
ARM GAS  /tmp/ccO3W952.s 			page 60


 767:Drivers/STM32F4xx_HAL_Driver/Src/stm32f4xx_ll_sdmmc.c **** 
 1690              		.loc 1 767 0
 1691 002c 07B0     		add	sp, sp, #28
 1692              	.LCFI41:
 1693              		.cfi_def_cfa_offset 12
 1694              		@ sp needed
 1695 002e 30BD     		pop	{r4, r5, pc}
 1696              		.cfi_endproc
 1697              	.LFE146:
 1699              		.section	.text.SDMMC_CmdStopTransfer,"ax",%progbits
 1700              		.align	2
 1701              		.global	SDMMC_CmdStopTransfer
 1702              		.thumb
 1703              		.thumb_func
 1705              	SDMMC_CmdStopTransfer:
 1706              	.LFB147:
 775:Drivers/STM32F4xx_HAL_Driver/Src/stm32f4xx_ll_sdmmc.c ****   SDIO_CmdInitTypeDef  sdmmc_cmdinit;
 1707              		.loc 1 775 0
 1708              		.cfi_startproc
 1709              		@ args = 0, pretend = 0, frame = 24
 1710              		@ frame_needed = 0, uses_anonymous_args = 0
 1711              	.LVL165:
 1712 0000 30B5     		push	{r4, r5, lr}
 1713              	.LCFI42:
 1714              		.cfi_def_cfa_offset 12
 1715              		.cfi_offset 4, -12
 1716              		.cfi_offset 5, -8
 1717              		.cfi_offset 14, -4
 1718 0002 87B0     		sub	sp, sp, #28
 1719              	.LCFI43:
 1720              		.cfi_def_cfa_offset 40
 1721 0004 0546     		mov	r5, r0
 1722              	.LVL166:
 780:Drivers/STM32F4xx_HAL_Driver/Src/stm32f4xx_ll_sdmmc.c ****   sdmmc_cmdinit.CmdIndex         = SDMMC_CMD_STOP_TRANSMISSION;
 1723              		.loc 1 780 0
 1724 0006 0023     		movs	r3, #0
 1725 0008 0193     		str	r3, [sp, #4]
 781:Drivers/STM32F4xx_HAL_Driver/Src/stm32f4xx_ll_sdmmc.c ****   sdmmc_cmdinit.Response         = SDIO_RESPONSE_SHORT;
 1726              		.loc 1 781 0
 1727 000a 0C24     		movs	r4, #12
 1728 000c 0294     		str	r4, [sp, #8]
 782:Drivers/STM32F4xx_HAL_Driver/Src/stm32f4xx_ll_sdmmc.c ****   sdmmc_cmdinit.WaitForInterrupt = SDIO_WAIT_NO;
 1729              		.loc 1 782 0
 1730 000e 4022     		movs	r2, #64
 1731 0010 0392     		str	r2, [sp, #12]
 783:Drivers/STM32F4xx_HAL_Driver/Src/stm32f4xx_ll_sdmmc.c ****   sdmmc_cmdinit.CPSM             = SDIO_CPSM_ENABLE;
 1732              		.loc 1 783 0
 1733 0012 0493     		str	r3, [sp, #16]
 784:Drivers/STM32F4xx_HAL_Driver/Src/stm32f4xx_ll_sdmmc.c ****   SDIO_SendCommand(SDIOx, &sdmmc_cmdinit);
 1734              		.loc 1 784 0
 1735 0014 4FF48063 		mov	r3, #1024
 1736 0018 0593     		str	r3, [sp, #20]
 785:Drivers/STM32F4xx_HAL_Driver/Src/stm32f4xx_ll_sdmmc.c ****   
 1737              		.loc 1 785 0
 1738 001a 01A9     		add	r1, sp, #4
 1739 001c FFF7FEFF 		bl	SDIO_SendCommand
 1740              	.LVL167:
ARM GAS  /tmp/ccO3W952.s 			page 61


 788:Drivers/STM32F4xx_HAL_Driver/Src/stm32f4xx_ll_sdmmc.c **** 
 1741              		.loc 1 788 0
 1742 0020 034A     		ldr	r2, .L109
 1743 0022 2146     		mov	r1, r4
 1744 0024 2846     		mov	r0, r5
 1745 0026 FFF7FEFF 		bl	SDMMC_GetCmdResp1
 1746              	.LVL168:
 791:Drivers/STM32F4xx_HAL_Driver/Src/stm32f4xx_ll_sdmmc.c **** 
 1747              		.loc 1 791 0
 1748 002a 07B0     		add	sp, sp, #28
 1749              	.LCFI44:
 1750              		.cfi_def_cfa_offset 12
 1751              		@ sp needed
 1752 002c 30BD     		pop	{r4, r5, pc}
 1753              	.LVL169:
 1754              	.L110:
 1755 002e 00BF     		.align	2
 1756              	.L109:
 1757 0030 00E1F505 		.word	100000000
 1758              		.cfi_endproc
 1759              	.LFE147:
 1761              		.section	.text.SDMMC_CmdSelDesel,"ax",%progbits
 1762              		.align	2
 1763              		.global	SDMMC_CmdSelDesel
 1764              		.thumb
 1765              		.thumb_func
 1767              	SDMMC_CmdSelDesel:
 1768              	.LFB148:
 800:Drivers/STM32F4xx_HAL_Driver/Src/stm32f4xx_ll_sdmmc.c ****   SDIO_CmdInitTypeDef  sdmmc_cmdinit;
 1769              		.loc 1 800 0
 1770              		.cfi_startproc
 1771              		@ args = 0, pretend = 0, frame = 24
 1772              		@ frame_needed = 0, uses_anonymous_args = 0
 1773              	.LVL170:
 1774 0000 30B5     		push	{r4, r5, lr}
 1775              	.LCFI45:
 1776              		.cfi_def_cfa_offset 12
 1777              		.cfi_offset 4, -12
 1778              		.cfi_offset 5, -8
 1779              		.cfi_offset 14, -4
 1780 0002 87B0     		sub	sp, sp, #28
 1781              	.LCFI46:
 1782              		.cfi_def_cfa_offset 40
 1783 0004 0546     		mov	r5, r0
 1784              	.LVL171:
 805:Drivers/STM32F4xx_HAL_Driver/Src/stm32f4xx_ll_sdmmc.c ****   sdmmc_cmdinit.CmdIndex         = SDMMC_CMD_SEL_DESEL_CARD;
 1785              		.loc 1 805 0
 1786 0006 0192     		str	r2, [sp, #4]
 806:Drivers/STM32F4xx_HAL_Driver/Src/stm32f4xx_ll_sdmmc.c ****   sdmmc_cmdinit.Response         = SDIO_RESPONSE_SHORT;
 1787              		.loc 1 806 0
 1788 0008 0724     		movs	r4, #7
 1789 000a 0294     		str	r4, [sp, #8]
 807:Drivers/STM32F4xx_HAL_Driver/Src/stm32f4xx_ll_sdmmc.c ****   sdmmc_cmdinit.WaitForInterrupt = SDIO_WAIT_NO;
 1790              		.loc 1 807 0
 1791 000c 4023     		movs	r3, #64
 1792 000e 0393     		str	r3, [sp, #12]
 808:Drivers/STM32F4xx_HAL_Driver/Src/stm32f4xx_ll_sdmmc.c ****   sdmmc_cmdinit.CPSM             = SDIO_CPSM_ENABLE;
ARM GAS  /tmp/ccO3W952.s 			page 62


 1793              		.loc 1 808 0
 1794 0010 0023     		movs	r3, #0
 1795 0012 0493     		str	r3, [sp, #16]
 809:Drivers/STM32F4xx_HAL_Driver/Src/stm32f4xx_ll_sdmmc.c ****   SDIO_SendCommand(SDIOx, &sdmmc_cmdinit);
 1796              		.loc 1 809 0
 1797 0014 4FF48063 		mov	r3, #1024
 1798 0018 0593     		str	r3, [sp, #20]
 810:Drivers/STM32F4xx_HAL_Driver/Src/stm32f4xx_ll_sdmmc.c ****   
 1799              		.loc 1 810 0
 1800 001a 01A9     		add	r1, sp, #4
 1801 001c FFF7FEFF 		bl	SDIO_SendCommand
 1802              	.LVL172:
 813:Drivers/STM32F4xx_HAL_Driver/Src/stm32f4xx_ll_sdmmc.c **** 
 1803              		.loc 1 813 0
 1804 0020 41F28832 		movw	r2, #5000
 1805 0024 2146     		mov	r1, r4
 1806 0026 2846     		mov	r0, r5
 1807 0028 FFF7FEFF 		bl	SDMMC_GetCmdResp1
 1808              	.LVL173:
 816:Drivers/STM32F4xx_HAL_Driver/Src/stm32f4xx_ll_sdmmc.c **** 
 1809              		.loc 1 816 0
 1810 002c 07B0     		add	sp, sp, #28
 1811              	.LCFI47:
 1812              		.cfi_def_cfa_offset 12
 1813              		@ sp needed
 1814 002e 30BD     		pop	{r4, r5, pc}
 1815              		.cfi_endproc
 1816              	.LFE148:
 1818              		.section	.text.SDMMC_CmdGoIdleState,"ax",%progbits
 1819              		.align	2
 1820              		.global	SDMMC_CmdGoIdleState
 1821              		.thumb
 1822              		.thumb_func
 1824              	SDMMC_CmdGoIdleState:
 1825              	.LFB149:
 824:Drivers/STM32F4xx_HAL_Driver/Src/stm32f4xx_ll_sdmmc.c ****   SDIO_CmdInitTypeDef  sdmmc_cmdinit;
 1826              		.loc 1 824 0
 1827              		.cfi_startproc
 1828              		@ args = 0, pretend = 0, frame = 24
 1829              		@ frame_needed = 0, uses_anonymous_args = 0
 1830              	.LVL174:
 1831 0000 10B5     		push	{r4, lr}
 1832              	.LCFI48:
 1833              		.cfi_def_cfa_offset 8
 1834              		.cfi_offset 4, -8
 1835              		.cfi_offset 14, -4
 1836 0002 86B0     		sub	sp, sp, #24
 1837              	.LCFI49:
 1838              		.cfi_def_cfa_offset 32
 1839 0004 0446     		mov	r4, r0
 1840              	.LVL175:
 828:Drivers/STM32F4xx_HAL_Driver/Src/stm32f4xx_ll_sdmmc.c ****   sdmmc_cmdinit.CmdIndex         = SDMMC_CMD_GO_IDLE_STATE;
 1841              		.loc 1 828 0
 1842 0006 0023     		movs	r3, #0
 1843 0008 0193     		str	r3, [sp, #4]
 829:Drivers/STM32F4xx_HAL_Driver/Src/stm32f4xx_ll_sdmmc.c ****   sdmmc_cmdinit.Response         = SDIO_RESPONSE_NO;
 1844              		.loc 1 829 0
ARM GAS  /tmp/ccO3W952.s 			page 63


 1845 000a 0293     		str	r3, [sp, #8]
 830:Drivers/STM32F4xx_HAL_Driver/Src/stm32f4xx_ll_sdmmc.c ****   sdmmc_cmdinit.WaitForInterrupt = SDIO_WAIT_NO;
 1846              		.loc 1 830 0
 1847 000c 0393     		str	r3, [sp, #12]
 831:Drivers/STM32F4xx_HAL_Driver/Src/stm32f4xx_ll_sdmmc.c ****   sdmmc_cmdinit.CPSM             = SDIO_CPSM_ENABLE;
 1848              		.loc 1 831 0
 1849 000e 0493     		str	r3, [sp, #16]
 832:Drivers/STM32F4xx_HAL_Driver/Src/stm32f4xx_ll_sdmmc.c ****   SDIO_SendCommand(SDIOx, &sdmmc_cmdinit);
 1850              		.loc 1 832 0
 1851 0010 4FF48063 		mov	r3, #1024
 1852 0014 0593     		str	r3, [sp, #20]
 833:Drivers/STM32F4xx_HAL_Driver/Src/stm32f4xx_ll_sdmmc.c ****   
 1853              		.loc 1 833 0
 1854 0016 01A9     		add	r1, sp, #4
 1855 0018 FFF7FEFF 		bl	SDIO_SendCommand
 1856              	.LVL176:
 836:Drivers/STM32F4xx_HAL_Driver/Src/stm32f4xx_ll_sdmmc.c **** 
 1857              		.loc 1 836 0
 1858 001c 2046     		mov	r0, r4
 1859 001e FFF7FEFF 		bl	SDMMC_GetCmdError
 1860              	.LVL177:
 839:Drivers/STM32F4xx_HAL_Driver/Src/stm32f4xx_ll_sdmmc.c **** 
 1861              		.loc 1 839 0
 1862 0022 06B0     		add	sp, sp, #24
 1863              	.LCFI50:
 1864              		.cfi_def_cfa_offset 8
 1865              		@ sp needed
 1866 0024 10BD     		pop	{r4, pc}
 1867              		.cfi_endproc
 1868              	.LFE149:
 1870 0026 00BF     		.section	.text.SDMMC_CmdOperCond,"ax",%progbits
 1871              		.align	2
 1872              		.global	SDMMC_CmdOperCond
 1873              		.thumb
 1874              		.thumb_func
 1876              	SDMMC_CmdOperCond:
 1877              	.LFB150:
 847:Drivers/STM32F4xx_HAL_Driver/Src/stm32f4xx_ll_sdmmc.c ****   SDIO_CmdInitTypeDef  sdmmc_cmdinit;
 1878              		.loc 1 847 0
 1879              		.cfi_startproc
 1880              		@ args = 0, pretend = 0, frame = 24
 1881              		@ frame_needed = 0, uses_anonymous_args = 0
 1882              	.LVL178:
 1883 0000 10B5     		push	{r4, lr}
 1884              	.LCFI51:
 1885              		.cfi_def_cfa_offset 8
 1886              		.cfi_offset 4, -8
 1887              		.cfi_offset 14, -4
 1888 0002 86B0     		sub	sp, sp, #24
 1889              	.LCFI52:
 1890              		.cfi_def_cfa_offset 32
 1891 0004 0446     		mov	r4, r0
 1892              	.LVL179:
 856:Drivers/STM32F4xx_HAL_Driver/Src/stm32f4xx_ll_sdmmc.c ****   sdmmc_cmdinit.CmdIndex         = SDMMC_CMD_HS_SEND_EXT_CSD;
 1893              		.loc 1 856 0
 1894 0006 4FF4D573 		mov	r3, #426
 1895 000a 0193     		str	r3, [sp, #4]
ARM GAS  /tmp/ccO3W952.s 			page 64


 857:Drivers/STM32F4xx_HAL_Driver/Src/stm32f4xx_ll_sdmmc.c ****   sdmmc_cmdinit.Response         = SDIO_RESPONSE_SHORT;
 1896              		.loc 1 857 0
 1897 000c 0823     		movs	r3, #8
 1898 000e 0293     		str	r3, [sp, #8]
 858:Drivers/STM32F4xx_HAL_Driver/Src/stm32f4xx_ll_sdmmc.c ****   sdmmc_cmdinit.WaitForInterrupt = SDIO_WAIT_NO;
 1899              		.loc 1 858 0
 1900 0010 4023     		movs	r3, #64
 1901 0012 0393     		str	r3, [sp, #12]
 859:Drivers/STM32F4xx_HAL_Driver/Src/stm32f4xx_ll_sdmmc.c ****   sdmmc_cmdinit.CPSM             = SDIO_CPSM_ENABLE;
 1902              		.loc 1 859 0
 1903 0014 0023     		movs	r3, #0
 1904 0016 0493     		str	r3, [sp, #16]
 860:Drivers/STM32F4xx_HAL_Driver/Src/stm32f4xx_ll_sdmmc.c ****   SDIO_SendCommand(SDIOx, &sdmmc_cmdinit);
 1905              		.loc 1 860 0
 1906 0018 4FF48063 		mov	r3, #1024
 1907 001c 0593     		str	r3, [sp, #20]
 861:Drivers/STM32F4xx_HAL_Driver/Src/stm32f4xx_ll_sdmmc.c ****   
 1908              		.loc 1 861 0
 1909 001e 01A9     		add	r1, sp, #4
 1910 0020 FFF7FEFF 		bl	SDIO_SendCommand
 1911              	.LVL180:
 864:Drivers/STM32F4xx_HAL_Driver/Src/stm32f4xx_ll_sdmmc.c **** 
 1912              		.loc 1 864 0
 1913 0024 2046     		mov	r0, r4
 1914 0026 FFF7FEFF 		bl	SDMMC_GetCmdResp7
 1915              	.LVL181:
 867:Drivers/STM32F4xx_HAL_Driver/Src/stm32f4xx_ll_sdmmc.c **** 
 1916              		.loc 1 867 0
 1917 002a 06B0     		add	sp, sp, #24
 1918              	.LCFI53:
 1919              		.cfi_def_cfa_offset 8
 1920              		@ sp needed
 1921 002c 10BD     		pop	{r4, pc}
 1922              		.cfi_endproc
 1923              	.LFE150:
 1925 002e 00BF     		.section	.text.SDMMC_CmdAppCommand,"ax",%progbits
 1926              		.align	2
 1927              		.global	SDMMC_CmdAppCommand
 1928              		.thumb
 1929              		.thumb_func
 1931              	SDMMC_CmdAppCommand:
 1932              	.LFB151:
 877:Drivers/STM32F4xx_HAL_Driver/Src/stm32f4xx_ll_sdmmc.c ****   SDIO_CmdInitTypeDef  sdmmc_cmdinit;
 1933              		.loc 1 877 0
 1934              		.cfi_startproc
 1935              		@ args = 0, pretend = 0, frame = 24
 1936              		@ frame_needed = 0, uses_anonymous_args = 0
 1937              	.LVL182:
 1938 0000 30B5     		push	{r4, r5, lr}
 1939              	.LCFI54:
 1940              		.cfi_def_cfa_offset 12
 1941              		.cfi_offset 4, -12
 1942              		.cfi_offset 5, -8
 1943              		.cfi_offset 14, -4
 1944 0002 87B0     		sub	sp, sp, #28
 1945              	.LCFI55:
 1946              		.cfi_def_cfa_offset 40
ARM GAS  /tmp/ccO3W952.s 			page 65


 1947 0004 0546     		mov	r5, r0
 1948              	.LVL183:
 881:Drivers/STM32F4xx_HAL_Driver/Src/stm32f4xx_ll_sdmmc.c ****   sdmmc_cmdinit.CmdIndex         = SDMMC_CMD_APP_CMD;
 1949              		.loc 1 881 0
 1950 0006 0191     		str	r1, [sp, #4]
 882:Drivers/STM32F4xx_HAL_Driver/Src/stm32f4xx_ll_sdmmc.c ****   sdmmc_cmdinit.Response         = SDIO_RESPONSE_SHORT;
 1951              		.loc 1 882 0
 1952 0008 3724     		movs	r4, #55
 1953 000a 0294     		str	r4, [sp, #8]
 883:Drivers/STM32F4xx_HAL_Driver/Src/stm32f4xx_ll_sdmmc.c ****   sdmmc_cmdinit.WaitForInterrupt = SDIO_WAIT_NO;
 1954              		.loc 1 883 0
 1955 000c 4023     		movs	r3, #64
 1956 000e 0393     		str	r3, [sp, #12]
 884:Drivers/STM32F4xx_HAL_Driver/Src/stm32f4xx_ll_sdmmc.c ****   sdmmc_cmdinit.CPSM             = SDIO_CPSM_ENABLE;
 1957              		.loc 1 884 0
 1958 0010 0023     		movs	r3, #0
 1959 0012 0493     		str	r3, [sp, #16]
 885:Drivers/STM32F4xx_HAL_Driver/Src/stm32f4xx_ll_sdmmc.c ****   SDIO_SendCommand(SDIOx, &sdmmc_cmdinit);
 1960              		.loc 1 885 0
 1961 0014 4FF48063 		mov	r3, #1024
 1962 0018 0593     		str	r3, [sp, #20]
 886:Drivers/STM32F4xx_HAL_Driver/Src/stm32f4xx_ll_sdmmc.c ****   
 1963              		.loc 1 886 0
 1964 001a 01A9     		add	r1, sp, #4
 1965              	.LVL184:
 1966 001c FFF7FEFF 		bl	SDIO_SendCommand
 1967              	.LVL185:
 892:Drivers/STM32F4xx_HAL_Driver/Src/stm32f4xx_ll_sdmmc.c **** 
 1968              		.loc 1 892 0
 1969 0020 41F28832 		movw	r2, #5000
 1970 0024 2146     		mov	r1, r4
 1971 0026 2846     		mov	r0, r5
 1972 0028 FFF7FEFF 		bl	SDMMC_GetCmdResp1
 1973              	.LVL186:
 895:Drivers/STM32F4xx_HAL_Driver/Src/stm32f4xx_ll_sdmmc.c **** 
 1974              		.loc 1 895 0
 1975 002c 07B0     		add	sp, sp, #28
 1976              	.LCFI56:
 1977              		.cfi_def_cfa_offset 12
 1978              		@ sp needed
 1979 002e 30BD     		pop	{r4, r5, pc}
 1980              		.cfi_endproc
 1981              	.LFE151:
 1983              		.section	.text.SDMMC_CmdAppOperCommand,"ax",%progbits
 1984              		.align	2
 1985              		.global	SDMMC_CmdAppOperCommand
 1986              		.thumb
 1987              		.thumb_func
 1989              	SDMMC_CmdAppOperCommand:
 1990              	.LFB152:
 904:Drivers/STM32F4xx_HAL_Driver/Src/stm32f4xx_ll_sdmmc.c ****   SDIO_CmdInitTypeDef  sdmmc_cmdinit;
 1991              		.loc 1 904 0
 1992              		.cfi_startproc
 1993              		@ args = 0, pretend = 0, frame = 24
 1994              		@ frame_needed = 0, uses_anonymous_args = 0
 1995              	.LVL187:
 1996 0000 10B5     		push	{r4, lr}
ARM GAS  /tmp/ccO3W952.s 			page 66


 1997              	.LCFI57:
 1998              		.cfi_def_cfa_offset 8
 1999              		.cfi_offset 4, -8
 2000              		.cfi_offset 14, -4
 2001 0002 86B0     		sub	sp, sp, #24
 2002              	.LCFI58:
 2003              		.cfi_def_cfa_offset 32
 2004 0004 0446     		mov	r4, r0
 2005              	.LVL188:
 908:Drivers/STM32F4xx_HAL_Driver/Src/stm32f4xx_ll_sdmmc.c ****   sdmmc_cmdinit.CmdIndex         = SDMMC_CMD_SD_APP_OP_COND;
 2006              		.loc 1 908 0
 2007 0006 41F00041 		orr	r1, r1, #-2147483648
 2008              	.LVL189:
 2009 000a 41F48011 		orr	r1, r1, #1048576
 2010 000e 0191     		str	r1, [sp, #4]
 909:Drivers/STM32F4xx_HAL_Driver/Src/stm32f4xx_ll_sdmmc.c ****   sdmmc_cmdinit.Response         = SDIO_RESPONSE_SHORT;
 2011              		.loc 1 909 0
 2012 0010 2923     		movs	r3, #41
 2013 0012 0293     		str	r3, [sp, #8]
 910:Drivers/STM32F4xx_HAL_Driver/Src/stm32f4xx_ll_sdmmc.c ****   sdmmc_cmdinit.WaitForInterrupt = SDIO_WAIT_NO;
 2014              		.loc 1 910 0
 2015 0014 4023     		movs	r3, #64
 2016 0016 0393     		str	r3, [sp, #12]
 911:Drivers/STM32F4xx_HAL_Driver/Src/stm32f4xx_ll_sdmmc.c ****   sdmmc_cmdinit.CPSM             = SDIO_CPSM_ENABLE;
 2017              		.loc 1 911 0
 2018 0018 0023     		movs	r3, #0
 2019 001a 0493     		str	r3, [sp, #16]
 912:Drivers/STM32F4xx_HAL_Driver/Src/stm32f4xx_ll_sdmmc.c ****   SDIO_SendCommand(SDIOx, &sdmmc_cmdinit);
 2020              		.loc 1 912 0
 2021 001c 4FF48063 		mov	r3, #1024
 2022 0020 0593     		str	r3, [sp, #20]
 913:Drivers/STM32F4xx_HAL_Driver/Src/stm32f4xx_ll_sdmmc.c ****   
 2023              		.loc 1 913 0
 2024 0022 01A9     		add	r1, sp, #4
 2025 0024 FFF7FEFF 		bl	SDIO_SendCommand
 2026              	.LVL190:
 916:Drivers/STM32F4xx_HAL_Driver/Src/stm32f4xx_ll_sdmmc.c **** 
 2027              		.loc 1 916 0
 2028 0028 2046     		mov	r0, r4
 2029 002a FFF7FEFF 		bl	SDMMC_GetCmdResp3
 2030              	.LVL191:
 919:Drivers/STM32F4xx_HAL_Driver/Src/stm32f4xx_ll_sdmmc.c **** 
 2031              		.loc 1 919 0
 2032 002e 06B0     		add	sp, sp, #24
 2033              	.LCFI59:
 2034              		.cfi_def_cfa_offset 8
 2035              		@ sp needed
 2036 0030 10BD     		pop	{r4, pc}
 2037              		.cfi_endproc
 2038              	.LFE152:
 2040 0032 00BF     		.section	.text.SDMMC_CmdBusWidth,"ax",%progbits
 2041              		.align	2
 2042              		.global	SDMMC_CmdBusWidth
 2043              		.thumb
 2044              		.thumb_func
 2046              	SDMMC_CmdBusWidth:
 2047              	.LFB153:
ARM GAS  /tmp/ccO3W952.s 			page 67


 927:Drivers/STM32F4xx_HAL_Driver/Src/stm32f4xx_ll_sdmmc.c ****   SDIO_CmdInitTypeDef  sdmmc_cmdinit;
 2048              		.loc 1 927 0
 2049              		.cfi_startproc
 2050              		@ args = 0, pretend = 0, frame = 24
 2051              		@ frame_needed = 0, uses_anonymous_args = 0
 2052              	.LVL192:
 2053 0000 30B5     		push	{r4, r5, lr}
 2054              	.LCFI60:
 2055              		.cfi_def_cfa_offset 12
 2056              		.cfi_offset 4, -12
 2057              		.cfi_offset 5, -8
 2058              		.cfi_offset 14, -4
 2059 0002 87B0     		sub	sp, sp, #28
 2060              	.LCFI61:
 2061              		.cfi_def_cfa_offset 40
 2062 0004 0546     		mov	r5, r0
 2063              	.LVL193:
 931:Drivers/STM32F4xx_HAL_Driver/Src/stm32f4xx_ll_sdmmc.c ****   sdmmc_cmdinit.CmdIndex         = SDMMC_CMD_APP_SD_SET_BUSWIDTH;
 2064              		.loc 1 931 0
 2065 0006 0191     		str	r1, [sp, #4]
 932:Drivers/STM32F4xx_HAL_Driver/Src/stm32f4xx_ll_sdmmc.c ****   sdmmc_cmdinit.Response         = SDIO_RESPONSE_SHORT;
 2066              		.loc 1 932 0
 2067 0008 0624     		movs	r4, #6
 2068 000a 0294     		str	r4, [sp, #8]
 933:Drivers/STM32F4xx_HAL_Driver/Src/stm32f4xx_ll_sdmmc.c ****   sdmmc_cmdinit.WaitForInterrupt = SDIO_WAIT_NO;
 2069              		.loc 1 933 0
 2070 000c 4023     		movs	r3, #64
 2071 000e 0393     		str	r3, [sp, #12]
 934:Drivers/STM32F4xx_HAL_Driver/Src/stm32f4xx_ll_sdmmc.c ****   sdmmc_cmdinit.CPSM             = SDIO_CPSM_ENABLE;
 2072              		.loc 1 934 0
 2073 0010 0023     		movs	r3, #0
 2074 0012 0493     		str	r3, [sp, #16]
 935:Drivers/STM32F4xx_HAL_Driver/Src/stm32f4xx_ll_sdmmc.c ****   SDIO_SendCommand(SDIOx, &sdmmc_cmdinit);
 2075              		.loc 1 935 0
 2076 0014 4FF48063 		mov	r3, #1024
 2077 0018 0593     		str	r3, [sp, #20]
 936:Drivers/STM32F4xx_HAL_Driver/Src/stm32f4xx_ll_sdmmc.c ****   
 2078              		.loc 1 936 0
 2079 001a 01A9     		add	r1, sp, #4
 2080              	.LVL194:
 2081 001c FFF7FEFF 		bl	SDIO_SendCommand
 2082              	.LVL195:
 939:Drivers/STM32F4xx_HAL_Driver/Src/stm32f4xx_ll_sdmmc.c **** 
 2083              		.loc 1 939 0
 2084 0020 41F28832 		movw	r2, #5000
 2085 0024 2146     		mov	r1, r4
 2086 0026 2846     		mov	r0, r5
 2087 0028 FFF7FEFF 		bl	SDMMC_GetCmdResp1
 2088              	.LVL196:
 942:Drivers/STM32F4xx_HAL_Driver/Src/stm32f4xx_ll_sdmmc.c **** 
 2089              		.loc 1 942 0
 2090 002c 07B0     		add	sp, sp, #28
 2091              	.LCFI62:
 2092              		.cfi_def_cfa_offset 12
 2093              		@ sp needed
 2094 002e 30BD     		pop	{r4, r5, pc}
 2095              		.cfi_endproc
ARM GAS  /tmp/ccO3W952.s 			page 68


 2096              	.LFE153:
 2098              		.section	.text.SDMMC_CmdSendSCR,"ax",%progbits
 2099              		.align	2
 2100              		.global	SDMMC_CmdSendSCR
 2101              		.thumb
 2102              		.thumb_func
 2104              	SDMMC_CmdSendSCR:
 2105              	.LFB154:
 950:Drivers/STM32F4xx_HAL_Driver/Src/stm32f4xx_ll_sdmmc.c ****   SDIO_CmdInitTypeDef  sdmmc_cmdinit;
 2106              		.loc 1 950 0
 2107              		.cfi_startproc
 2108              		@ args = 0, pretend = 0, frame = 24
 2109              		@ frame_needed = 0, uses_anonymous_args = 0
 2110              	.LVL197:
 2111 0000 30B5     		push	{r4, r5, lr}
 2112              	.LCFI63:
 2113              		.cfi_def_cfa_offset 12
 2114              		.cfi_offset 4, -12
 2115              		.cfi_offset 5, -8
 2116              		.cfi_offset 14, -4
 2117 0002 87B0     		sub	sp, sp, #28
 2118              	.LCFI64:
 2119              		.cfi_def_cfa_offset 40
 2120 0004 0546     		mov	r5, r0
 2121              	.LVL198:
 955:Drivers/STM32F4xx_HAL_Driver/Src/stm32f4xx_ll_sdmmc.c ****   sdmmc_cmdinit.CmdIndex         = SDMMC_CMD_SD_APP_SEND_SCR;
 2122              		.loc 1 955 0
 2123 0006 0023     		movs	r3, #0
 2124 0008 0193     		str	r3, [sp, #4]
 956:Drivers/STM32F4xx_HAL_Driver/Src/stm32f4xx_ll_sdmmc.c ****   sdmmc_cmdinit.Response         = SDIO_RESPONSE_SHORT;
 2125              		.loc 1 956 0
 2126 000a 3324     		movs	r4, #51
 2127 000c 0294     		str	r4, [sp, #8]
 957:Drivers/STM32F4xx_HAL_Driver/Src/stm32f4xx_ll_sdmmc.c ****   sdmmc_cmdinit.WaitForInterrupt = SDIO_WAIT_NO;
 2128              		.loc 1 957 0
 2129 000e 4022     		movs	r2, #64
 2130 0010 0392     		str	r2, [sp, #12]
 958:Drivers/STM32F4xx_HAL_Driver/Src/stm32f4xx_ll_sdmmc.c ****   sdmmc_cmdinit.CPSM             = SDIO_CPSM_ENABLE;
 2131              		.loc 1 958 0
 2132 0012 0493     		str	r3, [sp, #16]
 959:Drivers/STM32F4xx_HAL_Driver/Src/stm32f4xx_ll_sdmmc.c ****   SDIO_SendCommand(SDIOx, &sdmmc_cmdinit);
 2133              		.loc 1 959 0
 2134 0014 4FF48063 		mov	r3, #1024
 2135 0018 0593     		str	r3, [sp, #20]
 960:Drivers/STM32F4xx_HAL_Driver/Src/stm32f4xx_ll_sdmmc.c ****   
 2136              		.loc 1 960 0
 2137 001a 01A9     		add	r1, sp, #4
 2138 001c FFF7FEFF 		bl	SDIO_SendCommand
 2139              	.LVL199:
 963:Drivers/STM32F4xx_HAL_Driver/Src/stm32f4xx_ll_sdmmc.c **** 
 2140              		.loc 1 963 0
 2141 0020 41F28832 		movw	r2, #5000
 2142 0024 2146     		mov	r1, r4
 2143 0026 2846     		mov	r0, r5
 2144 0028 FFF7FEFF 		bl	SDMMC_GetCmdResp1
 2145              	.LVL200:
 966:Drivers/STM32F4xx_HAL_Driver/Src/stm32f4xx_ll_sdmmc.c **** 
ARM GAS  /tmp/ccO3W952.s 			page 69


 2146              		.loc 1 966 0
 2147 002c 07B0     		add	sp, sp, #28
 2148              	.LCFI65:
 2149              		.cfi_def_cfa_offset 12
 2150              		@ sp needed
 2151 002e 30BD     		pop	{r4, r5, pc}
 2152              		.cfi_endproc
 2153              	.LFE154:
 2155              		.section	.text.SDMMC_CmdSendCID,"ax",%progbits
 2156              		.align	2
 2157              		.global	SDMMC_CmdSendCID
 2158              		.thumb
 2159              		.thumb_func
 2161              	SDMMC_CmdSendCID:
 2162              	.LFB155:
 974:Drivers/STM32F4xx_HAL_Driver/Src/stm32f4xx_ll_sdmmc.c ****   SDIO_CmdInitTypeDef  sdmmc_cmdinit;
 2163              		.loc 1 974 0
 2164              		.cfi_startproc
 2165              		@ args = 0, pretend = 0, frame = 24
 2166              		@ frame_needed = 0, uses_anonymous_args = 0
 2167              	.LVL201:
 2168 0000 10B5     		push	{r4, lr}
 2169              	.LCFI66:
 2170              		.cfi_def_cfa_offset 8
 2171              		.cfi_offset 4, -8
 2172              		.cfi_offset 14, -4
 2173 0002 86B0     		sub	sp, sp, #24
 2174              	.LCFI67:
 2175              		.cfi_def_cfa_offset 32
 2176 0004 0446     		mov	r4, r0
 2177              	.LVL202:
 979:Drivers/STM32F4xx_HAL_Driver/Src/stm32f4xx_ll_sdmmc.c ****   sdmmc_cmdinit.CmdIndex         = SDMMC_CMD_ALL_SEND_CID;
 2178              		.loc 1 979 0
 2179 0006 0023     		movs	r3, #0
 2180 0008 0193     		str	r3, [sp, #4]
 980:Drivers/STM32F4xx_HAL_Driver/Src/stm32f4xx_ll_sdmmc.c ****   sdmmc_cmdinit.Response         = SDIO_RESPONSE_LONG;
 2181              		.loc 1 980 0
 2182 000a 0222     		movs	r2, #2
 2183 000c 0292     		str	r2, [sp, #8]
 981:Drivers/STM32F4xx_HAL_Driver/Src/stm32f4xx_ll_sdmmc.c ****   sdmmc_cmdinit.WaitForInterrupt = SDIO_WAIT_NO;
 2184              		.loc 1 981 0
 2185 000e C022     		movs	r2, #192
 2186 0010 0392     		str	r2, [sp, #12]
 982:Drivers/STM32F4xx_HAL_Driver/Src/stm32f4xx_ll_sdmmc.c ****   sdmmc_cmdinit.CPSM             = SDIO_CPSM_ENABLE;
 2187              		.loc 1 982 0
 2188 0012 0493     		str	r3, [sp, #16]
 983:Drivers/STM32F4xx_HAL_Driver/Src/stm32f4xx_ll_sdmmc.c ****   SDIO_SendCommand(SDIOx, &sdmmc_cmdinit);
 2189              		.loc 1 983 0
 2190 0014 4FF48063 		mov	r3, #1024
 2191 0018 0593     		str	r3, [sp, #20]
 984:Drivers/STM32F4xx_HAL_Driver/Src/stm32f4xx_ll_sdmmc.c ****   
 2192              		.loc 1 984 0
 2193 001a 01A9     		add	r1, sp, #4
 2194 001c FFF7FEFF 		bl	SDIO_SendCommand
 2195              	.LVL203:
 987:Drivers/STM32F4xx_HAL_Driver/Src/stm32f4xx_ll_sdmmc.c **** 
 2196              		.loc 1 987 0
ARM GAS  /tmp/ccO3W952.s 			page 70


 2197 0020 2046     		mov	r0, r4
 2198 0022 FFF7FEFF 		bl	SDMMC_GetCmdResp2
 2199              	.LVL204:
 990:Drivers/STM32F4xx_HAL_Driver/Src/stm32f4xx_ll_sdmmc.c **** 
 2200              		.loc 1 990 0
 2201 0026 06B0     		add	sp, sp, #24
 2202              	.LCFI68:
 2203              		.cfi_def_cfa_offset 8
 2204              		@ sp needed
 2205 0028 10BD     		pop	{r4, pc}
 2206              		.cfi_endproc
 2207              	.LFE155:
 2209 002a 00BF     		.section	.text.SDMMC_CmdSendCSD,"ax",%progbits
 2210              		.align	2
 2211              		.global	SDMMC_CmdSendCSD
 2212              		.thumb
 2213              		.thumb_func
 2215              	SDMMC_CmdSendCSD:
 2216              	.LFB156:
 998:Drivers/STM32F4xx_HAL_Driver/Src/stm32f4xx_ll_sdmmc.c ****   SDIO_CmdInitTypeDef  sdmmc_cmdinit;
 2217              		.loc 1 998 0
 2218              		.cfi_startproc
 2219              		@ args = 0, pretend = 0, frame = 24
 2220              		@ frame_needed = 0, uses_anonymous_args = 0
 2221              	.LVL205:
 2222 0000 10B5     		push	{r4, lr}
 2223              	.LCFI69:
 2224              		.cfi_def_cfa_offset 8
 2225              		.cfi_offset 4, -8
 2226              		.cfi_offset 14, -4
 2227 0002 86B0     		sub	sp, sp, #24
 2228              	.LCFI70:
 2229              		.cfi_def_cfa_offset 32
 2230 0004 0446     		mov	r4, r0
 2231              	.LVL206:
1003:Drivers/STM32F4xx_HAL_Driver/Src/stm32f4xx_ll_sdmmc.c ****   sdmmc_cmdinit.CmdIndex         = SDMMC_CMD_SEND_CSD;
 2232              		.loc 1 1003 0
 2233 0006 0191     		str	r1, [sp, #4]
1004:Drivers/STM32F4xx_HAL_Driver/Src/stm32f4xx_ll_sdmmc.c ****   sdmmc_cmdinit.Response         = SDIO_RESPONSE_LONG;
 2234              		.loc 1 1004 0
 2235 0008 0923     		movs	r3, #9
 2236 000a 0293     		str	r3, [sp, #8]
1005:Drivers/STM32F4xx_HAL_Driver/Src/stm32f4xx_ll_sdmmc.c ****   sdmmc_cmdinit.WaitForInterrupt = SDIO_WAIT_NO;
 2237              		.loc 1 1005 0
 2238 000c C023     		movs	r3, #192
 2239 000e 0393     		str	r3, [sp, #12]
1006:Drivers/STM32F4xx_HAL_Driver/Src/stm32f4xx_ll_sdmmc.c ****   sdmmc_cmdinit.CPSM             = SDIO_CPSM_ENABLE;
 2240              		.loc 1 1006 0
 2241 0010 0023     		movs	r3, #0
 2242 0012 0493     		str	r3, [sp, #16]
1007:Drivers/STM32F4xx_HAL_Driver/Src/stm32f4xx_ll_sdmmc.c ****   SDIO_SendCommand(SDIOx, &sdmmc_cmdinit);
 2243              		.loc 1 1007 0
 2244 0014 4FF48063 		mov	r3, #1024
 2245 0018 0593     		str	r3, [sp, #20]
1008:Drivers/STM32F4xx_HAL_Driver/Src/stm32f4xx_ll_sdmmc.c ****   
 2246              		.loc 1 1008 0
 2247 001a 01A9     		add	r1, sp, #4
ARM GAS  /tmp/ccO3W952.s 			page 71


 2248              	.LVL207:
 2249 001c FFF7FEFF 		bl	SDIO_SendCommand
 2250              	.LVL208:
1011:Drivers/STM32F4xx_HAL_Driver/Src/stm32f4xx_ll_sdmmc.c **** 
 2251              		.loc 1 1011 0
 2252 0020 2046     		mov	r0, r4
 2253 0022 FFF7FEFF 		bl	SDMMC_GetCmdResp2
 2254              	.LVL209:
1014:Drivers/STM32F4xx_HAL_Driver/Src/stm32f4xx_ll_sdmmc.c **** 
 2255              		.loc 1 1014 0
 2256 0026 06B0     		add	sp, sp, #24
 2257              	.LCFI71:
 2258              		.cfi_def_cfa_offset 8
 2259              		@ sp needed
 2260 0028 10BD     		pop	{r4, pc}
 2261              		.cfi_endproc
 2262              	.LFE156:
 2264 002a 00BF     		.section	.text.SDMMC_CmdSetRelAdd,"ax",%progbits
 2265              		.align	2
 2266              		.global	SDMMC_CmdSetRelAdd
 2267              		.thumb
 2268              		.thumb_func
 2270              	SDMMC_CmdSetRelAdd:
 2271              	.LFB157:
1022:Drivers/STM32F4xx_HAL_Driver/Src/stm32f4xx_ll_sdmmc.c ****   SDIO_CmdInitTypeDef  sdmmc_cmdinit;
 2272              		.loc 1 1022 0
 2273              		.cfi_startproc
 2274              		@ args = 0, pretend = 0, frame = 24
 2275              		@ frame_needed = 0, uses_anonymous_args = 0
 2276              	.LVL210:
 2277 0000 70B5     		push	{r4, r5, r6, lr}
 2278              	.LCFI72:
 2279              		.cfi_def_cfa_offset 16
 2280              		.cfi_offset 4, -16
 2281              		.cfi_offset 5, -12
 2282              		.cfi_offset 6, -8
 2283              		.cfi_offset 14, -4
 2284 0002 86B0     		sub	sp, sp, #24
 2285              	.LCFI73:
 2286              		.cfi_def_cfa_offset 40
 2287 0004 0546     		mov	r5, r0
 2288 0006 0E46     		mov	r6, r1
 2289              	.LVL211:
1027:Drivers/STM32F4xx_HAL_Driver/Src/stm32f4xx_ll_sdmmc.c ****   sdmmc_cmdinit.CmdIndex         = SDMMC_CMD_SET_REL_ADDR;
 2290              		.loc 1 1027 0
 2291 0008 0023     		movs	r3, #0
 2292 000a 0193     		str	r3, [sp, #4]
1028:Drivers/STM32F4xx_HAL_Driver/Src/stm32f4xx_ll_sdmmc.c ****   sdmmc_cmdinit.Response         = SDIO_RESPONSE_SHORT;
 2293              		.loc 1 1028 0
 2294 000c 0324     		movs	r4, #3
 2295 000e 0294     		str	r4, [sp, #8]
1029:Drivers/STM32F4xx_HAL_Driver/Src/stm32f4xx_ll_sdmmc.c ****   sdmmc_cmdinit.WaitForInterrupt = SDIO_WAIT_NO;
 2296              		.loc 1 1029 0
 2297 0010 4022     		movs	r2, #64
 2298 0012 0392     		str	r2, [sp, #12]
1030:Drivers/STM32F4xx_HAL_Driver/Src/stm32f4xx_ll_sdmmc.c ****   sdmmc_cmdinit.CPSM             = SDIO_CPSM_ENABLE;
 2299              		.loc 1 1030 0
ARM GAS  /tmp/ccO3W952.s 			page 72


 2300 0014 0493     		str	r3, [sp, #16]
1031:Drivers/STM32F4xx_HAL_Driver/Src/stm32f4xx_ll_sdmmc.c ****   SDIO_SendCommand(SDIOx, &sdmmc_cmdinit);
 2301              		.loc 1 1031 0
 2302 0016 4FF48063 		mov	r3, #1024
 2303 001a 0593     		str	r3, [sp, #20]
1032:Drivers/STM32F4xx_HAL_Driver/Src/stm32f4xx_ll_sdmmc.c ****   
 2304              		.loc 1 1032 0
 2305 001c 01A9     		add	r1, sp, #4
 2306              	.LVL212:
 2307 001e FFF7FEFF 		bl	SDIO_SendCommand
 2308              	.LVL213:
1035:Drivers/STM32F4xx_HAL_Driver/Src/stm32f4xx_ll_sdmmc.c **** 
 2309              		.loc 1 1035 0
 2310 0022 3246     		mov	r2, r6
 2311 0024 2146     		mov	r1, r4
 2312 0026 2846     		mov	r0, r5
 2313 0028 FFF7FEFF 		bl	SDMMC_GetCmdResp6
 2314              	.LVL214:
1038:Drivers/STM32F4xx_HAL_Driver/Src/stm32f4xx_ll_sdmmc.c **** 
 2315              		.loc 1 1038 0
 2316 002c 06B0     		add	sp, sp, #24
 2317              	.LCFI74:
 2318              		.cfi_def_cfa_offset 16
 2319              		@ sp needed
 2320 002e 70BD     		pop	{r4, r5, r6, pc}
 2321              		.cfi_endproc
 2322              	.LFE157:
 2324              		.section	.text.SDMMC_CmdSendStatus,"ax",%progbits
 2325              		.align	2
 2326              		.global	SDMMC_CmdSendStatus
 2327              		.thumb
 2328              		.thumb_func
 2330              	SDMMC_CmdSendStatus:
 2331              	.LFB158:
1046:Drivers/STM32F4xx_HAL_Driver/Src/stm32f4xx_ll_sdmmc.c ****   SDIO_CmdInitTypeDef  sdmmc_cmdinit;
 2332              		.loc 1 1046 0
 2333              		.cfi_startproc
 2334              		@ args = 0, pretend = 0, frame = 24
 2335              		@ frame_needed = 0, uses_anonymous_args = 0
 2336              	.LVL215:
 2337 0000 30B5     		push	{r4, r5, lr}
 2338              	.LCFI75:
 2339              		.cfi_def_cfa_offset 12
 2340              		.cfi_offset 4, -12
 2341              		.cfi_offset 5, -8
 2342              		.cfi_offset 14, -4
 2343 0002 87B0     		sub	sp, sp, #28
 2344              	.LCFI76:
 2345              		.cfi_def_cfa_offset 40
 2346 0004 0546     		mov	r5, r0
 2347              	.LVL216:
1050:Drivers/STM32F4xx_HAL_Driver/Src/stm32f4xx_ll_sdmmc.c ****   sdmmc_cmdinit.CmdIndex         = SDMMC_CMD_SEND_STATUS;
 2348              		.loc 1 1050 0
 2349 0006 0191     		str	r1, [sp, #4]
1051:Drivers/STM32F4xx_HAL_Driver/Src/stm32f4xx_ll_sdmmc.c ****   sdmmc_cmdinit.Response         = SDIO_RESPONSE_SHORT;
 2350              		.loc 1 1051 0
 2351 0008 0D24     		movs	r4, #13
ARM GAS  /tmp/ccO3W952.s 			page 73


 2352 000a 0294     		str	r4, [sp, #8]
1052:Drivers/STM32F4xx_HAL_Driver/Src/stm32f4xx_ll_sdmmc.c ****   sdmmc_cmdinit.WaitForInterrupt = SDIO_WAIT_NO;
 2353              		.loc 1 1052 0
 2354 000c 4023     		movs	r3, #64
 2355 000e 0393     		str	r3, [sp, #12]
1053:Drivers/STM32F4xx_HAL_Driver/Src/stm32f4xx_ll_sdmmc.c ****   sdmmc_cmdinit.CPSM             = SDIO_CPSM_ENABLE;
 2356              		.loc 1 1053 0
 2357 0010 0023     		movs	r3, #0
 2358 0012 0493     		str	r3, [sp, #16]
1054:Drivers/STM32F4xx_HAL_Driver/Src/stm32f4xx_ll_sdmmc.c ****   SDIO_SendCommand(SDIOx, &sdmmc_cmdinit);
 2359              		.loc 1 1054 0
 2360 0014 4FF48063 		mov	r3, #1024
 2361 0018 0593     		str	r3, [sp, #20]
1055:Drivers/STM32F4xx_HAL_Driver/Src/stm32f4xx_ll_sdmmc.c ****   
 2362              		.loc 1 1055 0
 2363 001a 01A9     		add	r1, sp, #4
 2364              	.LVL217:
 2365 001c FFF7FEFF 		bl	SDIO_SendCommand
 2366              	.LVL218:
1058:Drivers/STM32F4xx_HAL_Driver/Src/stm32f4xx_ll_sdmmc.c **** 
 2367              		.loc 1 1058 0
 2368 0020 41F28832 		movw	r2, #5000
 2369 0024 2146     		mov	r1, r4
 2370 0026 2846     		mov	r0, r5
 2371 0028 FFF7FEFF 		bl	SDMMC_GetCmdResp1
 2372              	.LVL219:
1061:Drivers/STM32F4xx_HAL_Driver/Src/stm32f4xx_ll_sdmmc.c **** 
 2373              		.loc 1 1061 0
 2374 002c 07B0     		add	sp, sp, #28
 2375              	.LCFI77:
 2376              		.cfi_def_cfa_offset 12
 2377              		@ sp needed
 2378 002e 30BD     		pop	{r4, r5, pc}
 2379              		.cfi_endproc
 2380              	.LFE158:
 2382              		.section	.text.SDMMC_CmdStatusRegister,"ax",%progbits
 2383              		.align	2
 2384              		.global	SDMMC_CmdStatusRegister
 2385              		.thumb
 2386              		.thumb_func
 2388              	SDMMC_CmdStatusRegister:
 2389              	.LFB159:
1069:Drivers/STM32F4xx_HAL_Driver/Src/stm32f4xx_ll_sdmmc.c ****   SDIO_CmdInitTypeDef  sdmmc_cmdinit;
 2390              		.loc 1 1069 0
 2391              		.cfi_startproc
 2392              		@ args = 0, pretend = 0, frame = 24
 2393              		@ frame_needed = 0, uses_anonymous_args = 0
 2394              	.LVL220:
 2395 0000 30B5     		push	{r4, r5, lr}
 2396              	.LCFI78:
 2397              		.cfi_def_cfa_offset 12
 2398              		.cfi_offset 4, -12
 2399              		.cfi_offset 5, -8
 2400              		.cfi_offset 14, -4
 2401 0002 87B0     		sub	sp, sp, #28
 2402              	.LCFI79:
 2403              		.cfi_def_cfa_offset 40
ARM GAS  /tmp/ccO3W952.s 			page 74


 2404 0004 0546     		mov	r5, r0
 2405              	.LVL221:
1073:Drivers/STM32F4xx_HAL_Driver/Src/stm32f4xx_ll_sdmmc.c ****   sdmmc_cmdinit.CmdIndex         = SDMMC_CMD_SD_APP_STATUS;
 2406              		.loc 1 1073 0
 2407 0006 0023     		movs	r3, #0
 2408 0008 0193     		str	r3, [sp, #4]
1074:Drivers/STM32F4xx_HAL_Driver/Src/stm32f4xx_ll_sdmmc.c ****   sdmmc_cmdinit.Response         = SDIO_RESPONSE_SHORT;
 2409              		.loc 1 1074 0
 2410 000a 0D24     		movs	r4, #13
 2411 000c 0294     		str	r4, [sp, #8]
1075:Drivers/STM32F4xx_HAL_Driver/Src/stm32f4xx_ll_sdmmc.c ****   sdmmc_cmdinit.WaitForInterrupt = SDIO_WAIT_NO;
 2412              		.loc 1 1075 0
 2413 000e 4022     		movs	r2, #64
 2414 0010 0392     		str	r2, [sp, #12]
1076:Drivers/STM32F4xx_HAL_Driver/Src/stm32f4xx_ll_sdmmc.c ****   sdmmc_cmdinit.CPSM             = SDIO_CPSM_ENABLE;
 2415              		.loc 1 1076 0
 2416 0012 0493     		str	r3, [sp, #16]
1077:Drivers/STM32F4xx_HAL_Driver/Src/stm32f4xx_ll_sdmmc.c ****   SDIO_SendCommand(SDIOx, &sdmmc_cmdinit);
 2417              		.loc 1 1077 0
 2418 0014 4FF48063 		mov	r3, #1024
 2419 0018 0593     		str	r3, [sp, #20]
1078:Drivers/STM32F4xx_HAL_Driver/Src/stm32f4xx_ll_sdmmc.c ****   
 2420              		.loc 1 1078 0
 2421 001a 01A9     		add	r1, sp, #4
 2422 001c FFF7FEFF 		bl	SDIO_SendCommand
 2423              	.LVL222:
1081:Drivers/STM32F4xx_HAL_Driver/Src/stm32f4xx_ll_sdmmc.c **** 
 2424              		.loc 1 1081 0
 2425 0020 41F28832 		movw	r2, #5000
 2426 0024 2146     		mov	r1, r4
 2427 0026 2846     		mov	r0, r5
 2428 0028 FFF7FEFF 		bl	SDMMC_GetCmdResp1
 2429              	.LVL223:
1084:Drivers/STM32F4xx_HAL_Driver/Src/stm32f4xx_ll_sdmmc.c **** 
 2430              		.loc 1 1084 0
 2431 002c 07B0     		add	sp, sp, #28
 2432              	.LCFI80:
 2433              		.cfi_def_cfa_offset 12
 2434              		@ sp needed
 2435 002e 30BD     		pop	{r4, r5, pc}
 2436              		.cfi_endproc
 2437              	.LFE159:
 2439              		.section	.text.SDMMC_CmdOpCondition,"ax",%progbits
 2440              		.align	2
 2441              		.global	SDMMC_CmdOpCondition
 2442              		.thumb
 2443              		.thumb_func
 2445              	SDMMC_CmdOpCondition:
 2446              	.LFB160:
1094:Drivers/STM32F4xx_HAL_Driver/Src/stm32f4xx_ll_sdmmc.c ****   SDIO_CmdInitTypeDef  sdmmc_cmdinit;
 2447              		.loc 1 1094 0
 2448              		.cfi_startproc
 2449              		@ args = 0, pretend = 0, frame = 24
 2450              		@ frame_needed = 0, uses_anonymous_args = 0
 2451              	.LVL224:
 2452 0000 10B5     		push	{r4, lr}
 2453              	.LCFI81:
ARM GAS  /tmp/ccO3W952.s 			page 75


 2454              		.cfi_def_cfa_offset 8
 2455              		.cfi_offset 4, -8
 2456              		.cfi_offset 14, -4
 2457 0002 86B0     		sub	sp, sp, #24
 2458              	.LCFI82:
 2459              		.cfi_def_cfa_offset 32
 2460 0004 0446     		mov	r4, r0
 2461              	.LVL225:
1098:Drivers/STM32F4xx_HAL_Driver/Src/stm32f4xx_ll_sdmmc.c ****   sdmmc_cmdinit.CmdIndex         = SDMMC_CMD_SEND_OP_COND;
 2462              		.loc 1 1098 0
 2463 0006 0191     		str	r1, [sp, #4]
1099:Drivers/STM32F4xx_HAL_Driver/Src/stm32f4xx_ll_sdmmc.c ****   sdmmc_cmdinit.Response         = SDIO_RESPONSE_SHORT;
 2464              		.loc 1 1099 0
 2465 0008 0123     		movs	r3, #1
 2466 000a 0293     		str	r3, [sp, #8]
1100:Drivers/STM32F4xx_HAL_Driver/Src/stm32f4xx_ll_sdmmc.c ****   sdmmc_cmdinit.WaitForInterrupt = SDIO_WAIT_NO;
 2467              		.loc 1 1100 0
 2468 000c 4023     		movs	r3, #64
 2469 000e 0393     		str	r3, [sp, #12]
1101:Drivers/STM32F4xx_HAL_Driver/Src/stm32f4xx_ll_sdmmc.c ****   sdmmc_cmdinit.CPSM             = SDIO_CPSM_ENABLE;
 2470              		.loc 1 1101 0
 2471 0010 0023     		movs	r3, #0
 2472 0012 0493     		str	r3, [sp, #16]
1102:Drivers/STM32F4xx_HAL_Driver/Src/stm32f4xx_ll_sdmmc.c ****   SDIO_SendCommand(SDIOx, &sdmmc_cmdinit);
 2473              		.loc 1 1102 0
 2474 0014 4FF48063 		mov	r3, #1024
 2475 0018 0593     		str	r3, [sp, #20]
1103:Drivers/STM32F4xx_HAL_Driver/Src/stm32f4xx_ll_sdmmc.c ****   
 2476              		.loc 1 1103 0
 2477 001a 01A9     		add	r1, sp, #4
 2478              	.LVL226:
 2479 001c FFF7FEFF 		bl	SDIO_SendCommand
 2480              	.LVL227:
1106:Drivers/STM32F4xx_HAL_Driver/Src/stm32f4xx_ll_sdmmc.c **** 
 2481              		.loc 1 1106 0
 2482 0020 2046     		mov	r0, r4
 2483 0022 FFF7FEFF 		bl	SDMMC_GetCmdResp3
 2484              	.LVL228:
1109:Drivers/STM32F4xx_HAL_Driver/Src/stm32f4xx_ll_sdmmc.c **** 
 2485              		.loc 1 1109 0
 2486 0026 06B0     		add	sp, sp, #24
 2487              	.LCFI83:
 2488              		.cfi_def_cfa_offset 8
 2489              		@ sp needed
 2490 0028 10BD     		pop	{r4, pc}
 2491              		.cfi_endproc
 2492              	.LFE160:
 2494 002a 00BF     		.section	.text.SDMMC_CmdSwitch,"ax",%progbits
 2495              		.align	2
 2496              		.global	SDMMC_CmdSwitch
 2497              		.thumb
 2498              		.thumb_func
 2500              	SDMMC_CmdSwitch:
 2501              	.LFB161:
1118:Drivers/STM32F4xx_HAL_Driver/Src/stm32f4xx_ll_sdmmc.c ****   SDIO_CmdInitTypeDef  sdmmc_cmdinit;
 2502              		.loc 1 1118 0
 2503              		.cfi_startproc
ARM GAS  /tmp/ccO3W952.s 			page 76


 2504              		@ args = 0, pretend = 0, frame = 24
 2505              		@ frame_needed = 0, uses_anonymous_args = 0
 2506              	.LVL229:
 2507 0000 30B5     		push	{r4, r5, lr}
 2508              	.LCFI84:
 2509              		.cfi_def_cfa_offset 12
 2510              		.cfi_offset 4, -12
 2511              		.cfi_offset 5, -8
 2512              		.cfi_offset 14, -4
 2513 0002 87B0     		sub	sp, sp, #28
 2514              	.LCFI85:
 2515              		.cfi_def_cfa_offset 40
 2516 0004 0546     		mov	r5, r0
 2517              	.LVL230:
1122:Drivers/STM32F4xx_HAL_Driver/Src/stm32f4xx_ll_sdmmc.c ****   sdmmc_cmdinit.CmdIndex         = SDMMC_CMD_HS_SWITCH;
 2518              		.loc 1 1122 0
 2519 0006 0191     		str	r1, [sp, #4]
1123:Drivers/STM32F4xx_HAL_Driver/Src/stm32f4xx_ll_sdmmc.c ****   sdmmc_cmdinit.Response         = SDIO_RESPONSE_SHORT;
 2520              		.loc 1 1123 0
 2521 0008 0624     		movs	r4, #6
 2522 000a 0294     		str	r4, [sp, #8]
1124:Drivers/STM32F4xx_HAL_Driver/Src/stm32f4xx_ll_sdmmc.c ****   sdmmc_cmdinit.WaitForInterrupt = SDIO_WAIT_NO;
 2523              		.loc 1 1124 0
 2524 000c 4023     		movs	r3, #64
 2525 000e 0393     		str	r3, [sp, #12]
1125:Drivers/STM32F4xx_HAL_Driver/Src/stm32f4xx_ll_sdmmc.c ****   sdmmc_cmdinit.CPSM             = SDIO_CPSM_ENABLE;
 2526              		.loc 1 1125 0
 2527 0010 0023     		movs	r3, #0
 2528 0012 0493     		str	r3, [sp, #16]
1126:Drivers/STM32F4xx_HAL_Driver/Src/stm32f4xx_ll_sdmmc.c ****   SDIO_SendCommand(SDIOx, &sdmmc_cmdinit);
 2529              		.loc 1 1126 0
 2530 0014 4FF48063 		mov	r3, #1024
 2531 0018 0593     		str	r3, [sp, #20]
1127:Drivers/STM32F4xx_HAL_Driver/Src/stm32f4xx_ll_sdmmc.c ****   
 2532              		.loc 1 1127 0
 2533 001a 01A9     		add	r1, sp, #4
 2534              	.LVL231:
 2535 001c FFF7FEFF 		bl	SDIO_SendCommand
 2536              	.LVL232:
1130:Drivers/STM32F4xx_HAL_Driver/Src/stm32f4xx_ll_sdmmc.c **** 
 2537              		.loc 1 1130 0
 2538 0020 41F28832 		movw	r2, #5000
 2539 0024 2146     		mov	r1, r4
 2540 0026 2846     		mov	r0, r5
 2541 0028 FFF7FEFF 		bl	SDMMC_GetCmdResp1
 2542              	.LVL233:
1133:Drivers/STM32F4xx_HAL_Driver/Src/stm32f4xx_ll_sdmmc.c **** 
 2543              		.loc 1 1133 0
 2544 002c 07B0     		add	sp, sp, #28
 2545              	.LCFI86:
 2546              		.cfi_def_cfa_offset 12
 2547              		@ sp needed
 2548 002e 30BD     		pop	{r4, r5, pc}
 2549              		.cfi_endproc
 2550              	.LFE161:
 2552              		.text
 2553              	.Letext0:
ARM GAS  /tmp/ccO3W952.s 			page 77


 2554              		.file 2 "/home/ada/Downloads/gcc-arm-none-eabi-5_4-2016q3/arm-none-eabi/include/machine/_default_t
 2555              		.file 3 "/home/ada/Downloads/gcc-arm-none-eabi-5_4-2016q3/arm-none-eabi/include/sys/_stdint.h"
 2556              		.file 4 "Drivers/CMSIS/Device/ST/STM32F4xx/Include/stm32f407xx.h"
 2557              		.file 5 "Drivers/CMSIS/Device/ST/STM32F4xx/Include/stm32f4xx.h"
 2558              		.file 6 "Drivers/STM32F4xx_HAL_Driver/Inc/stm32f4xx_hal_def.h"
 2559              		.file 7 "Drivers/STM32F4xx_HAL_Driver/Inc/stm32f4xx_ll_sdmmc.h"
 2560              		.file 8 "Drivers/CMSIS/Include/core_cm4.h"
 2561              		.file 9 "Drivers/CMSIS/Device/ST/STM32F4xx/Include/system_stm32f4xx.h"
ARM GAS  /tmp/ccO3W952.s 			page 78


DEFINED SYMBOLS
                            *ABS*:00000000 stm32f4xx_ll_sdmmc.c
     /tmp/ccO3W952.s:22     .text.SDMMC_GetCmdError:00000000 $t
     /tmp/ccO3W952.s:26     .text.SDMMC_GetCmdError:00000000 SDMMC_GetCmdError
     /tmp/ccO3W952.s:73     .text.SDMMC_GetCmdError:00000034 $d
     /tmp/ccO3W952.s:79     .text.SDMMC_GetCmdResp2:00000000 $t
     /tmp/ccO3W952.s:83     .text.SDMMC_GetCmdResp2:00000000 SDMMC_GetCmdResp2
     /tmp/ccO3W952.s:161    .text.SDMMC_GetCmdResp2:00000054 $d
     /tmp/ccO3W952.s:167    .text.SDMMC_GetCmdResp3:00000000 $t
     /tmp/ccO3W952.s:171    .text.SDMMC_GetCmdResp3:00000000 SDMMC_GetCmdResp3
     /tmp/ccO3W952.s:237    .text.SDMMC_GetCmdResp3:00000048 $d
     /tmp/ccO3W952.s:243    .text.SDMMC_GetCmdResp7:00000000 $t
     /tmp/ccO3W952.s:247    .text.SDMMC_GetCmdResp7:00000000 SDMMC_GetCmdResp7
     /tmp/ccO3W952.s:311    .text.SDMMC_GetCmdResp7:0000004c $d
     /tmp/ccO3W952.s:317    .text.SDIO_Init:00000000 $t
     /tmp/ccO3W952.s:322    .text.SDIO_Init:00000000 SDIO_Init
     /tmp/ccO3W952.s:382    .text.SDIO_ReadFIFO:00000000 $t
     /tmp/ccO3W952.s:387    .text.SDIO_ReadFIFO:00000000 SDIO_ReadFIFO
     /tmp/ccO3W952.s:404    .text.SDIO_WriteFIFO:00000000 $t
     /tmp/ccO3W952.s:409    .text.SDIO_WriteFIFO:00000000 SDIO_WriteFIFO
     /tmp/ccO3W952.s:428    .text.SDIO_PowerState_ON:00000000 $t
     /tmp/ccO3W952.s:433    .text.SDIO_PowerState_ON:00000000 SDIO_PowerState_ON
     /tmp/ccO3W952.s:452    .text.SDIO_PowerState_OFF:00000000 $t
     /tmp/ccO3W952.s:457    .text.SDIO_PowerState_OFF:00000000 SDIO_PowerState_OFF
     /tmp/ccO3W952.s:476    .text.SDIO_GetPowerState:00000000 $t
     /tmp/ccO3W952.s:481    .text.SDIO_GetPowerState:00000000 SDIO_GetPowerState
     /tmp/ccO3W952.s:499    .text.SDIO_SendCommand:00000000 $t
     /tmp/ccO3W952.s:504    .text.SDIO_SendCommand:00000000 SDIO_SendCommand
     /tmp/ccO3W952.s:544    .text.SDIO_GetCommandResponse:00000000 $t
     /tmp/ccO3W952.s:549    .text.SDIO_GetCommandResponse:00000000 SDIO_GetCommandResponse
     /tmp/ccO3W952.s:567    .text.SDIO_GetResponse:00000000 $t
     /tmp/ccO3W952.s:572    .text.SDIO_GetResponse:00000000 SDIO_GetResponse
     /tmp/ccO3W952.s:606    .text.SDMMC_GetCmdResp1:00000000 $t
     /tmp/ccO3W952.s:610    .text.SDMMC_GetCmdResp1:00000000 SDMMC_GetCmdResp1
     /tmp/ccO3W952.s:859    .text.SDMMC_GetCmdResp1:00000148 $d
     /tmp/ccO3W952.s:866    .text.SDMMC_GetCmdResp6:00000000 $t
     /tmp/ccO3W952.s:870    .text.SDMMC_GetCmdResp6:00000000 SDMMC_GetCmdResp6
     /tmp/ccO3W952.s:997    .text.SDMMC_GetCmdResp6:00000098 $d
     /tmp/ccO3W952.s:1003   .text.SDIO_ConfigData:00000000 $t
     /tmp/ccO3W952.s:1008   .text.SDIO_ConfigData:00000000 SDIO_ConfigData
     /tmp/ccO3W952.s:1050   .text.SDIO_GetDataCounter:00000000 $t
     /tmp/ccO3W952.s:1055   .text.SDIO_GetDataCounter:00000000 SDIO_GetDataCounter
     /tmp/ccO3W952.s:1072   .text.SDIO_GetFIFOCount:00000000 $t
     /tmp/ccO3W952.s:1077   .text.SDIO_GetFIFOCount:00000000 SDIO_GetFIFOCount
     /tmp/ccO3W952.s:1094   .text.SDIO_SetSDMMCReadWaitMode:00000000 $t
     /tmp/ccO3W952.s:1099   .text.SDIO_SetSDMMCReadWaitMode:00000000 SDIO_SetSDMMCReadWaitMode
     /tmp/ccO3W952.s:1121   .text.SDMMC_CmdBlockLength:00000000 $t
     /tmp/ccO3W952.s:1126   .text.SDMMC_CmdBlockLength:00000000 SDMMC_CmdBlockLength
     /tmp/ccO3W952.s:1179   .text.SDMMC_CmdReadSingleBlock:00000000 $t
     /tmp/ccO3W952.s:1184   .text.SDMMC_CmdReadSingleBlock:00000000 SDMMC_CmdReadSingleBlock
     /tmp/ccO3W952.s:1237   .text.SDMMC_CmdReadMultiBlock:00000000 $t
     /tmp/ccO3W952.s:1242   .text.SDMMC_CmdReadMultiBlock:00000000 SDMMC_CmdReadMultiBlock
     /tmp/ccO3W952.s:1295   .text.SDMMC_CmdWriteSingleBlock:00000000 $t
     /tmp/ccO3W952.s:1300   .text.SDMMC_CmdWriteSingleBlock:00000000 SDMMC_CmdWriteSingleBlock
     /tmp/ccO3W952.s:1353   .text.SDMMC_CmdWriteMultiBlock:00000000 $t
     /tmp/ccO3W952.s:1358   .text.SDMMC_CmdWriteMultiBlock:00000000 SDMMC_CmdWriteMultiBlock
     /tmp/ccO3W952.s:1411   .text.SDMMC_CmdSDEraseStartAdd:00000000 $t
ARM GAS  /tmp/ccO3W952.s 			page 79


     /tmp/ccO3W952.s:1416   .text.SDMMC_CmdSDEraseStartAdd:00000000 SDMMC_CmdSDEraseStartAdd
     /tmp/ccO3W952.s:1469   .text.SDMMC_CmdSDEraseEndAdd:00000000 $t
     /tmp/ccO3W952.s:1474   .text.SDMMC_CmdSDEraseEndAdd:00000000 SDMMC_CmdSDEraseEndAdd
     /tmp/ccO3W952.s:1527   .text.SDMMC_CmdEraseStartAdd:00000000 $t
     /tmp/ccO3W952.s:1532   .text.SDMMC_CmdEraseStartAdd:00000000 SDMMC_CmdEraseStartAdd
     /tmp/ccO3W952.s:1585   .text.SDMMC_CmdEraseEndAdd:00000000 $t
     /tmp/ccO3W952.s:1590   .text.SDMMC_CmdEraseEndAdd:00000000 SDMMC_CmdEraseEndAdd
     /tmp/ccO3W952.s:1643   .text.SDMMC_CmdErase:00000000 $t
     /tmp/ccO3W952.s:1648   .text.SDMMC_CmdErase:00000000 SDMMC_CmdErase
     /tmp/ccO3W952.s:1700   .text.SDMMC_CmdStopTransfer:00000000 $t
     /tmp/ccO3W952.s:1705   .text.SDMMC_CmdStopTransfer:00000000 SDMMC_CmdStopTransfer
     /tmp/ccO3W952.s:1757   .text.SDMMC_CmdStopTransfer:00000030 $d
     /tmp/ccO3W952.s:1762   .text.SDMMC_CmdSelDesel:00000000 $t
     /tmp/ccO3W952.s:1767   .text.SDMMC_CmdSelDesel:00000000 SDMMC_CmdSelDesel
     /tmp/ccO3W952.s:1819   .text.SDMMC_CmdGoIdleState:00000000 $t
     /tmp/ccO3W952.s:1824   .text.SDMMC_CmdGoIdleState:00000000 SDMMC_CmdGoIdleState
     /tmp/ccO3W952.s:1871   .text.SDMMC_CmdOperCond:00000000 $t
     /tmp/ccO3W952.s:1876   .text.SDMMC_CmdOperCond:00000000 SDMMC_CmdOperCond
     /tmp/ccO3W952.s:1926   .text.SDMMC_CmdAppCommand:00000000 $t
     /tmp/ccO3W952.s:1931   .text.SDMMC_CmdAppCommand:00000000 SDMMC_CmdAppCommand
     /tmp/ccO3W952.s:1984   .text.SDMMC_CmdAppOperCommand:00000000 $t
     /tmp/ccO3W952.s:1989   .text.SDMMC_CmdAppOperCommand:00000000 SDMMC_CmdAppOperCommand
     /tmp/ccO3W952.s:2041   .text.SDMMC_CmdBusWidth:00000000 $t
     /tmp/ccO3W952.s:2046   .text.SDMMC_CmdBusWidth:00000000 SDMMC_CmdBusWidth
     /tmp/ccO3W952.s:2099   .text.SDMMC_CmdSendSCR:00000000 $t
     /tmp/ccO3W952.s:2104   .text.SDMMC_CmdSendSCR:00000000 SDMMC_CmdSendSCR
     /tmp/ccO3W952.s:2156   .text.SDMMC_CmdSendCID:00000000 $t
     /tmp/ccO3W952.s:2161   .text.SDMMC_CmdSendCID:00000000 SDMMC_CmdSendCID
     /tmp/ccO3W952.s:2210   .text.SDMMC_CmdSendCSD:00000000 $t
     /tmp/ccO3W952.s:2215   .text.SDMMC_CmdSendCSD:00000000 SDMMC_CmdSendCSD
     /tmp/ccO3W952.s:2265   .text.SDMMC_CmdSetRelAdd:00000000 $t
     /tmp/ccO3W952.s:2270   .text.SDMMC_CmdSetRelAdd:00000000 SDMMC_CmdSetRelAdd
     /tmp/ccO3W952.s:2325   .text.SDMMC_CmdSendStatus:00000000 $t
     /tmp/ccO3W952.s:2330   .text.SDMMC_CmdSendStatus:00000000 SDMMC_CmdSendStatus
     /tmp/ccO3W952.s:2383   .text.SDMMC_CmdStatusRegister:00000000 $t
     /tmp/ccO3W952.s:2388   .text.SDMMC_CmdStatusRegister:00000000 SDMMC_CmdStatusRegister
     /tmp/ccO3W952.s:2440   .text.SDMMC_CmdOpCondition:00000000 $t
     /tmp/ccO3W952.s:2445   .text.SDMMC_CmdOpCondition:00000000 SDMMC_CmdOpCondition
     /tmp/ccO3W952.s:2495   .text.SDMMC_CmdSwitch:00000000 $t
     /tmp/ccO3W952.s:2500   .text.SDMMC_CmdSwitch:00000000 SDMMC_CmdSwitch
                     .debug_frame:00000010 $d

UNDEFINED SYMBOLS
SystemCoreClock
