ARM GAS  /tmp/cc7hx4Eu.s 			page 1


   1              		.syntax unified
   2              		.cpu cortex-m4
   3              		.eabi_attribute 27, 1
   4              		.eabi_attribute 28, 1
   5              		.fpu fpv4-sp-d16
   6              		.eabi_attribute 20, 1
   7              		.eabi_attribute 21, 1
   8              		.eabi_attribute 23, 3
   9              		.eabi_attribute 24, 1
  10              		.eabi_attribute 25, 1
  11              		.eabi_attribute 26, 1
  12              		.eabi_attribute 30, 1
  13              		.eabi_attribute 34, 1
  14              		.eabi_attribute 18, 4
  15              		.thumb
  16              		.syntax unified
  17              		.file	"usbh_audio.c"
  18              		.text
  19              	.Ltext0:
  20              		.cfi_sections	.debug_frame
  21              		.section	.text.USBH_AUDIO_SOFProcess,"ax",%progbits
  22              		.align	2
  23              		.thumb
  24              		.thumb_func
  26              	USBH_AUDIO_SOFProcess:
  27              	.LFB130:
  28              		.file 1 "Middlewares/ST/STM32_USB_Host_Library/Class/AUDIO/Src/usbh_audio.c"
   1:Middlewares/ST/STM32_USB_Host_Library/Class/AUDIO/Src/usbh_audio.c **** /**
   2:Middlewares/ST/STM32_USB_Host_Library/Class/AUDIO/Src/usbh_audio.c ****   ******************************************************************************
   3:Middlewares/ST/STM32_USB_Host_Library/Class/AUDIO/Src/usbh_audio.c ****   * @file    usbh_audio.c
   4:Middlewares/ST/STM32_USB_Host_Library/Class/AUDIO/Src/usbh_audio.c ****   * @author  MCD Application Team
   5:Middlewares/ST/STM32_USB_Host_Library/Class/AUDIO/Src/usbh_audio.c ****   * @version V3.2.2
   6:Middlewares/ST/STM32_USB_Host_Library/Class/AUDIO/Src/usbh_audio.c ****   * @date    07-July-2015
   7:Middlewares/ST/STM32_USB_Host_Library/Class/AUDIO/Src/usbh_audio.c ****   * @brief   This file is the AC Layer Handlers for USB Host AC class. 
   8:Middlewares/ST/STM32_USB_Host_Library/Class/AUDIO/Src/usbh_audio.c ****   *
   9:Middlewares/ST/STM32_USB_Host_Library/Class/AUDIO/Src/usbh_audio.c ****   * @verbatim
  10:Middlewares/ST/STM32_USB_Host_Library/Class/AUDIO/Src/usbh_audio.c ****   *      
  11:Middlewares/ST/STM32_USB_Host_Library/Class/AUDIO/Src/usbh_audio.c ****   *          ===================================================================      
  12:Middlewares/ST/STM32_USB_Host_Library/Class/AUDIO/Src/usbh_audio.c ****   *                                AUDIO Class  Description
  13:Middlewares/ST/STM32_USB_Host_Library/Class/AUDIO/Src/usbh_audio.c ****   *          ===================================================================
  14:Middlewares/ST/STM32_USB_Host_Library/Class/AUDIO/Src/usbh_audio.c ****   *           This driver manages the Audio Class 1.0 following the "USB Device 
  15:Middlewares/ST/STM32_USB_Host_Library/Class/AUDIO/Src/usbh_audio.c ****   *           Class Definition for Audio Devices V1.0 Mar 18, 98".
  16:Middlewares/ST/STM32_USB_Host_Library/Class/AUDIO/Src/usbh_audio.c ****   *   
  17:Middlewares/ST/STM32_USB_Host_Library/Class/AUDIO/Src/usbh_audio.c ****   *  @endverbatim
  18:Middlewares/ST/STM32_USB_Host_Library/Class/AUDIO/Src/usbh_audio.c ****   *
  19:Middlewares/ST/STM32_USB_Host_Library/Class/AUDIO/Src/usbh_audio.c ****   ******************************************************************************
  20:Middlewares/ST/STM32_USB_Host_Library/Class/AUDIO/Src/usbh_audio.c ****   * @attention
  21:Middlewares/ST/STM32_USB_Host_Library/Class/AUDIO/Src/usbh_audio.c ****   *
  22:Middlewares/ST/STM32_USB_Host_Library/Class/AUDIO/Src/usbh_audio.c ****   * <h2><center>&copy; COPYRIGHT 2015 STMicroelectronics</center></h2>
  23:Middlewares/ST/STM32_USB_Host_Library/Class/AUDIO/Src/usbh_audio.c ****   *
  24:Middlewares/ST/STM32_USB_Host_Library/Class/AUDIO/Src/usbh_audio.c ****   * Licensed under MCD-ST Liberty SW License Agreement V2, (the "License");
  25:Middlewares/ST/STM32_USB_Host_Library/Class/AUDIO/Src/usbh_audio.c ****   * You may not use this file except in compliance with the License.
  26:Middlewares/ST/STM32_USB_Host_Library/Class/AUDIO/Src/usbh_audio.c ****   * You may obtain a copy of the License at:
  27:Middlewares/ST/STM32_USB_Host_Library/Class/AUDIO/Src/usbh_audio.c ****   *
  28:Middlewares/ST/STM32_USB_Host_Library/Class/AUDIO/Src/usbh_audio.c ****   *        http://www.st.com/software_license_agreement_liberty_v2
  29:Middlewares/ST/STM32_USB_Host_Library/Class/AUDIO/Src/usbh_audio.c ****   *
  30:Middlewares/ST/STM32_USB_Host_Library/Class/AUDIO/Src/usbh_audio.c ****   * Unless required by applicable law or agreed to in writing, software 
ARM GAS  /tmp/cc7hx4Eu.s 			page 2


  31:Middlewares/ST/STM32_USB_Host_Library/Class/AUDIO/Src/usbh_audio.c ****   * distributed under the License is distributed on an "AS IS" BASIS, 
  32:Middlewares/ST/STM32_USB_Host_Library/Class/AUDIO/Src/usbh_audio.c ****   * WITHOUT WARRANTIES OR CONDITIONS OF ANY KIND, either express or implied.
  33:Middlewares/ST/STM32_USB_Host_Library/Class/AUDIO/Src/usbh_audio.c ****   * See the License for the specific language governing permissions and
  34:Middlewares/ST/STM32_USB_Host_Library/Class/AUDIO/Src/usbh_audio.c ****   * limitations under the License.
  35:Middlewares/ST/STM32_USB_Host_Library/Class/AUDIO/Src/usbh_audio.c ****   *
  36:Middlewares/ST/STM32_USB_Host_Library/Class/AUDIO/Src/usbh_audio.c ****   ******************************************************************************
  37:Middlewares/ST/STM32_USB_Host_Library/Class/AUDIO/Src/usbh_audio.c ****   */ 
  38:Middlewares/ST/STM32_USB_Host_Library/Class/AUDIO/Src/usbh_audio.c **** 
  39:Middlewares/ST/STM32_USB_Host_Library/Class/AUDIO/Src/usbh_audio.c **** /* Includes ------------------------------------------------------------------*/
  40:Middlewares/ST/STM32_USB_Host_Library/Class/AUDIO/Src/usbh_audio.c **** #include "usbh_audio.h"
  41:Middlewares/ST/STM32_USB_Host_Library/Class/AUDIO/Src/usbh_audio.c **** 
  42:Middlewares/ST/STM32_USB_Host_Library/Class/AUDIO/Src/usbh_audio.c **** /** @addtogroup USBH_LIB
  43:Middlewares/ST/STM32_USB_Host_Library/Class/AUDIO/Src/usbh_audio.c ****   * @{
  44:Middlewares/ST/STM32_USB_Host_Library/Class/AUDIO/Src/usbh_audio.c ****   */
  45:Middlewares/ST/STM32_USB_Host_Library/Class/AUDIO/Src/usbh_audio.c **** 
  46:Middlewares/ST/STM32_USB_Host_Library/Class/AUDIO/Src/usbh_audio.c **** /** @addtogroup USBH_CLASS
  47:Middlewares/ST/STM32_USB_Host_Library/Class/AUDIO/Src/usbh_audio.c ****   * @{
  48:Middlewares/ST/STM32_USB_Host_Library/Class/AUDIO/Src/usbh_audio.c ****   */
  49:Middlewares/ST/STM32_USB_Host_Library/Class/AUDIO/Src/usbh_audio.c **** 
  50:Middlewares/ST/STM32_USB_Host_Library/Class/AUDIO/Src/usbh_audio.c **** /** @addtogroup USBH_AUDIO_CLASS
  51:Middlewares/ST/STM32_USB_Host_Library/Class/AUDIO/Src/usbh_audio.c ****   * @{
  52:Middlewares/ST/STM32_USB_Host_Library/Class/AUDIO/Src/usbh_audio.c ****   */
  53:Middlewares/ST/STM32_USB_Host_Library/Class/AUDIO/Src/usbh_audio.c **** 
  54:Middlewares/ST/STM32_USB_Host_Library/Class/AUDIO/Src/usbh_audio.c **** /** @defgroup USBH_AUDIO_CORE 
  55:Middlewares/ST/STM32_USB_Host_Library/Class/AUDIO/Src/usbh_audio.c ****   * @brief    This file includes HID Layer Handlers for USB Host HID class.
  56:Middlewares/ST/STM32_USB_Host_Library/Class/AUDIO/Src/usbh_audio.c ****   * @{
  57:Middlewares/ST/STM32_USB_Host_Library/Class/AUDIO/Src/usbh_audio.c ****   */ 
  58:Middlewares/ST/STM32_USB_Host_Library/Class/AUDIO/Src/usbh_audio.c **** 
  59:Middlewares/ST/STM32_USB_Host_Library/Class/AUDIO/Src/usbh_audio.c **** /** @defgroup USBH_AUDIO_CORE_Private_TypesDefinitions
  60:Middlewares/ST/STM32_USB_Host_Library/Class/AUDIO/Src/usbh_audio.c ****   * @{
  61:Middlewares/ST/STM32_USB_Host_Library/Class/AUDIO/Src/usbh_audio.c ****   */ 
  62:Middlewares/ST/STM32_USB_Host_Library/Class/AUDIO/Src/usbh_audio.c **** /**
  63:Middlewares/ST/STM32_USB_Host_Library/Class/AUDIO/Src/usbh_audio.c ****   * @}
  64:Middlewares/ST/STM32_USB_Host_Library/Class/AUDIO/Src/usbh_audio.c ****   */ 
  65:Middlewares/ST/STM32_USB_Host_Library/Class/AUDIO/Src/usbh_audio.c **** 
  66:Middlewares/ST/STM32_USB_Host_Library/Class/AUDIO/Src/usbh_audio.c **** 
  67:Middlewares/ST/STM32_USB_Host_Library/Class/AUDIO/Src/usbh_audio.c **** /** @defgroup USBH_AUDIO_CORE_Private_Defines
  68:Middlewares/ST/STM32_USB_Host_Library/Class/AUDIO/Src/usbh_audio.c ****   * @{
  69:Middlewares/ST/STM32_USB_Host_Library/Class/AUDIO/Src/usbh_audio.c ****   */ 
  70:Middlewares/ST/STM32_USB_Host_Library/Class/AUDIO/Src/usbh_audio.c **** 
  71:Middlewares/ST/STM32_USB_Host_Library/Class/AUDIO/Src/usbh_audio.c **** /**
  72:Middlewares/ST/STM32_USB_Host_Library/Class/AUDIO/Src/usbh_audio.c ****   * @}
  73:Middlewares/ST/STM32_USB_Host_Library/Class/AUDIO/Src/usbh_audio.c ****   */ 
  74:Middlewares/ST/STM32_USB_Host_Library/Class/AUDIO/Src/usbh_audio.c **** 
  75:Middlewares/ST/STM32_USB_Host_Library/Class/AUDIO/Src/usbh_audio.c **** 
  76:Middlewares/ST/STM32_USB_Host_Library/Class/AUDIO/Src/usbh_audio.c **** /** @defgroup USBH_AUDIO_CORE_Private_Macros
  77:Middlewares/ST/STM32_USB_Host_Library/Class/AUDIO/Src/usbh_audio.c ****   * @{
  78:Middlewares/ST/STM32_USB_Host_Library/Class/AUDIO/Src/usbh_audio.c ****   */ 
  79:Middlewares/ST/STM32_USB_Host_Library/Class/AUDIO/Src/usbh_audio.c **** /**
  80:Middlewares/ST/STM32_USB_Host_Library/Class/AUDIO/Src/usbh_audio.c ****   * @}
  81:Middlewares/ST/STM32_USB_Host_Library/Class/AUDIO/Src/usbh_audio.c ****   */ 
  82:Middlewares/ST/STM32_USB_Host_Library/Class/AUDIO/Src/usbh_audio.c **** 
  83:Middlewares/ST/STM32_USB_Host_Library/Class/AUDIO/Src/usbh_audio.c **** 
  84:Middlewares/ST/STM32_USB_Host_Library/Class/AUDIO/Src/usbh_audio.c **** /** @defgroup USBH_AUDIO_CORE_Private_Variables
  85:Middlewares/ST/STM32_USB_Host_Library/Class/AUDIO/Src/usbh_audio.c ****   * @{
  86:Middlewares/ST/STM32_USB_Host_Library/Class/AUDIO/Src/usbh_audio.c ****   */
  87:Middlewares/ST/STM32_USB_Host_Library/Class/AUDIO/Src/usbh_audio.c **** 
ARM GAS  /tmp/cc7hx4Eu.s 			page 3


  88:Middlewares/ST/STM32_USB_Host_Library/Class/AUDIO/Src/usbh_audio.c **** /**
  89:Middlewares/ST/STM32_USB_Host_Library/Class/AUDIO/Src/usbh_audio.c ****   * @}
  90:Middlewares/ST/STM32_USB_Host_Library/Class/AUDIO/Src/usbh_audio.c ****   */ 
  91:Middlewares/ST/STM32_USB_Host_Library/Class/AUDIO/Src/usbh_audio.c **** 
  92:Middlewares/ST/STM32_USB_Host_Library/Class/AUDIO/Src/usbh_audio.c **** 
  93:Middlewares/ST/STM32_USB_Host_Library/Class/AUDIO/Src/usbh_audio.c **** /** @defgroup USBH_AUDIO_CORE_Private_FunctionPrototypes
  94:Middlewares/ST/STM32_USB_Host_Library/Class/AUDIO/Src/usbh_audio.c ****   * @{
  95:Middlewares/ST/STM32_USB_Host_Library/Class/AUDIO/Src/usbh_audio.c ****   */ 
  96:Middlewares/ST/STM32_USB_Host_Library/Class/AUDIO/Src/usbh_audio.c **** 
  97:Middlewares/ST/STM32_USB_Host_Library/Class/AUDIO/Src/usbh_audio.c **** static USBH_StatusTypeDef USBH_AUDIO_InterfaceInit  (USBH_HandleTypeDef *phost);
  98:Middlewares/ST/STM32_USB_Host_Library/Class/AUDIO/Src/usbh_audio.c **** static USBH_StatusTypeDef USBH_AUDIO_InterfaceDeInit  (USBH_HandleTypeDef *phost);
  99:Middlewares/ST/STM32_USB_Host_Library/Class/AUDIO/Src/usbh_audio.c **** static USBH_StatusTypeDef USBH_AUDIO_Process(USBH_HandleTypeDef *phost);
 100:Middlewares/ST/STM32_USB_Host_Library/Class/AUDIO/Src/usbh_audio.c **** static USBH_StatusTypeDef USBH_AUDIO_SOFProcess(USBH_HandleTypeDef *phost);
 101:Middlewares/ST/STM32_USB_Host_Library/Class/AUDIO/Src/usbh_audio.c **** static USBH_StatusTypeDef USBH_AUDIO_ClassRequest(USBH_HandleTypeDef *phost);
 102:Middlewares/ST/STM32_USB_Host_Library/Class/AUDIO/Src/usbh_audio.c **** static USBH_StatusTypeDef USBH_AUDIO_CSRequest(USBH_HandleTypeDef *phost, 
 103:Middlewares/ST/STM32_USB_Host_Library/Class/AUDIO/Src/usbh_audio.c ****                                                uint8_t feature, 
 104:Middlewares/ST/STM32_USB_Host_Library/Class/AUDIO/Src/usbh_audio.c ****                                                uint8_t channel);
 105:Middlewares/ST/STM32_USB_Host_Library/Class/AUDIO/Src/usbh_audio.c **** 
 106:Middlewares/ST/STM32_USB_Host_Library/Class/AUDIO/Src/usbh_audio.c **** static USBH_StatusTypeDef USBH_AUDIO_HandleCSRequest(USBH_HandleTypeDef *phost);
 107:Middlewares/ST/STM32_USB_Host_Library/Class/AUDIO/Src/usbh_audio.c **** 
 108:Middlewares/ST/STM32_USB_Host_Library/Class/AUDIO/Src/usbh_audio.c **** static USBH_StatusTypeDef USBH_AUDIO_FindAudioStreamingIN(USBH_HandleTypeDef *phost);
 109:Middlewares/ST/STM32_USB_Host_Library/Class/AUDIO/Src/usbh_audio.c **** static USBH_StatusTypeDef USBH_AUDIO_FindAudioStreamingOUT(USBH_HandleTypeDef *phost);
 110:Middlewares/ST/STM32_USB_Host_Library/Class/AUDIO/Src/usbh_audio.c **** static USBH_StatusTypeDef USBH_AUDIO_FindHIDControl(USBH_HandleTypeDef *phost);
 111:Middlewares/ST/STM32_USB_Host_Library/Class/AUDIO/Src/usbh_audio.c **** static USBH_StatusTypeDef USBH_AUDIO_ParseCSDescriptors(USBH_HandleTypeDef *phost);
 112:Middlewares/ST/STM32_USB_Host_Library/Class/AUDIO/Src/usbh_audio.c **** 
 113:Middlewares/ST/STM32_USB_Host_Library/Class/AUDIO/Src/usbh_audio.c **** static USBH_StatusTypeDef USBH_AUDIO_BuildHeadphonePath(USBH_HandleTypeDef *phost);
 114:Middlewares/ST/STM32_USB_Host_Library/Class/AUDIO/Src/usbh_audio.c **** static USBH_StatusTypeDef USBH_AUDIO_BuildMicrophonePath(USBH_HandleTypeDef *phost);
 115:Middlewares/ST/STM32_USB_Host_Library/Class/AUDIO/Src/usbh_audio.c **** int32_t USBH_AUDIO_FindLinkedUnitIN(USBH_HandleTypeDef *phost, uint8_t UnitID);
 116:Middlewares/ST/STM32_USB_Host_Library/Class/AUDIO/Src/usbh_audio.c **** int32_t USBH_AUDIO_FindLinkedUnitOUT(USBH_HandleTypeDef *phost, uint8_t UnitID);
 117:Middlewares/ST/STM32_USB_Host_Library/Class/AUDIO/Src/usbh_audio.c **** 
 118:Middlewares/ST/STM32_USB_Host_Library/Class/AUDIO/Src/usbh_audio.c **** 
 119:Middlewares/ST/STM32_USB_Host_Library/Class/AUDIO/Src/usbh_audio.c **** 
 120:Middlewares/ST/STM32_USB_Host_Library/Class/AUDIO/Src/usbh_audio.c **** static USBH_StatusTypeDef ParseCSDescriptors(AUDIO_ClassSpecificDescTypedef *class_desc, 
 121:Middlewares/ST/STM32_USB_Host_Library/Class/AUDIO/Src/usbh_audio.c ****                                       uint8_t ac_subclass, 
 122:Middlewares/ST/STM32_USB_Host_Library/Class/AUDIO/Src/usbh_audio.c ****                                       uint8_t *pdesc);
 123:Middlewares/ST/STM32_USB_Host_Library/Class/AUDIO/Src/usbh_audio.c **** 
 124:Middlewares/ST/STM32_USB_Host_Library/Class/AUDIO/Src/usbh_audio.c **** 
 125:Middlewares/ST/STM32_USB_Host_Library/Class/AUDIO/Src/usbh_audio.c **** static USBH_StatusTypeDef USBH_AUDIO_Transmit (USBH_HandleTypeDef *phost);
 126:Middlewares/ST/STM32_USB_Host_Library/Class/AUDIO/Src/usbh_audio.c **** 
 127:Middlewares/ST/STM32_USB_Host_Library/Class/AUDIO/Src/usbh_audio.c **** 
 128:Middlewares/ST/STM32_USB_Host_Library/Class/AUDIO/Src/usbh_audio.c **** static USBH_StatusTypeDef USBH_AC_SetCur(USBH_HandleTypeDef *phost, 
 129:Middlewares/ST/STM32_USB_Host_Library/Class/AUDIO/Src/usbh_audio.c ****                                          uint8_t subtype, 
 130:Middlewares/ST/STM32_USB_Host_Library/Class/AUDIO/Src/usbh_audio.c ****                                          uint8_t feature,
 131:Middlewares/ST/STM32_USB_Host_Library/Class/AUDIO/Src/usbh_audio.c ****                                          uint8_t controlSelector,
 132:Middlewares/ST/STM32_USB_Host_Library/Class/AUDIO/Src/usbh_audio.c ****                                          uint8_t channel,
 133:Middlewares/ST/STM32_USB_Host_Library/Class/AUDIO/Src/usbh_audio.c ****                                          uint16_t length);
 134:Middlewares/ST/STM32_USB_Host_Library/Class/AUDIO/Src/usbh_audio.c **** 
 135:Middlewares/ST/STM32_USB_Host_Library/Class/AUDIO/Src/usbh_audio.c **** static USBH_StatusTypeDef USBH_AC_GetCur(USBH_HandleTypeDef *phost, 
 136:Middlewares/ST/STM32_USB_Host_Library/Class/AUDIO/Src/usbh_audio.c ****                                          uint8_t subtype, 
 137:Middlewares/ST/STM32_USB_Host_Library/Class/AUDIO/Src/usbh_audio.c ****                                          uint8_t feature,
 138:Middlewares/ST/STM32_USB_Host_Library/Class/AUDIO/Src/usbh_audio.c ****                                          uint8_t controlSelector,
 139:Middlewares/ST/STM32_USB_Host_Library/Class/AUDIO/Src/usbh_audio.c ****                                          uint8_t channel,
 140:Middlewares/ST/STM32_USB_Host_Library/Class/AUDIO/Src/usbh_audio.c ****                                          uint16_t length);
 141:Middlewares/ST/STM32_USB_Host_Library/Class/AUDIO/Src/usbh_audio.c **** 
 142:Middlewares/ST/STM32_USB_Host_Library/Class/AUDIO/Src/usbh_audio.c **** static USBH_StatusTypeDef USBH_AC_GetMin(USBH_HandleTypeDef *phost, 
 143:Middlewares/ST/STM32_USB_Host_Library/Class/AUDIO/Src/usbh_audio.c ****                                          uint8_t subtype, 
 144:Middlewares/ST/STM32_USB_Host_Library/Class/AUDIO/Src/usbh_audio.c ****                                          uint8_t feature,
ARM GAS  /tmp/cc7hx4Eu.s 			page 4


 145:Middlewares/ST/STM32_USB_Host_Library/Class/AUDIO/Src/usbh_audio.c ****                                          uint8_t controlSelector,
 146:Middlewares/ST/STM32_USB_Host_Library/Class/AUDIO/Src/usbh_audio.c ****                                          uint8_t channel,
 147:Middlewares/ST/STM32_USB_Host_Library/Class/AUDIO/Src/usbh_audio.c ****                                          uint16_t length);
 148:Middlewares/ST/STM32_USB_Host_Library/Class/AUDIO/Src/usbh_audio.c **** 
 149:Middlewares/ST/STM32_USB_Host_Library/Class/AUDIO/Src/usbh_audio.c **** static USBH_StatusTypeDef USBH_AC_GetMax(USBH_HandleTypeDef *phost, 
 150:Middlewares/ST/STM32_USB_Host_Library/Class/AUDIO/Src/usbh_audio.c ****                                          uint8_t subtype, 
 151:Middlewares/ST/STM32_USB_Host_Library/Class/AUDIO/Src/usbh_audio.c ****                                          uint8_t feature,
 152:Middlewares/ST/STM32_USB_Host_Library/Class/AUDIO/Src/usbh_audio.c ****                                          uint8_t controlSelector,
 153:Middlewares/ST/STM32_USB_Host_Library/Class/AUDIO/Src/usbh_audio.c ****                                          uint8_t channel,
 154:Middlewares/ST/STM32_USB_Host_Library/Class/AUDIO/Src/usbh_audio.c ****                                          uint16_t length);
 155:Middlewares/ST/STM32_USB_Host_Library/Class/AUDIO/Src/usbh_audio.c **** 
 156:Middlewares/ST/STM32_USB_Host_Library/Class/AUDIO/Src/usbh_audio.c **** static USBH_StatusTypeDef USBH_AC_GetRes(USBH_HandleTypeDef *phost, 
 157:Middlewares/ST/STM32_USB_Host_Library/Class/AUDIO/Src/usbh_audio.c ****                                          uint8_t subtype, 
 158:Middlewares/ST/STM32_USB_Host_Library/Class/AUDIO/Src/usbh_audio.c ****                                          uint8_t feature,
 159:Middlewares/ST/STM32_USB_Host_Library/Class/AUDIO/Src/usbh_audio.c ****                                          uint8_t controlSelector,
 160:Middlewares/ST/STM32_USB_Host_Library/Class/AUDIO/Src/usbh_audio.c ****                                          uint8_t channel,
 161:Middlewares/ST/STM32_USB_Host_Library/Class/AUDIO/Src/usbh_audio.c ****                                          uint16_t length);
 162:Middlewares/ST/STM32_USB_Host_Library/Class/AUDIO/Src/usbh_audio.c **** 
 163:Middlewares/ST/STM32_USB_Host_Library/Class/AUDIO/Src/usbh_audio.c **** static USBH_StatusTypeDef USBH_AUDIO_SetEndpointControls(USBH_HandleTypeDef *phost,
 164:Middlewares/ST/STM32_USB_Host_Library/Class/AUDIO/Src/usbh_audio.c ****                                                uint8_t  Ep,
 165:Middlewares/ST/STM32_USB_Host_Library/Class/AUDIO/Src/usbh_audio.c ****                                                uint8_t *buff);
 166:Middlewares/ST/STM32_USB_Host_Library/Class/AUDIO/Src/usbh_audio.c **** 
 167:Middlewares/ST/STM32_USB_Host_Library/Class/AUDIO/Src/usbh_audio.c **** static USBH_StatusTypeDef AUDIO_SetVolume (USBH_HandleTypeDef *phost, uint8_t feature, uint8_t chan
 168:Middlewares/ST/STM32_USB_Host_Library/Class/AUDIO/Src/usbh_audio.c **** 
 169:Middlewares/ST/STM32_USB_Host_Library/Class/AUDIO/Src/usbh_audio.c **** static USBH_StatusTypeDef USBH_AUDIO_InputStream (USBH_HandleTypeDef *phost);
 170:Middlewares/ST/STM32_USB_Host_Library/Class/AUDIO/Src/usbh_audio.c **** static USBH_StatusTypeDef USBH_AUDIO_OutputStream (USBH_HandleTypeDef *phost);
 171:Middlewares/ST/STM32_USB_Host_Library/Class/AUDIO/Src/usbh_audio.c **** static USBH_StatusTypeDef USBH_AUDIO_Control (USBH_HandleTypeDef *phost);
 172:Middlewares/ST/STM32_USB_Host_Library/Class/AUDIO/Src/usbh_audio.c **** static USBH_StatusTypeDef USBH_AUDIO_SetControlAttribute (USBH_HandleTypeDef *phost, uint8_t attrib
 173:Middlewares/ST/STM32_USB_Host_Library/Class/AUDIO/Src/usbh_audio.c **** static int32_t USBH_AUDIO_FindLinkedUnit(USBH_HandleTypeDef *phost, uint8_t UnitID);
 174:Middlewares/ST/STM32_USB_Host_Library/Class/AUDIO/Src/usbh_audio.c **** 
 175:Middlewares/ST/STM32_USB_Host_Library/Class/AUDIO/Src/usbh_audio.c **** USBH_ClassTypeDef  AUDIO_Class = 
 176:Middlewares/ST/STM32_USB_Host_Library/Class/AUDIO/Src/usbh_audio.c **** {
 177:Middlewares/ST/STM32_USB_Host_Library/Class/AUDIO/Src/usbh_audio.c ****   "AUDIO",
 178:Middlewares/ST/STM32_USB_Host_Library/Class/AUDIO/Src/usbh_audio.c ****   AC_CLASS,  
 179:Middlewares/ST/STM32_USB_Host_Library/Class/AUDIO/Src/usbh_audio.c ****   USBH_AUDIO_InterfaceInit,
 180:Middlewares/ST/STM32_USB_Host_Library/Class/AUDIO/Src/usbh_audio.c ****   USBH_AUDIO_InterfaceDeInit,
 181:Middlewares/ST/STM32_USB_Host_Library/Class/AUDIO/Src/usbh_audio.c ****   USBH_AUDIO_ClassRequest,
 182:Middlewares/ST/STM32_USB_Host_Library/Class/AUDIO/Src/usbh_audio.c ****   USBH_AUDIO_Process,
 183:Middlewares/ST/STM32_USB_Host_Library/Class/AUDIO/Src/usbh_audio.c ****   USBH_AUDIO_SOFProcess,
 184:Middlewares/ST/STM32_USB_Host_Library/Class/AUDIO/Src/usbh_audio.c ****   NULL,
 185:Middlewares/ST/STM32_USB_Host_Library/Class/AUDIO/Src/usbh_audio.c **** };
 186:Middlewares/ST/STM32_USB_Host_Library/Class/AUDIO/Src/usbh_audio.c **** 
 187:Middlewares/ST/STM32_USB_Host_Library/Class/AUDIO/Src/usbh_audio.c **** /**
 188:Middlewares/ST/STM32_USB_Host_Library/Class/AUDIO/Src/usbh_audio.c ****   * @}
 189:Middlewares/ST/STM32_USB_Host_Library/Class/AUDIO/Src/usbh_audio.c ****   */ 
 190:Middlewares/ST/STM32_USB_Host_Library/Class/AUDIO/Src/usbh_audio.c **** 
 191:Middlewares/ST/STM32_USB_Host_Library/Class/AUDIO/Src/usbh_audio.c **** /** @defgroup USBH_AUDIO_CORE_Private_Functions
 192:Middlewares/ST/STM32_USB_Host_Library/Class/AUDIO/Src/usbh_audio.c ****   * @{
 193:Middlewares/ST/STM32_USB_Host_Library/Class/AUDIO/Src/usbh_audio.c ****   */ 
 194:Middlewares/ST/STM32_USB_Host_Library/Class/AUDIO/Src/usbh_audio.c **** 
 195:Middlewares/ST/STM32_USB_Host_Library/Class/AUDIO/Src/usbh_audio.c **** /**
 196:Middlewares/ST/STM32_USB_Host_Library/Class/AUDIO/Src/usbh_audio.c ****   * @brief  USBH_AUDIO_InterfaceInit 
 197:Middlewares/ST/STM32_USB_Host_Library/Class/AUDIO/Src/usbh_audio.c ****   *         The function init the Audio class.
 198:Middlewares/ST/STM32_USB_Host_Library/Class/AUDIO/Src/usbh_audio.c ****   * @param  phost: Host handle
 199:Middlewares/ST/STM32_USB_Host_Library/Class/AUDIO/Src/usbh_audio.c ****   * @retval USBH Status
 200:Middlewares/ST/STM32_USB_Host_Library/Class/AUDIO/Src/usbh_audio.c ****   */
 201:Middlewares/ST/STM32_USB_Host_Library/Class/AUDIO/Src/usbh_audio.c **** static USBH_StatusTypeDef USBH_AUDIO_InterfaceInit (USBH_HandleTypeDef *phost)
ARM GAS  /tmp/cc7hx4Eu.s 			page 5


 202:Middlewares/ST/STM32_USB_Host_Library/Class/AUDIO/Src/usbh_audio.c **** {
 203:Middlewares/ST/STM32_USB_Host_Library/Class/AUDIO/Src/usbh_audio.c ****   USBH_StatusTypeDef status = USBH_FAIL ;
 204:Middlewares/ST/STM32_USB_Host_Library/Class/AUDIO/Src/usbh_audio.c ****   USBH_StatusTypeDef out_status, in_status ;    
 205:Middlewares/ST/STM32_USB_Host_Library/Class/AUDIO/Src/usbh_audio.c ****   AUDIO_HandleTypeDef *AUDIO_Handle;
 206:Middlewares/ST/STM32_USB_Host_Library/Class/AUDIO/Src/usbh_audio.c ****   uint8_t  interface, index;
 207:Middlewares/ST/STM32_USB_Host_Library/Class/AUDIO/Src/usbh_audio.c ****   uint16_t ep_size_out = 0;
 208:Middlewares/ST/STM32_USB_Host_Library/Class/AUDIO/Src/usbh_audio.c ****   uint16_t ep_size_in = 0;  
 209:Middlewares/ST/STM32_USB_Host_Library/Class/AUDIO/Src/usbh_audio.c ****   
 210:Middlewares/ST/STM32_USB_Host_Library/Class/AUDIO/Src/usbh_audio.c ****   interface = USBH_FindInterface(phost, AC_CLASS, USB_SUBCLASS_AUDIOCONTROL, 0x00);
 211:Middlewares/ST/STM32_USB_Host_Library/Class/AUDIO/Src/usbh_audio.c ****   
 212:Middlewares/ST/STM32_USB_Host_Library/Class/AUDIO/Src/usbh_audio.c ****   if(interface == 0xFF) /* Not Valid Interface */
 213:Middlewares/ST/STM32_USB_Host_Library/Class/AUDIO/Src/usbh_audio.c ****   {
 214:Middlewares/ST/STM32_USB_Host_Library/Class/AUDIO/Src/usbh_audio.c ****     USBH_DbgLog ("Cannot Find the interface for %s class.", phost->pActiveClass->Name);
 215:Middlewares/ST/STM32_USB_Host_Library/Class/AUDIO/Src/usbh_audio.c ****     status = USBH_FAIL;      
 216:Middlewares/ST/STM32_USB_Host_Library/Class/AUDIO/Src/usbh_audio.c ****   }
 217:Middlewares/ST/STM32_USB_Host_Library/Class/AUDIO/Src/usbh_audio.c ****   else
 218:Middlewares/ST/STM32_USB_Host_Library/Class/AUDIO/Src/usbh_audio.c ****   {
 219:Middlewares/ST/STM32_USB_Host_Library/Class/AUDIO/Src/usbh_audio.c ****     
 220:Middlewares/ST/STM32_USB_Host_Library/Class/AUDIO/Src/usbh_audio.c ****     
 221:Middlewares/ST/STM32_USB_Host_Library/Class/AUDIO/Src/usbh_audio.c ****     phost->pActiveClass->pData = (AUDIO_HandleTypeDef *)USBH_malloc (sizeof(AUDIO_HandleTypeDef));
 222:Middlewares/ST/STM32_USB_Host_Library/Class/AUDIO/Src/usbh_audio.c ****     AUDIO_Handle =  (AUDIO_HandleTypeDef *) phost->pActiveClass->pData; 
 223:Middlewares/ST/STM32_USB_Host_Library/Class/AUDIO/Src/usbh_audio.c ****     USBH_memset(AUDIO_Handle, 0, sizeof(AUDIO_HandleTypeDef));
 224:Middlewares/ST/STM32_USB_Host_Library/Class/AUDIO/Src/usbh_audio.c ****     
 225:Middlewares/ST/STM32_USB_Host_Library/Class/AUDIO/Src/usbh_audio.c ****     
 226:Middlewares/ST/STM32_USB_Host_Library/Class/AUDIO/Src/usbh_audio.c ****     /* 1st Step:  Find Audio Interfaces */
 227:Middlewares/ST/STM32_USB_Host_Library/Class/AUDIO/Src/usbh_audio.c ****     out_status = USBH_AUDIO_FindAudioStreamingIN (phost);
 228:Middlewares/ST/STM32_USB_Host_Library/Class/AUDIO/Src/usbh_audio.c ****     
 229:Middlewares/ST/STM32_USB_Host_Library/Class/AUDIO/Src/usbh_audio.c ****     in_status = USBH_AUDIO_FindAudioStreamingOUT(phost);
 230:Middlewares/ST/STM32_USB_Host_Library/Class/AUDIO/Src/usbh_audio.c ****     
 231:Middlewares/ST/STM32_USB_Host_Library/Class/AUDIO/Src/usbh_audio.c ****     if((out_status == USBH_FAIL) && (in_status == USBH_FAIL))
 232:Middlewares/ST/STM32_USB_Host_Library/Class/AUDIO/Src/usbh_audio.c ****     {
 233:Middlewares/ST/STM32_USB_Host_Library/Class/AUDIO/Src/usbh_audio.c ****       USBH_DbgLog ("%s class configuration not supported.", phost->pActiveClass->Name);
 234:Middlewares/ST/STM32_USB_Host_Library/Class/AUDIO/Src/usbh_audio.c ****     }
 235:Middlewares/ST/STM32_USB_Host_Library/Class/AUDIO/Src/usbh_audio.c ****     else
 236:Middlewares/ST/STM32_USB_Host_Library/Class/AUDIO/Src/usbh_audio.c ****     {
 237:Middlewares/ST/STM32_USB_Host_Library/Class/AUDIO/Src/usbh_audio.c ****       /* 2nd Step:  Select Audio Streaming Interfaces with largest endpoint size : default behavior
 238:Middlewares/ST/STM32_USB_Host_Library/Class/AUDIO/Src/usbh_audio.c ****       for (index = 0; index < AUDIO_MAX_AUDIO_STD_INTERFACE; index ++)
 239:Middlewares/ST/STM32_USB_Host_Library/Class/AUDIO/Src/usbh_audio.c ****       {
 240:Middlewares/ST/STM32_USB_Host_Library/Class/AUDIO/Src/usbh_audio.c ****         if( AUDIO_Handle->stream_out[index].valid == 1)
 241:Middlewares/ST/STM32_USB_Host_Library/Class/AUDIO/Src/usbh_audio.c ****         {
 242:Middlewares/ST/STM32_USB_Host_Library/Class/AUDIO/Src/usbh_audio.c ****           if(ep_size_out < AUDIO_Handle->stream_out[index].EpSize)
 243:Middlewares/ST/STM32_USB_Host_Library/Class/AUDIO/Src/usbh_audio.c ****           {
 244:Middlewares/ST/STM32_USB_Host_Library/Class/AUDIO/Src/usbh_audio.c ****             ep_size_out = AUDIO_Handle->stream_out[index].EpSize;
 245:Middlewares/ST/STM32_USB_Host_Library/Class/AUDIO/Src/usbh_audio.c ****             AUDIO_Handle->headphone.interface = AUDIO_Handle->stream_out[index].interface;
 246:Middlewares/ST/STM32_USB_Host_Library/Class/AUDIO/Src/usbh_audio.c ****             AUDIO_Handle->headphone.AltSettings = AUDIO_Handle->stream_out[index].AltSettings;     
 247:Middlewares/ST/STM32_USB_Host_Library/Class/AUDIO/Src/usbh_audio.c ****             AUDIO_Handle->headphone.Ep = AUDIO_Handle->stream_out[index].Ep;
 248:Middlewares/ST/STM32_USB_Host_Library/Class/AUDIO/Src/usbh_audio.c ****             AUDIO_Handle->headphone.EpSize = AUDIO_Handle->stream_out[index].EpSize; 
 249:Middlewares/ST/STM32_USB_Host_Library/Class/AUDIO/Src/usbh_audio.c ****             AUDIO_Handle->headphone.Poll = AUDIO_Handle->stream_out[index].Poll;
 250:Middlewares/ST/STM32_USB_Host_Library/Class/AUDIO/Src/usbh_audio.c ****             AUDIO_Handle->headphone.supported = 1;  
 251:Middlewares/ST/STM32_USB_Host_Library/Class/AUDIO/Src/usbh_audio.c ****           }
 252:Middlewares/ST/STM32_USB_Host_Library/Class/AUDIO/Src/usbh_audio.c ****         }
 253:Middlewares/ST/STM32_USB_Host_Library/Class/AUDIO/Src/usbh_audio.c ****         
 254:Middlewares/ST/STM32_USB_Host_Library/Class/AUDIO/Src/usbh_audio.c ****         if( AUDIO_Handle->stream_in[index].valid == 1)
 255:Middlewares/ST/STM32_USB_Host_Library/Class/AUDIO/Src/usbh_audio.c ****         {
 256:Middlewares/ST/STM32_USB_Host_Library/Class/AUDIO/Src/usbh_audio.c ****           if(ep_size_in < AUDIO_Handle->stream_in[index].EpSize)
 257:Middlewares/ST/STM32_USB_Host_Library/Class/AUDIO/Src/usbh_audio.c ****           {
 258:Middlewares/ST/STM32_USB_Host_Library/Class/AUDIO/Src/usbh_audio.c ****             ep_size_in = AUDIO_Handle->stream_in[index].EpSize;
ARM GAS  /tmp/cc7hx4Eu.s 			page 6


 259:Middlewares/ST/STM32_USB_Host_Library/Class/AUDIO/Src/usbh_audio.c ****             AUDIO_Handle->microphone.interface = AUDIO_Handle->stream_in[index].interface;
 260:Middlewares/ST/STM32_USB_Host_Library/Class/AUDIO/Src/usbh_audio.c ****             AUDIO_Handle->microphone.AltSettings = AUDIO_Handle->stream_in[index].AltSettings;     
 261:Middlewares/ST/STM32_USB_Host_Library/Class/AUDIO/Src/usbh_audio.c ****             AUDIO_Handle->microphone.Ep = AUDIO_Handle->stream_in[index].Ep;
 262:Middlewares/ST/STM32_USB_Host_Library/Class/AUDIO/Src/usbh_audio.c ****             AUDIO_Handle->microphone.EpSize = AUDIO_Handle->stream_in[index].EpSize;
 263:Middlewares/ST/STM32_USB_Host_Library/Class/AUDIO/Src/usbh_audio.c ****             AUDIO_Handle->microphone.Poll = AUDIO_Handle->stream_out[index].Poll;         
 264:Middlewares/ST/STM32_USB_Host_Library/Class/AUDIO/Src/usbh_audio.c ****             AUDIO_Handle->microphone.supported = 1;       
 265:Middlewares/ST/STM32_USB_Host_Library/Class/AUDIO/Src/usbh_audio.c ****           }
 266:Middlewares/ST/STM32_USB_Host_Library/Class/AUDIO/Src/usbh_audio.c ****         }
 267:Middlewares/ST/STM32_USB_Host_Library/Class/AUDIO/Src/usbh_audio.c ****       }
 268:Middlewares/ST/STM32_USB_Host_Library/Class/AUDIO/Src/usbh_audio.c ****       
 269:Middlewares/ST/STM32_USB_Host_Library/Class/AUDIO/Src/usbh_audio.c ****       if(USBH_AUDIO_FindHIDControl(phost) == USBH_OK)
 270:Middlewares/ST/STM32_USB_Host_Library/Class/AUDIO/Src/usbh_audio.c ****       {
 271:Middlewares/ST/STM32_USB_Host_Library/Class/AUDIO/Src/usbh_audio.c ****         AUDIO_Handle->control.supported = 1;
 272:Middlewares/ST/STM32_USB_Host_Library/Class/AUDIO/Src/usbh_audio.c ****       }
 273:Middlewares/ST/STM32_USB_Host_Library/Class/AUDIO/Src/usbh_audio.c ****       
 274:Middlewares/ST/STM32_USB_Host_Library/Class/AUDIO/Src/usbh_audio.c ****       /* 3rd Step:  Find and Parse Audio interfaces */ 
 275:Middlewares/ST/STM32_USB_Host_Library/Class/AUDIO/Src/usbh_audio.c ****       USBH_AUDIO_ParseCSDescriptors (phost);
 276:Middlewares/ST/STM32_USB_Host_Library/Class/AUDIO/Src/usbh_audio.c ****      
 277:Middlewares/ST/STM32_USB_Host_Library/Class/AUDIO/Src/usbh_audio.c ****       
 278:Middlewares/ST/STM32_USB_Host_Library/Class/AUDIO/Src/usbh_audio.c ****       /* 4th Step:  Open the Audio streaming pipes*/ 
 279:Middlewares/ST/STM32_USB_Host_Library/Class/AUDIO/Src/usbh_audio.c ****       if(AUDIO_Handle->headphone.supported == 1)
 280:Middlewares/ST/STM32_USB_Host_Library/Class/AUDIO/Src/usbh_audio.c ****       {
 281:Middlewares/ST/STM32_USB_Host_Library/Class/AUDIO/Src/usbh_audio.c ****         USBH_AUDIO_BuildHeadphonePath (phost);
 282:Middlewares/ST/STM32_USB_Host_Library/Class/AUDIO/Src/usbh_audio.c ****          
 283:Middlewares/ST/STM32_USB_Host_Library/Class/AUDIO/Src/usbh_audio.c ****         AUDIO_Handle->headphone.Pipe  = USBH_AllocPipe(phost, AUDIO_Handle->headphone.Ep);
 284:Middlewares/ST/STM32_USB_Host_Library/Class/AUDIO/Src/usbh_audio.c ****         
 285:Middlewares/ST/STM32_USB_Host_Library/Class/AUDIO/Src/usbh_audio.c ****         /* Open pipe for IN endpoint */
 286:Middlewares/ST/STM32_USB_Host_Library/Class/AUDIO/Src/usbh_audio.c ****         USBH_OpenPipe  (phost,
 287:Middlewares/ST/STM32_USB_Host_Library/Class/AUDIO/Src/usbh_audio.c ****                         AUDIO_Handle->headphone.Pipe,
 288:Middlewares/ST/STM32_USB_Host_Library/Class/AUDIO/Src/usbh_audio.c ****                         AUDIO_Handle->headphone.Ep,
 289:Middlewares/ST/STM32_USB_Host_Library/Class/AUDIO/Src/usbh_audio.c ****                         phost->device.address,
 290:Middlewares/ST/STM32_USB_Host_Library/Class/AUDIO/Src/usbh_audio.c ****                         phost->device.speed,
 291:Middlewares/ST/STM32_USB_Host_Library/Class/AUDIO/Src/usbh_audio.c ****                         USB_EP_TYPE_ISOC,
 292:Middlewares/ST/STM32_USB_Host_Library/Class/AUDIO/Src/usbh_audio.c ****                         AUDIO_Handle->headphone.EpSize); 
 293:Middlewares/ST/STM32_USB_Host_Library/Class/AUDIO/Src/usbh_audio.c ****         
 294:Middlewares/ST/STM32_USB_Host_Library/Class/AUDIO/Src/usbh_audio.c ****         USBH_LL_SetToggle (phost,  AUDIO_Handle->headphone.Pipe, 0);          
 295:Middlewares/ST/STM32_USB_Host_Library/Class/AUDIO/Src/usbh_audio.c ****         
 296:Middlewares/ST/STM32_USB_Host_Library/Class/AUDIO/Src/usbh_audio.c ****       }
 297:Middlewares/ST/STM32_USB_Host_Library/Class/AUDIO/Src/usbh_audio.c ****       
 298:Middlewares/ST/STM32_USB_Host_Library/Class/AUDIO/Src/usbh_audio.c ****       if(AUDIO_Handle->microphone.supported == 1)
 299:Middlewares/ST/STM32_USB_Host_Library/Class/AUDIO/Src/usbh_audio.c ****       {
 300:Middlewares/ST/STM32_USB_Host_Library/Class/AUDIO/Src/usbh_audio.c ****         USBH_AUDIO_BuildMicrophonePath (phost);        
 301:Middlewares/ST/STM32_USB_Host_Library/Class/AUDIO/Src/usbh_audio.c ****         AUDIO_Handle->microphone.Pipe  = USBH_AllocPipe(phost, AUDIO_Handle->microphone.Ep);
 302:Middlewares/ST/STM32_USB_Host_Library/Class/AUDIO/Src/usbh_audio.c ****         
 303:Middlewares/ST/STM32_USB_Host_Library/Class/AUDIO/Src/usbh_audio.c ****         /* Open pipe for IN endpoint */
 304:Middlewares/ST/STM32_USB_Host_Library/Class/AUDIO/Src/usbh_audio.c ****         USBH_OpenPipe  (phost,
 305:Middlewares/ST/STM32_USB_Host_Library/Class/AUDIO/Src/usbh_audio.c ****                         AUDIO_Handle->microphone.Pipe,
 306:Middlewares/ST/STM32_USB_Host_Library/Class/AUDIO/Src/usbh_audio.c ****                         AUDIO_Handle->microphone.Ep,
 307:Middlewares/ST/STM32_USB_Host_Library/Class/AUDIO/Src/usbh_audio.c ****                         phost->device.address,
 308:Middlewares/ST/STM32_USB_Host_Library/Class/AUDIO/Src/usbh_audio.c ****                         phost->device.speed,
 309:Middlewares/ST/STM32_USB_Host_Library/Class/AUDIO/Src/usbh_audio.c ****                         USB_EP_TYPE_ISOC,
 310:Middlewares/ST/STM32_USB_Host_Library/Class/AUDIO/Src/usbh_audio.c ****                         AUDIO_Handle->microphone.EpSize); 
 311:Middlewares/ST/STM32_USB_Host_Library/Class/AUDIO/Src/usbh_audio.c ****         
 312:Middlewares/ST/STM32_USB_Host_Library/Class/AUDIO/Src/usbh_audio.c ****         USBH_LL_SetToggle (phost,  AUDIO_Handle->microphone.Pipe, 0);  
 313:Middlewares/ST/STM32_USB_Host_Library/Class/AUDIO/Src/usbh_audio.c ****       }
 314:Middlewares/ST/STM32_USB_Host_Library/Class/AUDIO/Src/usbh_audio.c ****       
 315:Middlewares/ST/STM32_USB_Host_Library/Class/AUDIO/Src/usbh_audio.c ****       if(AUDIO_Handle->control.supported == 1)
ARM GAS  /tmp/cc7hx4Eu.s 			page 7


 316:Middlewares/ST/STM32_USB_Host_Library/Class/AUDIO/Src/usbh_audio.c ****       {     
 317:Middlewares/ST/STM32_USB_Host_Library/Class/AUDIO/Src/usbh_audio.c ****         AUDIO_Handle->control.Pipe  = USBH_AllocPipe(phost, AUDIO_Handle->control.Ep);
 318:Middlewares/ST/STM32_USB_Host_Library/Class/AUDIO/Src/usbh_audio.c ****         
 319:Middlewares/ST/STM32_USB_Host_Library/Class/AUDIO/Src/usbh_audio.c ****         /* Open pipe for IN endpoint */
 320:Middlewares/ST/STM32_USB_Host_Library/Class/AUDIO/Src/usbh_audio.c ****         USBH_OpenPipe  (phost,
 321:Middlewares/ST/STM32_USB_Host_Library/Class/AUDIO/Src/usbh_audio.c ****                         AUDIO_Handle->control.Pipe,
 322:Middlewares/ST/STM32_USB_Host_Library/Class/AUDIO/Src/usbh_audio.c ****                         AUDIO_Handle->control.Ep,
 323:Middlewares/ST/STM32_USB_Host_Library/Class/AUDIO/Src/usbh_audio.c ****                         phost->device.address,
 324:Middlewares/ST/STM32_USB_Host_Library/Class/AUDIO/Src/usbh_audio.c ****                         phost->device.speed,
 325:Middlewares/ST/STM32_USB_Host_Library/Class/AUDIO/Src/usbh_audio.c ****                         USB_EP_TYPE_INTR,
 326:Middlewares/ST/STM32_USB_Host_Library/Class/AUDIO/Src/usbh_audio.c ****                         AUDIO_Handle->control.EpSize); 
 327:Middlewares/ST/STM32_USB_Host_Library/Class/AUDIO/Src/usbh_audio.c ****         
 328:Middlewares/ST/STM32_USB_Host_Library/Class/AUDIO/Src/usbh_audio.c ****         USBH_LL_SetToggle (phost,  AUDIO_Handle->control.Pipe, 0);          
 329:Middlewares/ST/STM32_USB_Host_Library/Class/AUDIO/Src/usbh_audio.c ****    
 330:Middlewares/ST/STM32_USB_Host_Library/Class/AUDIO/Src/usbh_audio.c ****       }
 331:Middlewares/ST/STM32_USB_Host_Library/Class/AUDIO/Src/usbh_audio.c ****       
 332:Middlewares/ST/STM32_USB_Host_Library/Class/AUDIO/Src/usbh_audio.c ****       AUDIO_Handle->req_state     = AUDIO_REQ_INIT;
 333:Middlewares/ST/STM32_USB_Host_Library/Class/AUDIO/Src/usbh_audio.c ****       AUDIO_Handle->control_state = AUDIO_CONTROL_INIT;
 334:Middlewares/ST/STM32_USB_Host_Library/Class/AUDIO/Src/usbh_audio.c ****       
 335:Middlewares/ST/STM32_USB_Host_Library/Class/AUDIO/Src/usbh_audio.c ****       status = USBH_OK;
 336:Middlewares/ST/STM32_USB_Host_Library/Class/AUDIO/Src/usbh_audio.c ****     }
 337:Middlewares/ST/STM32_USB_Host_Library/Class/AUDIO/Src/usbh_audio.c ****   }
 338:Middlewares/ST/STM32_USB_Host_Library/Class/AUDIO/Src/usbh_audio.c ****   return status;
 339:Middlewares/ST/STM32_USB_Host_Library/Class/AUDIO/Src/usbh_audio.c **** }
 340:Middlewares/ST/STM32_USB_Host_Library/Class/AUDIO/Src/usbh_audio.c **** 
 341:Middlewares/ST/STM32_USB_Host_Library/Class/AUDIO/Src/usbh_audio.c **** 
 342:Middlewares/ST/STM32_USB_Host_Library/Class/AUDIO/Src/usbh_audio.c **** 
 343:Middlewares/ST/STM32_USB_Host_Library/Class/AUDIO/Src/usbh_audio.c **** /**
 344:Middlewares/ST/STM32_USB_Host_Library/Class/AUDIO/Src/usbh_audio.c ****   * @brief  USBH_AUDIO_InterfaceDeInit 
 345:Middlewares/ST/STM32_USB_Host_Library/Class/AUDIO/Src/usbh_audio.c ****   *         The function DeInit the Pipes used for the Audio class.
 346:Middlewares/ST/STM32_USB_Host_Library/Class/AUDIO/Src/usbh_audio.c ****   * @param  phost: Host handle
 347:Middlewares/ST/STM32_USB_Host_Library/Class/AUDIO/Src/usbh_audio.c ****   * @retval USBH Status
 348:Middlewares/ST/STM32_USB_Host_Library/Class/AUDIO/Src/usbh_audio.c ****   */
 349:Middlewares/ST/STM32_USB_Host_Library/Class/AUDIO/Src/usbh_audio.c **** USBH_StatusTypeDef USBH_AUDIO_InterfaceDeInit (USBH_HandleTypeDef *phost)
 350:Middlewares/ST/STM32_USB_Host_Library/Class/AUDIO/Src/usbh_audio.c **** {
 351:Middlewares/ST/STM32_USB_Host_Library/Class/AUDIO/Src/usbh_audio.c ****   AUDIO_HandleTypeDef *AUDIO_Handle =  (AUDIO_HandleTypeDef *) phost->pActiveClass->pData; 
 352:Middlewares/ST/STM32_USB_Host_Library/Class/AUDIO/Src/usbh_audio.c ****   
 353:Middlewares/ST/STM32_USB_Host_Library/Class/AUDIO/Src/usbh_audio.c ****   if(AUDIO_Handle->microphone.Pipe != 0x00)
 354:Middlewares/ST/STM32_USB_Host_Library/Class/AUDIO/Src/usbh_audio.c ****   {   
 355:Middlewares/ST/STM32_USB_Host_Library/Class/AUDIO/Src/usbh_audio.c ****     USBH_ClosePipe  (phost, AUDIO_Handle->microphone.Pipe);
 356:Middlewares/ST/STM32_USB_Host_Library/Class/AUDIO/Src/usbh_audio.c ****     USBH_FreePipe  (phost, AUDIO_Handle->microphone.Pipe);
 357:Middlewares/ST/STM32_USB_Host_Library/Class/AUDIO/Src/usbh_audio.c ****     AUDIO_Handle->microphone.Pipe = 0;     /* Reset the pipe as Free */  
 358:Middlewares/ST/STM32_USB_Host_Library/Class/AUDIO/Src/usbh_audio.c ****   }
 359:Middlewares/ST/STM32_USB_Host_Library/Class/AUDIO/Src/usbh_audio.c ****   
 360:Middlewares/ST/STM32_USB_Host_Library/Class/AUDIO/Src/usbh_audio.c ****   if( AUDIO_Handle->headphone.Pipe != 0x00)
 361:Middlewares/ST/STM32_USB_Host_Library/Class/AUDIO/Src/usbh_audio.c ****   {   
 362:Middlewares/ST/STM32_USB_Host_Library/Class/AUDIO/Src/usbh_audio.c ****     USBH_ClosePipe(phost,  AUDIO_Handle->headphone.Pipe);
 363:Middlewares/ST/STM32_USB_Host_Library/Class/AUDIO/Src/usbh_audio.c ****     USBH_FreePipe  (phost,  AUDIO_Handle->headphone.Pipe);
 364:Middlewares/ST/STM32_USB_Host_Library/Class/AUDIO/Src/usbh_audio.c ****     AUDIO_Handle->headphone.Pipe = 0;     /* Reset the pipe as Free */  
 365:Middlewares/ST/STM32_USB_Host_Library/Class/AUDIO/Src/usbh_audio.c ****   }
 366:Middlewares/ST/STM32_USB_Host_Library/Class/AUDIO/Src/usbh_audio.c ****   
 367:Middlewares/ST/STM32_USB_Host_Library/Class/AUDIO/Src/usbh_audio.c ****   if( AUDIO_Handle->control.Pipe != 0x00)
 368:Middlewares/ST/STM32_USB_Host_Library/Class/AUDIO/Src/usbh_audio.c ****   {   
 369:Middlewares/ST/STM32_USB_Host_Library/Class/AUDIO/Src/usbh_audio.c ****     USBH_ClosePipe(phost,  AUDIO_Handle->control.Pipe);
 370:Middlewares/ST/STM32_USB_Host_Library/Class/AUDIO/Src/usbh_audio.c ****     USBH_FreePipe  (phost,  AUDIO_Handle->control.Pipe);
 371:Middlewares/ST/STM32_USB_Host_Library/Class/AUDIO/Src/usbh_audio.c ****     AUDIO_Handle->control.Pipe = 0;     /* Reset the pipe as Free */  
 372:Middlewares/ST/STM32_USB_Host_Library/Class/AUDIO/Src/usbh_audio.c ****   }
ARM GAS  /tmp/cc7hx4Eu.s 			page 8


 373:Middlewares/ST/STM32_USB_Host_Library/Class/AUDIO/Src/usbh_audio.c ****   
 374:Middlewares/ST/STM32_USB_Host_Library/Class/AUDIO/Src/usbh_audio.c ****   if(phost->pActiveClass->pData)
 375:Middlewares/ST/STM32_USB_Host_Library/Class/AUDIO/Src/usbh_audio.c ****   {
 376:Middlewares/ST/STM32_USB_Host_Library/Class/AUDIO/Src/usbh_audio.c ****     USBH_free (phost->pActiveClass->pData);
 377:Middlewares/ST/STM32_USB_Host_Library/Class/AUDIO/Src/usbh_audio.c ****     phost->pActiveClass->pData = 0;
 378:Middlewares/ST/STM32_USB_Host_Library/Class/AUDIO/Src/usbh_audio.c ****   }  
 379:Middlewares/ST/STM32_USB_Host_Library/Class/AUDIO/Src/usbh_audio.c ****   return USBH_OK ;
 380:Middlewares/ST/STM32_USB_Host_Library/Class/AUDIO/Src/usbh_audio.c **** }
 381:Middlewares/ST/STM32_USB_Host_Library/Class/AUDIO/Src/usbh_audio.c **** 
 382:Middlewares/ST/STM32_USB_Host_Library/Class/AUDIO/Src/usbh_audio.c **** /**
 383:Middlewares/ST/STM32_USB_Host_Library/Class/AUDIO/Src/usbh_audio.c ****   * @brief  USBH_AUDIO_ClassRequest 
 384:Middlewares/ST/STM32_USB_Host_Library/Class/AUDIO/Src/usbh_audio.c ****   *         The function is responsible for handling Standard requests
 385:Middlewares/ST/STM32_USB_Host_Library/Class/AUDIO/Src/usbh_audio.c ****   *         for Audio class.
 386:Middlewares/ST/STM32_USB_Host_Library/Class/AUDIO/Src/usbh_audio.c ****   * @param  phost: Host handle
 387:Middlewares/ST/STM32_USB_Host_Library/Class/AUDIO/Src/usbh_audio.c ****   * @retval USBH Status
 388:Middlewares/ST/STM32_USB_Host_Library/Class/AUDIO/Src/usbh_audio.c ****   */
 389:Middlewares/ST/STM32_USB_Host_Library/Class/AUDIO/Src/usbh_audio.c **** static USBH_StatusTypeDef USBH_AUDIO_ClassRequest(USBH_HandleTypeDef *phost)
 390:Middlewares/ST/STM32_USB_Host_Library/Class/AUDIO/Src/usbh_audio.c **** {   
 391:Middlewares/ST/STM32_USB_Host_Library/Class/AUDIO/Src/usbh_audio.c ****   AUDIO_HandleTypeDef *AUDIO_Handle =  (AUDIO_HandleTypeDef *) phost->pActiveClass->pData;  
 392:Middlewares/ST/STM32_USB_Host_Library/Class/AUDIO/Src/usbh_audio.c ****   USBH_StatusTypeDef status = USBH_BUSY;
 393:Middlewares/ST/STM32_USB_Host_Library/Class/AUDIO/Src/usbh_audio.c ****   USBH_StatusTypeDef req_status = USBH_BUSY;
 394:Middlewares/ST/STM32_USB_Host_Library/Class/AUDIO/Src/usbh_audio.c ****   
 395:Middlewares/ST/STM32_USB_Host_Library/Class/AUDIO/Src/usbh_audio.c ****   /* Switch AUDIO REQ state machine */
 396:Middlewares/ST/STM32_USB_Host_Library/Class/AUDIO/Src/usbh_audio.c ****   switch (AUDIO_Handle->req_state)
 397:Middlewares/ST/STM32_USB_Host_Library/Class/AUDIO/Src/usbh_audio.c ****   {
 398:Middlewares/ST/STM32_USB_Host_Library/Class/AUDIO/Src/usbh_audio.c ****   case AUDIO_REQ_INIT:
 399:Middlewares/ST/STM32_USB_Host_Library/Class/AUDIO/Src/usbh_audio.c ****   case AUDIO_REQ_SET_DEFAULT_IN_INTERFACE:
 400:Middlewares/ST/STM32_USB_Host_Library/Class/AUDIO/Src/usbh_audio.c ****     if(AUDIO_Handle->microphone.supported == 1)
 401:Middlewares/ST/STM32_USB_Host_Library/Class/AUDIO/Src/usbh_audio.c ****     {
 402:Middlewares/ST/STM32_USB_Host_Library/Class/AUDIO/Src/usbh_audio.c ****       req_status = USBH_SetInterface(phost, 
 403:Middlewares/ST/STM32_USB_Host_Library/Class/AUDIO/Src/usbh_audio.c ****                                      AUDIO_Handle->microphone.interface, 
 404:Middlewares/ST/STM32_USB_Host_Library/Class/AUDIO/Src/usbh_audio.c ****                                      0);
 405:Middlewares/ST/STM32_USB_Host_Library/Class/AUDIO/Src/usbh_audio.c ****       
 406:Middlewares/ST/STM32_USB_Host_Library/Class/AUDIO/Src/usbh_audio.c ****       if(req_status == USBH_OK)
 407:Middlewares/ST/STM32_USB_Host_Library/Class/AUDIO/Src/usbh_audio.c ****       {
 408:Middlewares/ST/STM32_USB_Host_Library/Class/AUDIO/Src/usbh_audio.c ****         AUDIO_Handle->req_state = AUDIO_REQ_SET_DEFAULT_OUT_INTERFACE;
 409:Middlewares/ST/STM32_USB_Host_Library/Class/AUDIO/Src/usbh_audio.c ****       }
 410:Middlewares/ST/STM32_USB_Host_Library/Class/AUDIO/Src/usbh_audio.c ****       
 411:Middlewares/ST/STM32_USB_Host_Library/Class/AUDIO/Src/usbh_audio.c ****     }
 412:Middlewares/ST/STM32_USB_Host_Library/Class/AUDIO/Src/usbh_audio.c ****     else
 413:Middlewares/ST/STM32_USB_Host_Library/Class/AUDIO/Src/usbh_audio.c ****     {
 414:Middlewares/ST/STM32_USB_Host_Library/Class/AUDIO/Src/usbh_audio.c ****       AUDIO_Handle->req_state = AUDIO_REQ_SET_DEFAULT_OUT_INTERFACE;
 415:Middlewares/ST/STM32_USB_Host_Library/Class/AUDIO/Src/usbh_audio.c **** #if (USBH_USE_OS == 1)
 416:Middlewares/ST/STM32_USB_Host_Library/Class/AUDIO/Src/usbh_audio.c ****       osMessagePut ( phost->os_event, USBH_URB_EVENT, 0);
 417:Middlewares/ST/STM32_USB_Host_Library/Class/AUDIO/Src/usbh_audio.c **** #endif       
 418:Middlewares/ST/STM32_USB_Host_Library/Class/AUDIO/Src/usbh_audio.c ****     }
 419:Middlewares/ST/STM32_USB_Host_Library/Class/AUDIO/Src/usbh_audio.c ****     break;
 420:Middlewares/ST/STM32_USB_Host_Library/Class/AUDIO/Src/usbh_audio.c ****     
 421:Middlewares/ST/STM32_USB_Host_Library/Class/AUDIO/Src/usbh_audio.c ****   case AUDIO_REQ_SET_DEFAULT_OUT_INTERFACE:
 422:Middlewares/ST/STM32_USB_Host_Library/Class/AUDIO/Src/usbh_audio.c ****     if(AUDIO_Handle->headphone.supported == 1)
 423:Middlewares/ST/STM32_USB_Host_Library/Class/AUDIO/Src/usbh_audio.c ****     {
 424:Middlewares/ST/STM32_USB_Host_Library/Class/AUDIO/Src/usbh_audio.c ****       req_status = USBH_SetInterface(phost, 
 425:Middlewares/ST/STM32_USB_Host_Library/Class/AUDIO/Src/usbh_audio.c ****                                      AUDIO_Handle->headphone.interface, 
 426:Middlewares/ST/STM32_USB_Host_Library/Class/AUDIO/Src/usbh_audio.c ****                                      0);
 427:Middlewares/ST/STM32_USB_Host_Library/Class/AUDIO/Src/usbh_audio.c ****       
 428:Middlewares/ST/STM32_USB_Host_Library/Class/AUDIO/Src/usbh_audio.c ****       if(req_status == USBH_OK)
 429:Middlewares/ST/STM32_USB_Host_Library/Class/AUDIO/Src/usbh_audio.c ****       {
ARM GAS  /tmp/cc7hx4Eu.s 			page 9


 430:Middlewares/ST/STM32_USB_Host_Library/Class/AUDIO/Src/usbh_audio.c ****         AUDIO_Handle->req_state = AUDIO_REQ_CS_REQUESTS;
 431:Middlewares/ST/STM32_USB_Host_Library/Class/AUDIO/Src/usbh_audio.c ****         AUDIO_Handle->cs_req_state = AUDIO_REQ_GET_VOLUME;
 432:Middlewares/ST/STM32_USB_Host_Library/Class/AUDIO/Src/usbh_audio.c ****         
 433:Middlewares/ST/STM32_USB_Host_Library/Class/AUDIO/Src/usbh_audio.c ****         AUDIO_Handle->temp_feature  = AUDIO_Handle->headphone.asociated_feature;
 434:Middlewares/ST/STM32_USB_Host_Library/Class/AUDIO/Src/usbh_audio.c ****         AUDIO_Handle->temp_channels = AUDIO_Handle->headphone.asociated_channels;
 435:Middlewares/ST/STM32_USB_Host_Library/Class/AUDIO/Src/usbh_audio.c ****       }
 436:Middlewares/ST/STM32_USB_Host_Library/Class/AUDIO/Src/usbh_audio.c ****     }
 437:Middlewares/ST/STM32_USB_Host_Library/Class/AUDIO/Src/usbh_audio.c ****     else
 438:Middlewares/ST/STM32_USB_Host_Library/Class/AUDIO/Src/usbh_audio.c ****     {
 439:Middlewares/ST/STM32_USB_Host_Library/Class/AUDIO/Src/usbh_audio.c ****         AUDIO_Handle->req_state = AUDIO_REQ_CS_REQUESTS;
 440:Middlewares/ST/STM32_USB_Host_Library/Class/AUDIO/Src/usbh_audio.c ****         AUDIO_Handle->cs_req_state = AUDIO_REQ_GET_VOLUME;
 441:Middlewares/ST/STM32_USB_Host_Library/Class/AUDIO/Src/usbh_audio.c **** #if (USBH_USE_OS == 1)
 442:Middlewares/ST/STM32_USB_Host_Library/Class/AUDIO/Src/usbh_audio.c ****       osMessagePut ( phost->os_event, USBH_URB_EVENT, 0);
 443:Middlewares/ST/STM32_USB_Host_Library/Class/AUDIO/Src/usbh_audio.c **** #endif         
 444:Middlewares/ST/STM32_USB_Host_Library/Class/AUDIO/Src/usbh_audio.c ****     }
 445:Middlewares/ST/STM32_USB_Host_Library/Class/AUDIO/Src/usbh_audio.c ****     break;
 446:Middlewares/ST/STM32_USB_Host_Library/Class/AUDIO/Src/usbh_audio.c ****     
 447:Middlewares/ST/STM32_USB_Host_Library/Class/AUDIO/Src/usbh_audio.c ****   case AUDIO_REQ_CS_REQUESTS:
 448:Middlewares/ST/STM32_USB_Host_Library/Class/AUDIO/Src/usbh_audio.c ****     if(USBH_AUDIO_HandleCSRequest (phost) == USBH_OK)
 449:Middlewares/ST/STM32_USB_Host_Library/Class/AUDIO/Src/usbh_audio.c ****     {
 450:Middlewares/ST/STM32_USB_Host_Library/Class/AUDIO/Src/usbh_audio.c ****       AUDIO_Handle->req_state = AUDIO_REQ_SET_IN_INTERFACE;
 451:Middlewares/ST/STM32_USB_Host_Library/Class/AUDIO/Src/usbh_audio.c ****     }
 452:Middlewares/ST/STM32_USB_Host_Library/Class/AUDIO/Src/usbh_audio.c ****     break;
 453:Middlewares/ST/STM32_USB_Host_Library/Class/AUDIO/Src/usbh_audio.c ****    
 454:Middlewares/ST/STM32_USB_Host_Library/Class/AUDIO/Src/usbh_audio.c ****   case AUDIO_REQ_SET_IN_INTERFACE:
 455:Middlewares/ST/STM32_USB_Host_Library/Class/AUDIO/Src/usbh_audio.c ****     if(AUDIO_Handle->microphone.supported == 1)
 456:Middlewares/ST/STM32_USB_Host_Library/Class/AUDIO/Src/usbh_audio.c ****     {
 457:Middlewares/ST/STM32_USB_Host_Library/Class/AUDIO/Src/usbh_audio.c ****       req_status = USBH_SetInterface(phost, 
 458:Middlewares/ST/STM32_USB_Host_Library/Class/AUDIO/Src/usbh_audio.c ****                                      AUDIO_Handle->microphone.interface, 
 459:Middlewares/ST/STM32_USB_Host_Library/Class/AUDIO/Src/usbh_audio.c ****                                      AUDIO_Handle->microphone.AltSettings);
 460:Middlewares/ST/STM32_USB_Host_Library/Class/AUDIO/Src/usbh_audio.c ****       
 461:Middlewares/ST/STM32_USB_Host_Library/Class/AUDIO/Src/usbh_audio.c ****       if(req_status == USBH_OK)
 462:Middlewares/ST/STM32_USB_Host_Library/Class/AUDIO/Src/usbh_audio.c ****       {
 463:Middlewares/ST/STM32_USB_Host_Library/Class/AUDIO/Src/usbh_audio.c ****         AUDIO_Handle->req_state = AUDIO_REQ_SET_OUT_INTERFACE;
 464:Middlewares/ST/STM32_USB_Host_Library/Class/AUDIO/Src/usbh_audio.c ****       }
 465:Middlewares/ST/STM32_USB_Host_Library/Class/AUDIO/Src/usbh_audio.c ****     }
 466:Middlewares/ST/STM32_USB_Host_Library/Class/AUDIO/Src/usbh_audio.c ****     else
 467:Middlewares/ST/STM32_USB_Host_Library/Class/AUDIO/Src/usbh_audio.c ****     {
 468:Middlewares/ST/STM32_USB_Host_Library/Class/AUDIO/Src/usbh_audio.c ****       AUDIO_Handle->req_state = AUDIO_REQ_SET_OUT_INTERFACE;
 469:Middlewares/ST/STM32_USB_Host_Library/Class/AUDIO/Src/usbh_audio.c **** #if (USBH_USE_OS == 1)
 470:Middlewares/ST/STM32_USB_Host_Library/Class/AUDIO/Src/usbh_audio.c ****       osMessagePut ( phost->os_event, USBH_URB_EVENT, 0);
 471:Middlewares/ST/STM32_USB_Host_Library/Class/AUDIO/Src/usbh_audio.c **** #endif       
 472:Middlewares/ST/STM32_USB_Host_Library/Class/AUDIO/Src/usbh_audio.c ****     }
 473:Middlewares/ST/STM32_USB_Host_Library/Class/AUDIO/Src/usbh_audio.c ****     break;
 474:Middlewares/ST/STM32_USB_Host_Library/Class/AUDIO/Src/usbh_audio.c ****   case AUDIO_REQ_SET_OUT_INTERFACE:
 475:Middlewares/ST/STM32_USB_Host_Library/Class/AUDIO/Src/usbh_audio.c ****    if(AUDIO_Handle->headphone.supported == 1)
 476:Middlewares/ST/STM32_USB_Host_Library/Class/AUDIO/Src/usbh_audio.c ****     {
 477:Middlewares/ST/STM32_USB_Host_Library/Class/AUDIO/Src/usbh_audio.c ****       req_status = USBH_SetInterface(phost, 
 478:Middlewares/ST/STM32_USB_Host_Library/Class/AUDIO/Src/usbh_audio.c ****                                      AUDIO_Handle->headphone.interface, 
 479:Middlewares/ST/STM32_USB_Host_Library/Class/AUDIO/Src/usbh_audio.c ****                                      AUDIO_Handle->headphone.AltSettings);
 480:Middlewares/ST/STM32_USB_Host_Library/Class/AUDIO/Src/usbh_audio.c ****       
 481:Middlewares/ST/STM32_USB_Host_Library/Class/AUDIO/Src/usbh_audio.c ****       if(req_status == USBH_OK)
 482:Middlewares/ST/STM32_USB_Host_Library/Class/AUDIO/Src/usbh_audio.c ****       {
 483:Middlewares/ST/STM32_USB_Host_Library/Class/AUDIO/Src/usbh_audio.c ****         AUDIO_Handle->req_state = AUDIO_REQ_IDLE;
 484:Middlewares/ST/STM32_USB_Host_Library/Class/AUDIO/Src/usbh_audio.c ****       }
 485:Middlewares/ST/STM32_USB_Host_Library/Class/AUDIO/Src/usbh_audio.c ****       
 486:Middlewares/ST/STM32_USB_Host_Library/Class/AUDIO/Src/usbh_audio.c ****     }
ARM GAS  /tmp/cc7hx4Eu.s 			page 10


 487:Middlewares/ST/STM32_USB_Host_Library/Class/AUDIO/Src/usbh_audio.c ****    else
 488:Middlewares/ST/STM32_USB_Host_Library/Class/AUDIO/Src/usbh_audio.c ****    {
 489:Middlewares/ST/STM32_USB_Host_Library/Class/AUDIO/Src/usbh_audio.c ****      AUDIO_Handle->req_state = AUDIO_REQ_IDLE;
 490:Middlewares/ST/STM32_USB_Host_Library/Class/AUDIO/Src/usbh_audio.c **** #if (USBH_USE_OS == 1)
 491:Middlewares/ST/STM32_USB_Host_Library/Class/AUDIO/Src/usbh_audio.c ****       osMessagePut ( phost->os_event, USBH_URB_EVENT, 0);
 492:Middlewares/ST/STM32_USB_Host_Library/Class/AUDIO/Src/usbh_audio.c **** #endif      
 493:Middlewares/ST/STM32_USB_Host_Library/Class/AUDIO/Src/usbh_audio.c ****    }
 494:Middlewares/ST/STM32_USB_Host_Library/Class/AUDIO/Src/usbh_audio.c ****    break;
 495:Middlewares/ST/STM32_USB_Host_Library/Class/AUDIO/Src/usbh_audio.c ****   case AUDIO_REQ_IDLE:
 496:Middlewares/ST/STM32_USB_Host_Library/Class/AUDIO/Src/usbh_audio.c ****     AUDIO_Handle->play_state = AUDIO_PLAYBACK_INIT;
 497:Middlewares/ST/STM32_USB_Host_Library/Class/AUDIO/Src/usbh_audio.c ****     phost->pUser(phost, HOST_USER_CLASS_ACTIVE); 
 498:Middlewares/ST/STM32_USB_Host_Library/Class/AUDIO/Src/usbh_audio.c ****     status  = USBH_OK;    
 499:Middlewares/ST/STM32_USB_Host_Library/Class/AUDIO/Src/usbh_audio.c **** #if (USBH_USE_OS == 1)
 500:Middlewares/ST/STM32_USB_Host_Library/Class/AUDIO/Src/usbh_audio.c ****       osMessagePut ( phost->os_event, USBH_CLASS_EVENT, 0);
 501:Middlewares/ST/STM32_USB_Host_Library/Class/AUDIO/Src/usbh_audio.c **** #endif
 502:Middlewares/ST/STM32_USB_Host_Library/Class/AUDIO/Src/usbh_audio.c ****   default:
 503:Middlewares/ST/STM32_USB_Host_Library/Class/AUDIO/Src/usbh_audio.c ****     break;
 504:Middlewares/ST/STM32_USB_Host_Library/Class/AUDIO/Src/usbh_audio.c ****   }
 505:Middlewares/ST/STM32_USB_Host_Library/Class/AUDIO/Src/usbh_audio.c ****   return status; 
 506:Middlewares/ST/STM32_USB_Host_Library/Class/AUDIO/Src/usbh_audio.c **** }
 507:Middlewares/ST/STM32_USB_Host_Library/Class/AUDIO/Src/usbh_audio.c **** 
 508:Middlewares/ST/STM32_USB_Host_Library/Class/AUDIO/Src/usbh_audio.c **** /**
 509:Middlewares/ST/STM32_USB_Host_Library/Class/AUDIO/Src/usbh_audio.c ****   * @brief  USBH_AUDIO_CSRequest 
 510:Middlewares/ST/STM32_USB_Host_Library/Class/AUDIO/Src/usbh_audio.c ****   *         The function is responsible for handling AC Specific requests for a specific feature an
 511:Middlewares/ST/STM32_USB_Host_Library/Class/AUDIO/Src/usbh_audio.c ****   *         for Audio class.
 512:Middlewares/ST/STM32_USB_Host_Library/Class/AUDIO/Src/usbh_audio.c ****   * @param  phost: Host handle
 513:Middlewares/ST/STM32_USB_Host_Library/Class/AUDIO/Src/usbh_audio.c ****   * @retval USBH Status
 514:Middlewares/ST/STM32_USB_Host_Library/Class/AUDIO/Src/usbh_audio.c ****   */
 515:Middlewares/ST/STM32_USB_Host_Library/Class/AUDIO/Src/usbh_audio.c **** static USBH_StatusTypeDef USBH_AUDIO_CSRequest(USBH_HandleTypeDef *phost, uint8_t feature, uint8_t 
 516:Middlewares/ST/STM32_USB_Host_Library/Class/AUDIO/Src/usbh_audio.c **** {   
 517:Middlewares/ST/STM32_USB_Host_Library/Class/AUDIO/Src/usbh_audio.c ****   AUDIO_HandleTypeDef *AUDIO_Handle =  (AUDIO_HandleTypeDef *) phost->pActiveClass->pData;  
 518:Middlewares/ST/STM32_USB_Host_Library/Class/AUDIO/Src/usbh_audio.c ****   USBH_StatusTypeDef status = USBH_BUSY;
 519:Middlewares/ST/STM32_USB_Host_Library/Class/AUDIO/Src/usbh_audio.c ****   USBH_StatusTypeDef req_status = USBH_BUSY;
 520:Middlewares/ST/STM32_USB_Host_Library/Class/AUDIO/Src/usbh_audio.c ****   
 521:Middlewares/ST/STM32_USB_Host_Library/Class/AUDIO/Src/usbh_audio.c ****   /* Switch AUDIO REQ state machine */
 522:Middlewares/ST/STM32_USB_Host_Library/Class/AUDIO/Src/usbh_audio.c ****   switch (AUDIO_Handle->cs_req_state)
 523:Middlewares/ST/STM32_USB_Host_Library/Class/AUDIO/Src/usbh_audio.c ****   {
 524:Middlewares/ST/STM32_USB_Host_Library/Class/AUDIO/Src/usbh_audio.c ****   case AUDIO_REQ_GET_VOLUME:
 525:Middlewares/ST/STM32_USB_Host_Library/Class/AUDIO/Src/usbh_audio.c ****     req_status = USBH_AC_GetCur(phost,                 
 526:Middlewares/ST/STM32_USB_Host_Library/Class/AUDIO/Src/usbh_audio.c ****                                 UAC_FEATURE_UNIT,     /* subtype  */
 527:Middlewares/ST/STM32_USB_Host_Library/Class/AUDIO/Src/usbh_audio.c ****                                 feature,              /* feature  */
 528:Middlewares/ST/STM32_USB_Host_Library/Class/AUDIO/Src/usbh_audio.c ****                                 VOLUME_CONTROL,       /* Selector */
 529:Middlewares/ST/STM32_USB_Host_Library/Class/AUDIO/Src/usbh_audio.c ****                                 channel,              /* channel  */
 530:Middlewares/ST/STM32_USB_Host_Library/Class/AUDIO/Src/usbh_audio.c ****                                 0x02);                /* length   */
 531:Middlewares/ST/STM32_USB_Host_Library/Class/AUDIO/Src/usbh_audio.c ****     if(req_status != USBH_BUSY)
 532:Middlewares/ST/STM32_USB_Host_Library/Class/AUDIO/Src/usbh_audio.c ****     {
 533:Middlewares/ST/STM32_USB_Host_Library/Class/AUDIO/Src/usbh_audio.c ****       AUDIO_Handle->cs_req_state = AUDIO_REQ_GET_MIN_VOLUME;
 534:Middlewares/ST/STM32_USB_Host_Library/Class/AUDIO/Src/usbh_audio.c ****       AUDIO_Handle->headphone.attribute.volume = LE16(&(AUDIO_Handle->mem[0]));
 535:Middlewares/ST/STM32_USB_Host_Library/Class/AUDIO/Src/usbh_audio.c ****     }
 536:Middlewares/ST/STM32_USB_Host_Library/Class/AUDIO/Src/usbh_audio.c ****     break;
 537:Middlewares/ST/STM32_USB_Host_Library/Class/AUDIO/Src/usbh_audio.c ****     
 538:Middlewares/ST/STM32_USB_Host_Library/Class/AUDIO/Src/usbh_audio.c ****   case AUDIO_REQ_GET_MIN_VOLUME:
 539:Middlewares/ST/STM32_USB_Host_Library/Class/AUDIO/Src/usbh_audio.c ****     req_status = USBH_AC_GetMin(phost,                 
 540:Middlewares/ST/STM32_USB_Host_Library/Class/AUDIO/Src/usbh_audio.c ****                                 UAC_FEATURE_UNIT,     /* subtype  */
 541:Middlewares/ST/STM32_USB_Host_Library/Class/AUDIO/Src/usbh_audio.c ****                                 feature,              /* feature  */
 542:Middlewares/ST/STM32_USB_Host_Library/Class/AUDIO/Src/usbh_audio.c ****                                 VOLUME_CONTROL,       /* Selector */
 543:Middlewares/ST/STM32_USB_Host_Library/Class/AUDIO/Src/usbh_audio.c ****                                 channel,              /* channel  */
ARM GAS  /tmp/cc7hx4Eu.s 			page 11


 544:Middlewares/ST/STM32_USB_Host_Library/Class/AUDIO/Src/usbh_audio.c ****                                 0x02);                /* length   */
 545:Middlewares/ST/STM32_USB_Host_Library/Class/AUDIO/Src/usbh_audio.c ****     if(req_status != USBH_BUSY)
 546:Middlewares/ST/STM32_USB_Host_Library/Class/AUDIO/Src/usbh_audio.c ****     {
 547:Middlewares/ST/STM32_USB_Host_Library/Class/AUDIO/Src/usbh_audio.c ****       AUDIO_Handle->cs_req_state = AUDIO_REQ_GET_MAX_VOLUME;
 548:Middlewares/ST/STM32_USB_Host_Library/Class/AUDIO/Src/usbh_audio.c ****       AUDIO_Handle->headphone.attribute.volumeMin = LE16(&AUDIO_Handle->mem[0]);
 549:Middlewares/ST/STM32_USB_Host_Library/Class/AUDIO/Src/usbh_audio.c ****     }
 550:Middlewares/ST/STM32_USB_Host_Library/Class/AUDIO/Src/usbh_audio.c ****     break;
 551:Middlewares/ST/STM32_USB_Host_Library/Class/AUDIO/Src/usbh_audio.c **** 
 552:Middlewares/ST/STM32_USB_Host_Library/Class/AUDIO/Src/usbh_audio.c ****   case AUDIO_REQ_GET_MAX_VOLUME:
 553:Middlewares/ST/STM32_USB_Host_Library/Class/AUDIO/Src/usbh_audio.c ****     req_status = USBH_AC_GetMax(phost,                 
 554:Middlewares/ST/STM32_USB_Host_Library/Class/AUDIO/Src/usbh_audio.c ****                                 UAC_FEATURE_UNIT,     /* subtype  */
 555:Middlewares/ST/STM32_USB_Host_Library/Class/AUDIO/Src/usbh_audio.c ****                                 feature,              /* feature  */
 556:Middlewares/ST/STM32_USB_Host_Library/Class/AUDIO/Src/usbh_audio.c ****                                 VOLUME_CONTROL,       /* Selector */
 557:Middlewares/ST/STM32_USB_Host_Library/Class/AUDIO/Src/usbh_audio.c ****                                 channel,              /* channel  */
 558:Middlewares/ST/STM32_USB_Host_Library/Class/AUDIO/Src/usbh_audio.c ****                                 0x02);                /* length   */
 559:Middlewares/ST/STM32_USB_Host_Library/Class/AUDIO/Src/usbh_audio.c ****     if(req_status != USBH_BUSY)
 560:Middlewares/ST/STM32_USB_Host_Library/Class/AUDIO/Src/usbh_audio.c ****     {
 561:Middlewares/ST/STM32_USB_Host_Library/Class/AUDIO/Src/usbh_audio.c ****       AUDIO_Handle->cs_req_state = AUDIO_REQ_GET_RESOLUTION;
 562:Middlewares/ST/STM32_USB_Host_Library/Class/AUDIO/Src/usbh_audio.c ****       AUDIO_Handle->headphone.attribute.volumeMax = LE16(&AUDIO_Handle->mem[0]);   
 563:Middlewares/ST/STM32_USB_Host_Library/Class/AUDIO/Src/usbh_audio.c ****       
 564:Middlewares/ST/STM32_USB_Host_Library/Class/AUDIO/Src/usbh_audio.c ****       if (AUDIO_Handle->headphone.attribute.volumeMax < AUDIO_Handle->headphone.attribute.volumeMin
 565:Middlewares/ST/STM32_USB_Host_Library/Class/AUDIO/Src/usbh_audio.c ****       {
 566:Middlewares/ST/STM32_USB_Host_Library/Class/AUDIO/Src/usbh_audio.c ****         AUDIO_Handle->headphone.attribute.volumeMax = 0xFF00; 
 567:Middlewares/ST/STM32_USB_Host_Library/Class/AUDIO/Src/usbh_audio.c ****       }
 568:Middlewares/ST/STM32_USB_Host_Library/Class/AUDIO/Src/usbh_audio.c ****     }
 569:Middlewares/ST/STM32_USB_Host_Library/Class/AUDIO/Src/usbh_audio.c ****     break;
 570:Middlewares/ST/STM32_USB_Host_Library/Class/AUDIO/Src/usbh_audio.c ****     
 571:Middlewares/ST/STM32_USB_Host_Library/Class/AUDIO/Src/usbh_audio.c ****   case AUDIO_REQ_GET_RESOLUTION:
 572:Middlewares/ST/STM32_USB_Host_Library/Class/AUDIO/Src/usbh_audio.c ****     req_status = USBH_AC_GetRes(phost,                 
 573:Middlewares/ST/STM32_USB_Host_Library/Class/AUDIO/Src/usbh_audio.c ****                                 UAC_FEATURE_UNIT,     /* subtype  */
 574:Middlewares/ST/STM32_USB_Host_Library/Class/AUDIO/Src/usbh_audio.c ****                                 feature,              /* feature  */
 575:Middlewares/ST/STM32_USB_Host_Library/Class/AUDIO/Src/usbh_audio.c ****                                 VOLUME_CONTROL,       /* Selector */
 576:Middlewares/ST/STM32_USB_Host_Library/Class/AUDIO/Src/usbh_audio.c ****                                 channel,              /* channel  */
 577:Middlewares/ST/STM32_USB_Host_Library/Class/AUDIO/Src/usbh_audio.c ****                                 0x02);                /* length   */
 578:Middlewares/ST/STM32_USB_Host_Library/Class/AUDIO/Src/usbh_audio.c ****     if(req_status != USBH_BUSY)
 579:Middlewares/ST/STM32_USB_Host_Library/Class/AUDIO/Src/usbh_audio.c ****     {
 580:Middlewares/ST/STM32_USB_Host_Library/Class/AUDIO/Src/usbh_audio.c ****       AUDIO_Handle->cs_req_state = AUDIO_REQ_CS_IDLE;
 581:Middlewares/ST/STM32_USB_Host_Library/Class/AUDIO/Src/usbh_audio.c ****       AUDIO_Handle->headphone.attribute.resolution = LE16(&AUDIO_Handle->mem[0]);    
 582:Middlewares/ST/STM32_USB_Host_Library/Class/AUDIO/Src/usbh_audio.c ****     }
 583:Middlewares/ST/STM32_USB_Host_Library/Class/AUDIO/Src/usbh_audio.c ****     break;
 584:Middlewares/ST/STM32_USB_Host_Library/Class/AUDIO/Src/usbh_audio.c ****     
 585:Middlewares/ST/STM32_USB_Host_Library/Class/AUDIO/Src/usbh_audio.c ****  
 586:Middlewares/ST/STM32_USB_Host_Library/Class/AUDIO/Src/usbh_audio.c ****   case AUDIO_REQ_CS_IDLE:
 587:Middlewares/ST/STM32_USB_Host_Library/Class/AUDIO/Src/usbh_audio.c ****     status = USBH_OK;
 588:Middlewares/ST/STM32_USB_Host_Library/Class/AUDIO/Src/usbh_audio.c ****   default:
 589:Middlewares/ST/STM32_USB_Host_Library/Class/AUDIO/Src/usbh_audio.c ****     break;
 590:Middlewares/ST/STM32_USB_Host_Library/Class/AUDIO/Src/usbh_audio.c ****   }
 591:Middlewares/ST/STM32_USB_Host_Library/Class/AUDIO/Src/usbh_audio.c ****   return status; 
 592:Middlewares/ST/STM32_USB_Host_Library/Class/AUDIO/Src/usbh_audio.c **** }
 593:Middlewares/ST/STM32_USB_Host_Library/Class/AUDIO/Src/usbh_audio.c **** 
 594:Middlewares/ST/STM32_USB_Host_Library/Class/AUDIO/Src/usbh_audio.c **** /**
 595:Middlewares/ST/STM32_USB_Host_Library/Class/AUDIO/Src/usbh_audio.c ****   * @brief  USBH_AUDIO_HandleCSRequest 
 596:Middlewares/ST/STM32_USB_Host_Library/Class/AUDIO/Src/usbh_audio.c ****   *         The function is responsible for handling AC Specific requests for a all features 
 597:Middlewares/ST/STM32_USB_Host_Library/Class/AUDIO/Src/usbh_audio.c ****   *         and associated channels for Audio class.
 598:Middlewares/ST/STM32_USB_Host_Library/Class/AUDIO/Src/usbh_audio.c ****   * @param  phost: Host handle
 599:Middlewares/ST/STM32_USB_Host_Library/Class/AUDIO/Src/usbh_audio.c ****   * @retval USBH Status
 600:Middlewares/ST/STM32_USB_Host_Library/Class/AUDIO/Src/usbh_audio.c ****   */
ARM GAS  /tmp/cc7hx4Eu.s 			page 12


 601:Middlewares/ST/STM32_USB_Host_Library/Class/AUDIO/Src/usbh_audio.c **** static USBH_StatusTypeDef USBH_AUDIO_HandleCSRequest(USBH_HandleTypeDef *phost)
 602:Middlewares/ST/STM32_USB_Host_Library/Class/AUDIO/Src/usbh_audio.c **** { 
 603:Middlewares/ST/STM32_USB_Host_Library/Class/AUDIO/Src/usbh_audio.c **** 
 604:Middlewares/ST/STM32_USB_Host_Library/Class/AUDIO/Src/usbh_audio.c ****   USBH_StatusTypeDef status = USBH_BUSY;
 605:Middlewares/ST/STM32_USB_Host_Library/Class/AUDIO/Src/usbh_audio.c ****   USBH_StatusTypeDef cs_status = USBH_BUSY;
 606:Middlewares/ST/STM32_USB_Host_Library/Class/AUDIO/Src/usbh_audio.c ****   AUDIO_HandleTypeDef *AUDIO_Handle =  (AUDIO_HandleTypeDef *) phost->pActiveClass->pData;  
 607:Middlewares/ST/STM32_USB_Host_Library/Class/AUDIO/Src/usbh_audio.c ****         
 608:Middlewares/ST/STM32_USB_Host_Library/Class/AUDIO/Src/usbh_audio.c ****   cs_status = USBH_AUDIO_CSRequest(phost, 
 609:Middlewares/ST/STM32_USB_Host_Library/Class/AUDIO/Src/usbh_audio.c ****                                    AUDIO_Handle->temp_feature, 
 610:Middlewares/ST/STM32_USB_Host_Library/Class/AUDIO/Src/usbh_audio.c ****                                    AUDIO_Handle->temp_channels);
 611:Middlewares/ST/STM32_USB_Host_Library/Class/AUDIO/Src/usbh_audio.c ****   
 612:Middlewares/ST/STM32_USB_Host_Library/Class/AUDIO/Src/usbh_audio.c ****   if(cs_status != USBH_BUSY)
 613:Middlewares/ST/STM32_USB_Host_Library/Class/AUDIO/Src/usbh_audio.c ****   {
 614:Middlewares/ST/STM32_USB_Host_Library/Class/AUDIO/Src/usbh_audio.c ****     
 615:Middlewares/ST/STM32_USB_Host_Library/Class/AUDIO/Src/usbh_audio.c ****     if(AUDIO_Handle->temp_channels ==  1)
 616:Middlewares/ST/STM32_USB_Host_Library/Class/AUDIO/Src/usbh_audio.c ****     {
 617:Middlewares/ST/STM32_USB_Host_Library/Class/AUDIO/Src/usbh_audio.c ****         AUDIO_Handle->temp_feature = AUDIO_Handle->headphone.asociated_feature;
 618:Middlewares/ST/STM32_USB_Host_Library/Class/AUDIO/Src/usbh_audio.c ****         AUDIO_Handle->temp_channels = 0;
 619:Middlewares/ST/STM32_USB_Host_Library/Class/AUDIO/Src/usbh_audio.c ****         status = USBH_OK; 
 620:Middlewares/ST/STM32_USB_Host_Library/Class/AUDIO/Src/usbh_audio.c ****     }
 621:Middlewares/ST/STM32_USB_Host_Library/Class/AUDIO/Src/usbh_audio.c ****     else
 622:Middlewares/ST/STM32_USB_Host_Library/Class/AUDIO/Src/usbh_audio.c ****     {
 623:Middlewares/ST/STM32_USB_Host_Library/Class/AUDIO/Src/usbh_audio.c ****       AUDIO_Handle->temp_channels--;
 624:Middlewares/ST/STM32_USB_Host_Library/Class/AUDIO/Src/usbh_audio.c ****     }
 625:Middlewares/ST/STM32_USB_Host_Library/Class/AUDIO/Src/usbh_audio.c ****     AUDIO_Handle->cs_req_state = AUDIO_REQ_GET_VOLUME;
 626:Middlewares/ST/STM32_USB_Host_Library/Class/AUDIO/Src/usbh_audio.c **** #if (USBH_USE_OS == 1)
 627:Middlewares/ST/STM32_USB_Host_Library/Class/AUDIO/Src/usbh_audio.c ****       osMessagePut ( phost->os_event, USBH_URB_EVENT, 0);
 628:Middlewares/ST/STM32_USB_Host_Library/Class/AUDIO/Src/usbh_audio.c **** #endif     
 629:Middlewares/ST/STM32_USB_Host_Library/Class/AUDIO/Src/usbh_audio.c ****   }
 630:Middlewares/ST/STM32_USB_Host_Library/Class/AUDIO/Src/usbh_audio.c ****   
 631:Middlewares/ST/STM32_USB_Host_Library/Class/AUDIO/Src/usbh_audio.c ****   return status;
 632:Middlewares/ST/STM32_USB_Host_Library/Class/AUDIO/Src/usbh_audio.c **** }
 633:Middlewares/ST/STM32_USB_Host_Library/Class/AUDIO/Src/usbh_audio.c **** 
 634:Middlewares/ST/STM32_USB_Host_Library/Class/AUDIO/Src/usbh_audio.c **** /**
 635:Middlewares/ST/STM32_USB_Host_Library/Class/AUDIO/Src/usbh_audio.c ****   * @brief  USBH_AUDIO_Process 
 636:Middlewares/ST/STM32_USB_Host_Library/Class/AUDIO/Src/usbh_audio.c ****   *         The function is for managing state machine for Audio data transfers 
 637:Middlewares/ST/STM32_USB_Host_Library/Class/AUDIO/Src/usbh_audio.c ****   * @param  phost: Host handle
 638:Middlewares/ST/STM32_USB_Host_Library/Class/AUDIO/Src/usbh_audio.c ****   * @retval USBH Status
 639:Middlewares/ST/STM32_USB_Host_Library/Class/AUDIO/Src/usbh_audio.c ****   */
 640:Middlewares/ST/STM32_USB_Host_Library/Class/AUDIO/Src/usbh_audio.c **** static USBH_StatusTypeDef USBH_AUDIO_Process (USBH_HandleTypeDef *phost)
 641:Middlewares/ST/STM32_USB_Host_Library/Class/AUDIO/Src/usbh_audio.c **** {   
 642:Middlewares/ST/STM32_USB_Host_Library/Class/AUDIO/Src/usbh_audio.c ****   USBH_StatusTypeDef status = USBH_BUSY;
 643:Middlewares/ST/STM32_USB_Host_Library/Class/AUDIO/Src/usbh_audio.c ****   AUDIO_HandleTypeDef *AUDIO_Handle =  (AUDIO_HandleTypeDef *)  phost->pActiveClass->pData;  
 644:Middlewares/ST/STM32_USB_Host_Library/Class/AUDIO/Src/usbh_audio.c ****   
 645:Middlewares/ST/STM32_USB_Host_Library/Class/AUDIO/Src/usbh_audio.c ****   if(AUDIO_Handle->headphone.supported == 1)
 646:Middlewares/ST/STM32_USB_Host_Library/Class/AUDIO/Src/usbh_audio.c ****   {
 647:Middlewares/ST/STM32_USB_Host_Library/Class/AUDIO/Src/usbh_audio.c ****     USBH_AUDIO_OutputStream (phost);
 648:Middlewares/ST/STM32_USB_Host_Library/Class/AUDIO/Src/usbh_audio.c ****   }
 649:Middlewares/ST/STM32_USB_Host_Library/Class/AUDIO/Src/usbh_audio.c ****   
 650:Middlewares/ST/STM32_USB_Host_Library/Class/AUDIO/Src/usbh_audio.c ****   if(AUDIO_Handle->microphone.supported == 1)
 651:Middlewares/ST/STM32_USB_Host_Library/Class/AUDIO/Src/usbh_audio.c ****   {
 652:Middlewares/ST/STM32_USB_Host_Library/Class/AUDIO/Src/usbh_audio.c ****     USBH_AUDIO_InputStream (phost);
 653:Middlewares/ST/STM32_USB_Host_Library/Class/AUDIO/Src/usbh_audio.c ****   }
 654:Middlewares/ST/STM32_USB_Host_Library/Class/AUDIO/Src/usbh_audio.c ****  
 655:Middlewares/ST/STM32_USB_Host_Library/Class/AUDIO/Src/usbh_audio.c ****   return status;
 656:Middlewares/ST/STM32_USB_Host_Library/Class/AUDIO/Src/usbh_audio.c **** }
 657:Middlewares/ST/STM32_USB_Host_Library/Class/AUDIO/Src/usbh_audio.c **** 
ARM GAS  /tmp/cc7hx4Eu.s 			page 13


 658:Middlewares/ST/STM32_USB_Host_Library/Class/AUDIO/Src/usbh_audio.c **** /**
 659:Middlewares/ST/STM32_USB_Host_Library/Class/AUDIO/Src/usbh_audio.c ****   * @brief  USBH_AUDIO_SOFProcess 
 660:Middlewares/ST/STM32_USB_Host_Library/Class/AUDIO/Src/usbh_audio.c ****   *         The function is for managing the SOF callback
 661:Middlewares/ST/STM32_USB_Host_Library/Class/AUDIO/Src/usbh_audio.c ****   * @param  phost: Host handle
 662:Middlewares/ST/STM32_USB_Host_Library/Class/AUDIO/Src/usbh_audio.c ****   * @retval USBH Status
 663:Middlewares/ST/STM32_USB_Host_Library/Class/AUDIO/Src/usbh_audio.c ****   */
 664:Middlewares/ST/STM32_USB_Host_Library/Class/AUDIO/Src/usbh_audio.c **** static USBH_StatusTypeDef USBH_AUDIO_SOFProcess (USBH_HandleTypeDef *phost)
 665:Middlewares/ST/STM32_USB_Host_Library/Class/AUDIO/Src/usbh_audio.c **** {  
  29              		.loc 1 665 0
  30              		.cfi_startproc
  31              		@ args = 0, pretend = 0, frame = 0
  32              		@ frame_needed = 0, uses_anonymous_args = 0
  33              		@ link register save eliminated.
  34              	.LVL0:
 666:Middlewares/ST/STM32_USB_Host_Library/Class/AUDIO/Src/usbh_audio.c ****   return USBH_OK;
 667:Middlewares/ST/STM32_USB_Host_Library/Class/AUDIO/Src/usbh_audio.c **** }
  35              		.loc 1 667 0
  36 0000 0020     		movs	r0, #0
  37              	.LVL1:
  38 0002 7047     		bx	lr
  39              		.cfi_endproc
  40              	.LFE130:
  42              		.section	.text.USBH_AUDIO_FindAudioStreamingIN,"ax",%progbits
  43              		.align	2
  44              		.thumb
  45              		.thumb_func
  47              	USBH_AUDIO_FindAudioStreamingIN:
  48              	.LFB131:
 668:Middlewares/ST/STM32_USB_Host_Library/Class/AUDIO/Src/usbh_audio.c **** /**
 669:Middlewares/ST/STM32_USB_Host_Library/Class/AUDIO/Src/usbh_audio.c ****   * @brief  Find IN Audio Streaming interfaces
 670:Middlewares/ST/STM32_USB_Host_Library/Class/AUDIO/Src/usbh_audio.c ****   * @param  phost: Host handle
 671:Middlewares/ST/STM32_USB_Host_Library/Class/AUDIO/Src/usbh_audio.c ****   * @retval USBH Status
 672:Middlewares/ST/STM32_USB_Host_Library/Class/AUDIO/Src/usbh_audio.c ****   */
 673:Middlewares/ST/STM32_USB_Host_Library/Class/AUDIO/Src/usbh_audio.c **** static USBH_StatusTypeDef USBH_AUDIO_FindAudioStreamingIN(USBH_HandleTypeDef *phost)
 674:Middlewares/ST/STM32_USB_Host_Library/Class/AUDIO/Src/usbh_audio.c **** {
  49              		.loc 1 674 0
  50              		.cfi_startproc
  51              		@ args = 0, pretend = 0, frame = 0
  52              		@ frame_needed = 0, uses_anonymous_args = 0
  53              	.LVL2:
  54 0000 F0B5     		push	{r4, r5, r6, r7, lr}
  55              	.LCFI0:
  56              		.cfi_def_cfa_offset 20
  57              		.cfi_offset 4, -20
  58              		.cfi_offset 5, -16
  59              		.cfi_offset 6, -12
  60              		.cfi_offset 7, -8
  61              		.cfi_offset 14, -4
  62              	.LVL3:
 675:Middlewares/ST/STM32_USB_Host_Library/Class/AUDIO/Src/usbh_audio.c ****   uint8_t interface, alt_settings;
 676:Middlewares/ST/STM32_USB_Host_Library/Class/AUDIO/Src/usbh_audio.c ****   USBH_StatusTypeDef status = USBH_FAIL ;
 677:Middlewares/ST/STM32_USB_Host_Library/Class/AUDIO/Src/usbh_audio.c ****   AUDIO_HandleTypeDef *AUDIO_Handle;
 678:Middlewares/ST/STM32_USB_Host_Library/Class/AUDIO/Src/usbh_audio.c **** 
 679:Middlewares/ST/STM32_USB_Host_Library/Class/AUDIO/Src/usbh_audio.c ****   AUDIO_Handle = (AUDIO_HandleTypeDef *) phost->pActiveClass->pData; 
  63              		.loc 1 679 0
  64 0002 D0F84435 		ldr	r3, [r0, #1348]
  65 0006 DD69     		ldr	r5, [r3, #28]
ARM GAS  /tmp/cc7hx4Eu.s 			page 14


  66              	.LVL4:
 680:Middlewares/ST/STM32_USB_Host_Library/Class/AUDIO/Src/usbh_audio.c **** 
 681:Middlewares/ST/STM32_USB_Host_Library/Class/AUDIO/Src/usbh_audio.c ****   /* Look For AUDIOSTREAMING IN interface */
 682:Middlewares/ST/STM32_USB_Host_Library/Class/AUDIO/Src/usbh_audio.c ****   alt_settings = 0;
  67              		.loc 1 682 0
  68 0008 0024     		movs	r4, #0
 683:Middlewares/ST/STM32_USB_Host_Library/Class/AUDIO/Src/usbh_audio.c ****   for (interface = 0;  interface < USBH_MAX_NUM_INTERFACES ; interface ++ )
  69              		.loc 1 683 0
  70 000a 2346     		mov	r3, r4
  71 000c 38E0     		b	.L3
  72              	.LVL5:
  73              	.L5:
 684:Middlewares/ST/STM32_USB_Host_Library/Class/AUDIO/Src/usbh_audio.c ****   {
 685:Middlewares/ST/STM32_USB_Host_Library/Class/AUDIO/Src/usbh_audio.c ****     if((phost->device.CfgDesc.Itf_Desc[interface].bInterfaceClass == AC_CLASS)&&
  74              		.loc 1 685 0
  75 000e 3222     		movs	r2, #50
  76 0010 02FB0302 		mla	r2, r2, r3, r0
  77 0014 92F84123 		ldrb	r2, [r2, #833]	@ zero_extendqisi2
  78 0018 012A     		cmp	r2, #1
  79 001a 2FD1     		bne	.L4
 686:Middlewares/ST/STM32_USB_Host_Library/Class/AUDIO/Src/usbh_audio.c ****        (phost->device.CfgDesc.Itf_Desc[interface].bInterfaceSubClass == USB_SUBCLASS_AUDIOSTREAMING
  80              		.loc 1 686 0 discriminator 1
  81 001c 3222     		movs	r2, #50
  82 001e 02FB0302 		mla	r2, r2, r3, r0
  83 0022 92F84223 		ldrb	r2, [r2, #834]	@ zero_extendqisi2
 685:Middlewares/ST/STM32_USB_Host_Library/Class/AUDIO/Src/usbh_audio.c ****        (phost->device.CfgDesc.Itf_Desc[interface].bInterfaceSubClass == USB_SUBCLASS_AUDIOSTREAMING
  84              		.loc 1 685 0 discriminator 1
  85 0026 022A     		cmp	r2, #2
  86 0028 28D1     		bne	.L4
 687:Middlewares/ST/STM32_USB_Host_Library/Class/AUDIO/Src/usbh_audio.c ****     {
 688:Middlewares/ST/STM32_USB_Host_Library/Class/AUDIO/Src/usbh_audio.c ****       if((phost->device.CfgDesc.Itf_Desc[interface].Ep_Desc[0].bEndpointAddress & 0x80)&&
  87              		.loc 1 688 0
  88 002a 3222     		movs	r2, #50
  89 002c 02FB0302 		mla	r2, r2, r3, r0
  90 0030 92F84823 		ldrb	r2, [r2, #840]	@ zero_extendqisi2
  91 0034 12F0800F 		tst	r2, #128
  92 0038 20D0     		beq	.L4
 689:Middlewares/ST/STM32_USB_Host_Library/Class/AUDIO/Src/usbh_audio.c ****          (phost->device.CfgDesc.Itf_Desc[interface].Ep_Desc[0].wMaxPacketSize > 0))
  93              		.loc 1 689 0 discriminator 1
  94 003a 3226     		movs	r6, #50
  95 003c 06FB0306 		mla	r6, r6, r3, r0
  96 0040 B6F84A63 		ldrh	r6, [r6, #842]
 688:Middlewares/ST/STM32_USB_Host_Library/Class/AUDIO/Src/usbh_audio.c ****          (phost->device.CfgDesc.Itf_Desc[interface].Ep_Desc[0].wMaxPacketSize > 0))
  97              		.loc 1 688 0 discriminator 1
  98 0044 D6B1     		cbz	r6, .L4
 690:Middlewares/ST/STM32_USB_Host_Library/Class/AUDIO/Src/usbh_audio.c ****       {
 691:Middlewares/ST/STM32_USB_Host_Library/Class/AUDIO/Src/usbh_audio.c ****         AUDIO_Handle->stream_in[alt_settings].Ep = phost->device.CfgDesc.Itf_Desc[interface].Ep_Des
  99              		.loc 1 691 0
 100 0046 A700     		lsls	r7, r4, #2
 101 0048 07EB040E 		add	lr, r7, r4
 102 004c 4FEA4E06 		lsl	r6, lr, #1
 103 0050 B646     		mov	lr, r6
 104 0052 2E44     		add	r6, r6, r5
 105 0054 B271     		strb	r2, [r6, #6]
 692:Middlewares/ST/STM32_USB_Host_Library/Class/AUDIO/Src/usbh_audio.c ****         AUDIO_Handle->stream_in[alt_settings].EpSize = phost->device.CfgDesc.Itf_Desc[interface].Ep
 106              		.loc 1 692 0
 107 0056 3222     		movs	r2, #50
ARM GAS  /tmp/cc7hx4Eu.s 			page 15


 108 0058 02FB0301 		mla	r1, r2, r3, r0
 109 005c B1F84A23 		ldrh	r2, [r1, #842]
 110 0060 3281     		strh	r2, [r6, #8]	@ movhi
 693:Middlewares/ST/STM32_USB_Host_Library/Class/AUDIO/Src/usbh_audio.c ****         AUDIO_Handle->stream_in[alt_settings].interface = phost->device.CfgDesc.Itf_Desc[interface]
 111              		.loc 1 693 0
 112 0062 91F83E23 		ldrb	r2, [r1, #830]	@ zero_extendqisi2
 113 0066 F272     		strb	r2, [r6, #11]
 694:Middlewares/ST/STM32_USB_Host_Library/Class/AUDIO/Src/usbh_audio.c ****         AUDIO_Handle->stream_in[alt_settings].AltSettings = phost->device.CfgDesc.Itf_Desc[interfac
 114              		.loc 1 694 0
 115 0068 91F83F23 		ldrb	r2, [r1, #831]	@ zero_extendqisi2
 116 006c B272     		strb	r2, [r6, #10]
 695:Middlewares/ST/STM32_USB_Host_Library/Class/AUDIO/Src/usbh_audio.c ****         AUDIO_Handle->stream_in[alt_settings].Poll = phost->device.CfgDesc.Itf_Desc[interface].Ep_D
 117              		.loc 1 695 0
 118 006e 91F84C23 		ldrb	r2, [r1, #844]	@ zero_extendqisi2
 119 0072 F281     		strh	r2, [r6, #14]	@ movhi
 696:Middlewares/ST/STM32_USB_Host_Library/Class/AUDIO/Src/usbh_audio.c ****         AUDIO_Handle->stream_in[alt_settings].valid = 1; 
 120              		.loc 1 696 0
 121 0074 0122     		movs	r2, #1
 122 0076 3273     		strb	r2, [r6, #12]
 697:Middlewares/ST/STM32_USB_Host_Library/Class/AUDIO/Src/usbh_audio.c ****         alt_settings++;
 123              		.loc 1 697 0
 124 0078 1444     		add	r4, r4, r2
 125              	.LVL6:
 126 007a E4B2     		uxtb	r4, r4
 127              	.LVL7:
 128              	.L4:
 683:Middlewares/ST/STM32_USB_Host_Library/Class/AUDIO/Src/usbh_audio.c ****   {
 129              		.loc 1 683 0 discriminator 2
 130 007c 0133     		adds	r3, r3, #1
 131              	.LVL8:
 132 007e DBB2     		uxtb	r3, r3
 133              	.LVL9:
 134              	.L3:
 683:Middlewares/ST/STM32_USB_Host_Library/Class/AUDIO/Src/usbh_audio.c ****   {
 135              		.loc 1 683 0 is_stmt 0 discriminator 1
 136 0080 092B     		cmp	r3, #9
 137 0082 C4D9     		bls	.L5
 698:Middlewares/ST/STM32_USB_Host_Library/Class/AUDIO/Src/usbh_audio.c ****       }
 699:Middlewares/ST/STM32_USB_Host_Library/Class/AUDIO/Src/usbh_audio.c ****     }
 700:Middlewares/ST/STM32_USB_Host_Library/Class/AUDIO/Src/usbh_audio.c ****   } 
 701:Middlewares/ST/STM32_USB_Host_Library/Class/AUDIO/Src/usbh_audio.c ****   
 702:Middlewares/ST/STM32_USB_Host_Library/Class/AUDIO/Src/usbh_audio.c ****   if(alt_settings > 0)
 138              		.loc 1 702 0 is_stmt 1
 139 0084 0CB9     		cbnz	r4, .L7
 676:Middlewares/ST/STM32_USB_Host_Library/Class/AUDIO/Src/usbh_audio.c ****   AUDIO_HandleTypeDef *AUDIO_Handle;
 140              		.loc 1 676 0
 141 0086 0220     		movs	r0, #2
 142              	.LVL10:
 143 0088 F0BD     		pop	{r4, r5, r6, r7, pc}
 144              	.LVL11:
 145              	.L7:
 703:Middlewares/ST/STM32_USB_Host_Library/Class/AUDIO/Src/usbh_audio.c ****   {  
 704:Middlewares/ST/STM32_USB_Host_Library/Class/AUDIO/Src/usbh_audio.c ****      status = USBH_OK;
 146              		.loc 1 704 0
 147 008a 0020     		movs	r0, #0
 148              	.LVL12:
 705:Middlewares/ST/STM32_USB_Host_Library/Class/AUDIO/Src/usbh_audio.c ****   }
ARM GAS  /tmp/cc7hx4Eu.s 			page 16


 706:Middlewares/ST/STM32_USB_Host_Library/Class/AUDIO/Src/usbh_audio.c ****   
 707:Middlewares/ST/STM32_USB_Host_Library/Class/AUDIO/Src/usbh_audio.c ****   return status;
 708:Middlewares/ST/STM32_USB_Host_Library/Class/AUDIO/Src/usbh_audio.c **** }
 149              		.loc 1 708 0
 150 008c F0BD     		pop	{r4, r5, r6, r7, pc}
 151              		.cfi_endproc
 152              	.LFE131:
 154 008e 00BF     		.section	.text.USBH_AUDIO_FindAudioStreamingOUT,"ax",%progbits
 155              		.align	2
 156              		.thumb
 157              		.thumb_func
 159              	USBH_AUDIO_FindAudioStreamingOUT:
 160              	.LFB132:
 709:Middlewares/ST/STM32_USB_Host_Library/Class/AUDIO/Src/usbh_audio.c **** 
 710:Middlewares/ST/STM32_USB_Host_Library/Class/AUDIO/Src/usbh_audio.c **** /**
 711:Middlewares/ST/STM32_USB_Host_Library/Class/AUDIO/Src/usbh_audio.c ****   * @brief  Find OUT Audio Streaming interfaces
 712:Middlewares/ST/STM32_USB_Host_Library/Class/AUDIO/Src/usbh_audio.c ****   * @param  phost: Host handle
 713:Middlewares/ST/STM32_USB_Host_Library/Class/AUDIO/Src/usbh_audio.c ****   * @retval USBH Status
 714:Middlewares/ST/STM32_USB_Host_Library/Class/AUDIO/Src/usbh_audio.c ****   */
 715:Middlewares/ST/STM32_USB_Host_Library/Class/AUDIO/Src/usbh_audio.c **** static USBH_StatusTypeDef USBH_AUDIO_FindAudioStreamingOUT(USBH_HandleTypeDef *phost)
 716:Middlewares/ST/STM32_USB_Host_Library/Class/AUDIO/Src/usbh_audio.c **** {
 161              		.loc 1 716 0
 162              		.cfi_startproc
 163              		@ args = 0, pretend = 0, frame = 0
 164              		@ frame_needed = 0, uses_anonymous_args = 0
 165              	.LVL13:
 166 0000 F0B5     		push	{r4, r5, r6, r7, lr}
 167              	.LCFI1:
 168              		.cfi_def_cfa_offset 20
 169              		.cfi_offset 4, -20
 170              		.cfi_offset 5, -16
 171              		.cfi_offset 6, -12
 172              		.cfi_offset 7, -8
 173              		.cfi_offset 14, -4
 174              	.LVL14:
 717:Middlewares/ST/STM32_USB_Host_Library/Class/AUDIO/Src/usbh_audio.c ****   uint8_t interface, alt_settings;
 718:Middlewares/ST/STM32_USB_Host_Library/Class/AUDIO/Src/usbh_audio.c ****   USBH_StatusTypeDef status = USBH_FAIL ;
 719:Middlewares/ST/STM32_USB_Host_Library/Class/AUDIO/Src/usbh_audio.c ****   AUDIO_HandleTypeDef *AUDIO_Handle;
 720:Middlewares/ST/STM32_USB_Host_Library/Class/AUDIO/Src/usbh_audio.c **** 
 721:Middlewares/ST/STM32_USB_Host_Library/Class/AUDIO/Src/usbh_audio.c ****   AUDIO_Handle =  (AUDIO_HandleTypeDef *) phost->pActiveClass->pData; 
 175              		.loc 1 721 0
 176 0002 D0F84435 		ldr	r3, [r0, #1348]
 177 0006 DD69     		ldr	r5, [r3, #28]
 178              	.LVL15:
 722:Middlewares/ST/STM32_USB_Host_Library/Class/AUDIO/Src/usbh_audio.c **** 
 723:Middlewares/ST/STM32_USB_Host_Library/Class/AUDIO/Src/usbh_audio.c ****   /* Look For AUDIOSTREAMING IN interface */
 724:Middlewares/ST/STM32_USB_Host_Library/Class/AUDIO/Src/usbh_audio.c ****   alt_settings = 0;
 179              		.loc 1 724 0
 180 0008 0024     		movs	r4, #0
 725:Middlewares/ST/STM32_USB_Host_Library/Class/AUDIO/Src/usbh_audio.c ****   for (interface = 0;  interface < USBH_MAX_NUM_INTERFACES ; interface ++ )
 181              		.loc 1 725 0
 182 000a 2346     		mov	r3, r4
 183 000c 3FE0     		b	.L10
 184              	.LVL16:
 185              	.L12:
 726:Middlewares/ST/STM32_USB_Host_Library/Class/AUDIO/Src/usbh_audio.c ****   {
 727:Middlewares/ST/STM32_USB_Host_Library/Class/AUDIO/Src/usbh_audio.c ****     if((phost->device.CfgDesc.Itf_Desc[interface].bInterfaceClass == AC_CLASS)&&
ARM GAS  /tmp/cc7hx4Eu.s 			page 17


 186              		.loc 1 727 0
 187 000e 3222     		movs	r2, #50
 188 0010 02FB0302 		mla	r2, r2, r3, r0
 189 0014 92F84123 		ldrb	r2, [r2, #833]	@ zero_extendqisi2
 190 0018 012A     		cmp	r2, #1
 191 001a 36D1     		bne	.L11
 728:Middlewares/ST/STM32_USB_Host_Library/Class/AUDIO/Src/usbh_audio.c ****        (phost->device.CfgDesc.Itf_Desc[interface].bInterfaceSubClass == USB_SUBCLASS_AUDIOSTREAMING
 192              		.loc 1 728 0 discriminator 1
 193 001c 3222     		movs	r2, #50
 194 001e 02FB0302 		mla	r2, r2, r3, r0
 195 0022 92F84223 		ldrb	r2, [r2, #834]	@ zero_extendqisi2
 727:Middlewares/ST/STM32_USB_Host_Library/Class/AUDIO/Src/usbh_audio.c ****        (phost->device.CfgDesc.Itf_Desc[interface].bInterfaceSubClass == USB_SUBCLASS_AUDIOSTREAMING
 196              		.loc 1 727 0 discriminator 1
 197 0026 022A     		cmp	r2, #2
 198 0028 2FD1     		bne	.L11
 729:Middlewares/ST/STM32_USB_Host_Library/Class/AUDIO/Src/usbh_audio.c ****     {
 730:Middlewares/ST/STM32_USB_Host_Library/Class/AUDIO/Src/usbh_audio.c ****       if(((phost->device.CfgDesc.Itf_Desc[interface].Ep_Desc[0].bEndpointAddress & 0x80) == 0x00)&&
 199              		.loc 1 730 0
 200 002a 3222     		movs	r2, #50
 201 002c 02FB0302 		mla	r2, r2, r3, r0
 202 0030 92F84863 		ldrb	r6, [r2, #840]	@ zero_extendqisi2
 203 0034 16F0800F 		tst	r6, #128
 204 0038 27D1     		bne	.L11
 731:Middlewares/ST/STM32_USB_Host_Library/Class/AUDIO/Src/usbh_audio.c ****          (phost->device.CfgDesc.Itf_Desc[interface].Ep_Desc[0].wMaxPacketSize > 0))        
 205              		.loc 1 731 0 discriminator 1
 206 003a 3222     		movs	r2, #50
 207 003c 02FB0302 		mla	r2, r2, r3, r0
 208 0040 B2F84A23 		ldrh	r2, [r2, #842]
 730:Middlewares/ST/STM32_USB_Host_Library/Class/AUDIO/Src/usbh_audio.c ****          (phost->device.CfgDesc.Itf_Desc[interface].Ep_Desc[0].wMaxPacketSize > 0))        
 209              		.loc 1 730 0 discriminator 1
 210 0044 0AB3     		cbz	r2, .L11
 732:Middlewares/ST/STM32_USB_Host_Library/Class/AUDIO/Src/usbh_audio.c ****       {
 733:Middlewares/ST/STM32_USB_Host_Library/Class/AUDIO/Src/usbh_audio.c ****         AUDIO_Handle->stream_out[alt_settings].Ep = phost->device.CfgDesc.Itf_Desc[interface].Ep_De
 211              		.loc 1 733 0
 212 0046 A700     		lsls	r7, r4, #2
 213 0048 07EB040E 		add	lr, r7, r4
 214 004c 4FEA4E02 		lsl	r2, lr, #1
 215 0050 9646     		mov	lr, r2
 216 0052 2A44     		add	r2, r2, r5
 217 0054 82F83860 		strb	r6, [r2, #56]
 734:Middlewares/ST/STM32_USB_Host_Library/Class/AUDIO/Src/usbh_audio.c ****         AUDIO_Handle->stream_out[alt_settings].EpSize = phost->device.CfgDesc.Itf_Desc[interface].E
 218              		.loc 1 734 0
 219 0058 3226     		movs	r6, #50
 220 005a 06FB0301 		mla	r1, r6, r3, r0
 221 005e B1F84A63 		ldrh	r6, [r1, #842]
 222 0062 5687     		strh	r6, [r2, #58]	@ movhi
 735:Middlewares/ST/STM32_USB_Host_Library/Class/AUDIO/Src/usbh_audio.c ****         AUDIO_Handle->stream_out[alt_settings].interface = phost->device.CfgDesc.Itf_Desc[interface
 223              		.loc 1 735 0
 224 0064 91F83E63 		ldrb	r6, [r1, #830]	@ zero_extendqisi2
 225 0068 82F83D60 		strb	r6, [r2, #61]
 736:Middlewares/ST/STM32_USB_Host_Library/Class/AUDIO/Src/usbh_audio.c ****         AUDIO_Handle->stream_out[alt_settings].AltSettings = phost->device.CfgDesc.Itf_Desc[interfa
 226              		.loc 1 736 0
 227 006c 91F83F63 		ldrb	r6, [r1, #831]	@ zero_extendqisi2
 228 0070 82F83C60 		strb	r6, [r2, #60]
 737:Middlewares/ST/STM32_USB_Host_Library/Class/AUDIO/Src/usbh_audio.c ****         AUDIO_Handle->stream_out[alt_settings].Poll = phost->device.CfgDesc.Itf_Desc[interface].Ep_
 229              		.loc 1 737 0
 230 0074 91F84C13 		ldrb	r1, [r1, #844]	@ zero_extendqisi2
ARM GAS  /tmp/cc7hx4Eu.s 			page 18


 231 0078 A2F84010 		strh	r1, [r2, #64]	@ movhi
 738:Middlewares/ST/STM32_USB_Host_Library/Class/AUDIO/Src/usbh_audio.c ****         AUDIO_Handle->stream_out[alt_settings].valid = 1; 
 232              		.loc 1 738 0
 233 007c 7146     		mov	r1, lr
 234 007e 2944     		add	r1, r1, r5
 235 0080 0122     		movs	r2, #1
 236 0082 81F83E20 		strb	r2, [r1, #62]
 739:Middlewares/ST/STM32_USB_Host_Library/Class/AUDIO/Src/usbh_audio.c ****         alt_settings++;
 237              		.loc 1 739 0
 238 0086 1444     		add	r4, r4, r2
 239              	.LVL17:
 240 0088 E4B2     		uxtb	r4, r4
 241              	.LVL18:
 242              	.L11:
 725:Middlewares/ST/STM32_USB_Host_Library/Class/AUDIO/Src/usbh_audio.c ****   {
 243              		.loc 1 725 0 discriminator 2
 244 008a 0133     		adds	r3, r3, #1
 245              	.LVL19:
 246 008c DBB2     		uxtb	r3, r3
 247              	.LVL20:
 248              	.L10:
 725:Middlewares/ST/STM32_USB_Host_Library/Class/AUDIO/Src/usbh_audio.c ****   {
 249              		.loc 1 725 0 is_stmt 0 discriminator 1
 250 008e 092B     		cmp	r3, #9
 251 0090 BDD9     		bls	.L12
 740:Middlewares/ST/STM32_USB_Host_Library/Class/AUDIO/Src/usbh_audio.c ****       }
 741:Middlewares/ST/STM32_USB_Host_Library/Class/AUDIO/Src/usbh_audio.c ****     }
 742:Middlewares/ST/STM32_USB_Host_Library/Class/AUDIO/Src/usbh_audio.c ****   }
 743:Middlewares/ST/STM32_USB_Host_Library/Class/AUDIO/Src/usbh_audio.c ****   
 744:Middlewares/ST/STM32_USB_Host_Library/Class/AUDIO/Src/usbh_audio.c ****   if(alt_settings > 0)
 252              		.loc 1 744 0 is_stmt 1
 253 0092 0CB9     		cbnz	r4, .L14
 718:Middlewares/ST/STM32_USB_Host_Library/Class/AUDIO/Src/usbh_audio.c ****   AUDIO_HandleTypeDef *AUDIO_Handle;
 254              		.loc 1 718 0
 255 0094 0220     		movs	r0, #2
 256              	.LVL21:
 257 0096 F0BD     		pop	{r4, r5, r6, r7, pc}
 258              	.LVL22:
 259              	.L14:
 745:Middlewares/ST/STM32_USB_Host_Library/Class/AUDIO/Src/usbh_audio.c ****   {
 746:Middlewares/ST/STM32_USB_Host_Library/Class/AUDIO/Src/usbh_audio.c ****      status = USBH_OK;
 260              		.loc 1 746 0
 261 0098 0020     		movs	r0, #0
 262              	.LVL23:
 747:Middlewares/ST/STM32_USB_Host_Library/Class/AUDIO/Src/usbh_audio.c ****   }
 748:Middlewares/ST/STM32_USB_Host_Library/Class/AUDIO/Src/usbh_audio.c ****   
 749:Middlewares/ST/STM32_USB_Host_Library/Class/AUDIO/Src/usbh_audio.c ****   return status;  
 750:Middlewares/ST/STM32_USB_Host_Library/Class/AUDIO/Src/usbh_audio.c **** }
 263              		.loc 1 750 0
 264 009a F0BD     		pop	{r4, r5, r6, r7, pc}
 265              		.cfi_endproc
 266              	.LFE132:
 268              		.section	.text.ParseCSDescriptors,"ax",%progbits
 269              		.align	2
 270              		.thumb
 271              		.thumb_func
 273              	ParseCSDescriptors:
ARM GAS  /tmp/cc7hx4Eu.s 			page 19


 274              	.LFB135:
 751:Middlewares/ST/STM32_USB_Host_Library/Class/AUDIO/Src/usbh_audio.c **** 
 752:Middlewares/ST/STM32_USB_Host_Library/Class/AUDIO/Src/usbh_audio.c **** /**
 753:Middlewares/ST/STM32_USB_Host_Library/Class/AUDIO/Src/usbh_audio.c ****   * @brief  Find HID Control interfaces
 754:Middlewares/ST/STM32_USB_Host_Library/Class/AUDIO/Src/usbh_audio.c ****   * @param  phost: Host handle
 755:Middlewares/ST/STM32_USB_Host_Library/Class/AUDIO/Src/usbh_audio.c ****   * @retval USBH Status
 756:Middlewares/ST/STM32_USB_Host_Library/Class/AUDIO/Src/usbh_audio.c ****   */
 757:Middlewares/ST/STM32_USB_Host_Library/Class/AUDIO/Src/usbh_audio.c **** static USBH_StatusTypeDef USBH_AUDIO_FindHIDControl(USBH_HandleTypeDef *phost)
 758:Middlewares/ST/STM32_USB_Host_Library/Class/AUDIO/Src/usbh_audio.c **** {
 759:Middlewares/ST/STM32_USB_Host_Library/Class/AUDIO/Src/usbh_audio.c ****   uint8_t interface;
 760:Middlewares/ST/STM32_USB_Host_Library/Class/AUDIO/Src/usbh_audio.c ****   USBH_StatusTypeDef status = USBH_FAIL ;
 761:Middlewares/ST/STM32_USB_Host_Library/Class/AUDIO/Src/usbh_audio.c ****   AUDIO_HandleTypeDef *AUDIO_Handle;
 762:Middlewares/ST/STM32_USB_Host_Library/Class/AUDIO/Src/usbh_audio.c **** 
 763:Middlewares/ST/STM32_USB_Host_Library/Class/AUDIO/Src/usbh_audio.c ****   AUDIO_Handle =  (AUDIO_HandleTypeDef *) phost->pActiveClass->pData;   
 764:Middlewares/ST/STM32_USB_Host_Library/Class/AUDIO/Src/usbh_audio.c **** 
 765:Middlewares/ST/STM32_USB_Host_Library/Class/AUDIO/Src/usbh_audio.c ****   /* Look For AUDIOCONTROL  interface */
 766:Middlewares/ST/STM32_USB_Host_Library/Class/AUDIO/Src/usbh_audio.c ****   interface = USBH_FindInterface(phost, AC_CLASS, USB_SUBCLASS_AUDIOCONTROL, 0xFF);
 767:Middlewares/ST/STM32_USB_Host_Library/Class/AUDIO/Src/usbh_audio.c ****   if(interface != 0xFF)
 768:Middlewares/ST/STM32_USB_Host_Library/Class/AUDIO/Src/usbh_audio.c ****   {
 769:Middlewares/ST/STM32_USB_Host_Library/Class/AUDIO/Src/usbh_audio.c ****     for (interface = 0;  interface < USBH_MAX_NUM_INTERFACES ; interface ++ )
 770:Middlewares/ST/STM32_USB_Host_Library/Class/AUDIO/Src/usbh_audio.c ****     {
 771:Middlewares/ST/STM32_USB_Host_Library/Class/AUDIO/Src/usbh_audio.c ****       if((phost->device.CfgDesc.Itf_Desc[interface].bInterfaceClass == 0x03)&& /*HID*/
 772:Middlewares/ST/STM32_USB_Host_Library/Class/AUDIO/Src/usbh_audio.c ****         (phost->device.CfgDesc.Itf_Desc[interface].Ep_Desc[0].wMaxPacketSize > 0))
 773:Middlewares/ST/STM32_USB_Host_Library/Class/AUDIO/Src/usbh_audio.c ****       {
 774:Middlewares/ST/STM32_USB_Host_Library/Class/AUDIO/Src/usbh_audio.c ****         if((phost->device.CfgDesc.Itf_Desc[interface].Ep_Desc[0].bEndpointAddress & 0x80) == 0x80)
 775:Middlewares/ST/STM32_USB_Host_Library/Class/AUDIO/Src/usbh_audio.c ****         {
 776:Middlewares/ST/STM32_USB_Host_Library/Class/AUDIO/Src/usbh_audio.c ****           AUDIO_Handle->control.Ep = phost->device.CfgDesc.Itf_Desc[interface].Ep_Desc[0].bEndpoint
 777:Middlewares/ST/STM32_USB_Host_Library/Class/AUDIO/Src/usbh_audio.c ****           AUDIO_Handle->control.EpSize = phost->device.CfgDesc.Itf_Desc[interface].Ep_Desc[0].wMaxP
 778:Middlewares/ST/STM32_USB_Host_Library/Class/AUDIO/Src/usbh_audio.c ****           AUDIO_Handle->control.interface = phost->device.CfgDesc.Itf_Desc[interface].bInterfaceNum
 779:Middlewares/ST/STM32_USB_Host_Library/Class/AUDIO/Src/usbh_audio.c ****           AUDIO_Handle->control.Poll = phost->device.CfgDesc.Itf_Desc[interface].Ep_Desc[0].bInterv
 780:Middlewares/ST/STM32_USB_Host_Library/Class/AUDIO/Src/usbh_audio.c ****           AUDIO_Handle->control.supported = 1;
 781:Middlewares/ST/STM32_USB_Host_Library/Class/AUDIO/Src/usbh_audio.c ****           status = USBH_OK;
 782:Middlewares/ST/STM32_USB_Host_Library/Class/AUDIO/Src/usbh_audio.c ****           break;
 783:Middlewares/ST/STM32_USB_Host_Library/Class/AUDIO/Src/usbh_audio.c ****         }
 784:Middlewares/ST/STM32_USB_Host_Library/Class/AUDIO/Src/usbh_audio.c ****       }
 785:Middlewares/ST/STM32_USB_Host_Library/Class/AUDIO/Src/usbh_audio.c ****     } 
 786:Middlewares/ST/STM32_USB_Host_Library/Class/AUDIO/Src/usbh_audio.c ****   }
 787:Middlewares/ST/STM32_USB_Host_Library/Class/AUDIO/Src/usbh_audio.c ****   return status;
 788:Middlewares/ST/STM32_USB_Host_Library/Class/AUDIO/Src/usbh_audio.c **** }
 789:Middlewares/ST/STM32_USB_Host_Library/Class/AUDIO/Src/usbh_audio.c **** 
 790:Middlewares/ST/STM32_USB_Host_Library/Class/AUDIO/Src/usbh_audio.c **** /**
 791:Middlewares/ST/STM32_USB_Host_Library/Class/AUDIO/Src/usbh_audio.c ****   * @brief  Parse AC and interfaces Descriptors
 792:Middlewares/ST/STM32_USB_Host_Library/Class/AUDIO/Src/usbh_audio.c ****   * @param  phost: Host handle
 793:Middlewares/ST/STM32_USB_Host_Library/Class/AUDIO/Src/usbh_audio.c ****   * @retval USBH Status
 794:Middlewares/ST/STM32_USB_Host_Library/Class/AUDIO/Src/usbh_audio.c ****   */
 795:Middlewares/ST/STM32_USB_Host_Library/Class/AUDIO/Src/usbh_audio.c **** static USBH_StatusTypeDef USBH_AUDIO_ParseCSDescriptors(USBH_HandleTypeDef *phost)
 796:Middlewares/ST/STM32_USB_Host_Library/Class/AUDIO/Src/usbh_audio.c **** {
 797:Middlewares/ST/STM32_USB_Host_Library/Class/AUDIO/Src/usbh_audio.c ****   USBH_DescHeader_t            *pdesc ;
 798:Middlewares/ST/STM32_USB_Host_Library/Class/AUDIO/Src/usbh_audio.c ****   uint16_t                      ptr;
 799:Middlewares/ST/STM32_USB_Host_Library/Class/AUDIO/Src/usbh_audio.c ****   int8_t                        itf_index = 0;
 800:Middlewares/ST/STM32_USB_Host_Library/Class/AUDIO/Src/usbh_audio.c ****   int8_t                        itf_number = 0; 
 801:Middlewares/ST/STM32_USB_Host_Library/Class/AUDIO/Src/usbh_audio.c ****   int8_t                        alt_setting;   
 802:Middlewares/ST/STM32_USB_Host_Library/Class/AUDIO/Src/usbh_audio.c ****   AUDIO_HandleTypeDef           *AUDIO_Handle;
 803:Middlewares/ST/STM32_USB_Host_Library/Class/AUDIO/Src/usbh_audio.c ****   
 804:Middlewares/ST/STM32_USB_Host_Library/Class/AUDIO/Src/usbh_audio.c ****   AUDIO_Handle =  (AUDIO_HandleTypeDef *) phost->pActiveClass->pData;  
 805:Middlewares/ST/STM32_USB_Host_Library/Class/AUDIO/Src/usbh_audio.c ****   pdesc   = (USBH_DescHeader_t *)(phost->device.CfgDesc_Raw);
 806:Middlewares/ST/STM32_USB_Host_Library/Class/AUDIO/Src/usbh_audio.c ****   ptr = USB_LEN_CFG_DESC;
ARM GAS  /tmp/cc7hx4Eu.s 			page 20


 807:Middlewares/ST/STM32_USB_Host_Library/Class/AUDIO/Src/usbh_audio.c ****   
 808:Middlewares/ST/STM32_USB_Host_Library/Class/AUDIO/Src/usbh_audio.c ****   AUDIO_Handle->class_desc.FeatureUnitNum = 0;
 809:Middlewares/ST/STM32_USB_Host_Library/Class/AUDIO/Src/usbh_audio.c ****   AUDIO_Handle->class_desc.InputTerminalNum = 0;
 810:Middlewares/ST/STM32_USB_Host_Library/Class/AUDIO/Src/usbh_audio.c ****   AUDIO_Handle->class_desc.OutputTerminalNum = 0;  
 811:Middlewares/ST/STM32_USB_Host_Library/Class/AUDIO/Src/usbh_audio.c ****   AUDIO_Handle->class_desc.ASNum = 0;
 812:Middlewares/ST/STM32_USB_Host_Library/Class/AUDIO/Src/usbh_audio.c ****   
 813:Middlewares/ST/STM32_USB_Host_Library/Class/AUDIO/Src/usbh_audio.c ****   while(ptr < phost->device.CfgDesc.wTotalLength)
 814:Middlewares/ST/STM32_USB_Host_Library/Class/AUDIO/Src/usbh_audio.c ****   {
 815:Middlewares/ST/STM32_USB_Host_Library/Class/AUDIO/Src/usbh_audio.c ****     pdesc = USBH_GetNextDesc((uint8_t*) pdesc, &ptr);
 816:Middlewares/ST/STM32_USB_Host_Library/Class/AUDIO/Src/usbh_audio.c ****     
 817:Middlewares/ST/STM32_USB_Host_Library/Class/AUDIO/Src/usbh_audio.c ****     switch (pdesc->bDescriptorType)
 818:Middlewares/ST/STM32_USB_Host_Library/Class/AUDIO/Src/usbh_audio.c ****     {
 819:Middlewares/ST/STM32_USB_Host_Library/Class/AUDIO/Src/usbh_audio.c ****       
 820:Middlewares/ST/STM32_USB_Host_Library/Class/AUDIO/Src/usbh_audio.c ****     case USB_DESC_TYPE_INTERFACE:
 821:Middlewares/ST/STM32_USB_Host_Library/Class/AUDIO/Src/usbh_audio.c ****       itf_number = *((uint8_t *)pdesc + 2);
 822:Middlewares/ST/STM32_USB_Host_Library/Class/AUDIO/Src/usbh_audio.c ****       alt_setting = *((uint8_t *)pdesc + 3);
 823:Middlewares/ST/STM32_USB_Host_Library/Class/AUDIO/Src/usbh_audio.c ****       itf_index = USBH_FindInterfaceIndex (phost, itf_number, alt_setting);     
 824:Middlewares/ST/STM32_USB_Host_Library/Class/AUDIO/Src/usbh_audio.c ****       break;
 825:Middlewares/ST/STM32_USB_Host_Library/Class/AUDIO/Src/usbh_audio.c ****       
 826:Middlewares/ST/STM32_USB_Host_Library/Class/AUDIO/Src/usbh_audio.c ****     case USB_DESC_TYPE_CS_INTERFACE:
 827:Middlewares/ST/STM32_USB_Host_Library/Class/AUDIO/Src/usbh_audio.c ****       if(itf_number <= phost->device.CfgDesc.bNumInterfaces)
 828:Middlewares/ST/STM32_USB_Host_Library/Class/AUDIO/Src/usbh_audio.c ****       {
 829:Middlewares/ST/STM32_USB_Host_Library/Class/AUDIO/Src/usbh_audio.c ****         
 830:Middlewares/ST/STM32_USB_Host_Library/Class/AUDIO/Src/usbh_audio.c ****         ParseCSDescriptors(&AUDIO_Handle->class_desc,
 831:Middlewares/ST/STM32_USB_Host_Library/Class/AUDIO/Src/usbh_audio.c ****                            phost->device.CfgDesc.Itf_Desc[itf_index].bInterfaceSubClass, 
 832:Middlewares/ST/STM32_USB_Host_Library/Class/AUDIO/Src/usbh_audio.c ****                            (uint8_t *)pdesc);
 833:Middlewares/ST/STM32_USB_Host_Library/Class/AUDIO/Src/usbh_audio.c ****       }
 834:Middlewares/ST/STM32_USB_Host_Library/Class/AUDIO/Src/usbh_audio.c ****       break;
 835:Middlewares/ST/STM32_USB_Host_Library/Class/AUDIO/Src/usbh_audio.c ****       
 836:Middlewares/ST/STM32_USB_Host_Library/Class/AUDIO/Src/usbh_audio.c ****     default:
 837:Middlewares/ST/STM32_USB_Host_Library/Class/AUDIO/Src/usbh_audio.c ****       break; 
 838:Middlewares/ST/STM32_USB_Host_Library/Class/AUDIO/Src/usbh_audio.c ****     }
 839:Middlewares/ST/STM32_USB_Host_Library/Class/AUDIO/Src/usbh_audio.c ****   }
 840:Middlewares/ST/STM32_USB_Host_Library/Class/AUDIO/Src/usbh_audio.c ****   return USBH_OK;
 841:Middlewares/ST/STM32_USB_Host_Library/Class/AUDIO/Src/usbh_audio.c **** }
 842:Middlewares/ST/STM32_USB_Host_Library/Class/AUDIO/Src/usbh_audio.c **** 
 843:Middlewares/ST/STM32_USB_Host_Library/Class/AUDIO/Src/usbh_audio.c **** /**
 844:Middlewares/ST/STM32_USB_Host_Library/Class/AUDIO/Src/usbh_audio.c ****   * @brief  Parse AC interfaces
 845:Middlewares/ST/STM32_USB_Host_Library/Class/AUDIO/Src/usbh_audio.c ****   * @param  phost: Host handle
 846:Middlewares/ST/STM32_USB_Host_Library/Class/AUDIO/Src/usbh_audio.c ****   * @retval USBH Status
 847:Middlewares/ST/STM32_USB_Host_Library/Class/AUDIO/Src/usbh_audio.c ****   */
 848:Middlewares/ST/STM32_USB_Host_Library/Class/AUDIO/Src/usbh_audio.c **** static USBH_StatusTypeDef ParseCSDescriptors(AUDIO_ClassSpecificDescTypedef *class_desc, 
 849:Middlewares/ST/STM32_USB_Host_Library/Class/AUDIO/Src/usbh_audio.c ****                                       uint8_t ac_subclass, 
 850:Middlewares/ST/STM32_USB_Host_Library/Class/AUDIO/Src/usbh_audio.c ****                                       uint8_t *pdesc)
 851:Middlewares/ST/STM32_USB_Host_Library/Class/AUDIO/Src/usbh_audio.c **** {
 275              		.loc 1 851 0
 276              		.cfi_startproc
 277              		@ args = 0, pretend = 0, frame = 0
 278              		@ frame_needed = 0, uses_anonymous_args = 0
 279              		@ link register save eliminated.
 280              	.LVL24:
 852:Middlewares/ST/STM32_USB_Host_Library/Class/AUDIO/Src/usbh_audio.c ****   if(ac_subclass == USB_SUBCLASS_AUDIOCONTROL)
 281              		.loc 1 852 0
 282 0000 0129     		cmp	r1, #1
 283 0002 3BD1     		bne	.L17
 853:Middlewares/ST/STM32_USB_Host_Library/Class/AUDIO/Src/usbh_audio.c ****   {
 854:Middlewares/ST/STM32_USB_Host_Library/Class/AUDIO/Src/usbh_audio.c ****     switch(pdesc[2])
ARM GAS  /tmp/cc7hx4Eu.s 			page 21


 284              		.loc 1 854 0
 285 0004 9378     		ldrb	r3, [r2, #2]	@ zero_extendqisi2
 286 0006 013B     		subs	r3, r3, #1
 287 0008 052B     		cmp	r3, #5
 288 000a 4FD8     		bhi	.L18
 289 000c DFE803F0 		tbb	[pc, r3]
 290              	.LVL25:
 291              	.L20:
 292 0010 03       		.byte	(.L19-.L20)/2
 293 0011 05       		.byte	(.L21-.L20)/2
 294 0012 0E       		.byte	(.L22-.L20)/2
 295 0013 2C       		.byte	(.L23-.L20)/2
 296 0014 22       		.byte	(.L24-.L20)/2
 297 0015 18       		.byte	(.L25-.L20)/2
 298              		.p2align 1
 299              	.L19:
 855:Middlewares/ST/STM32_USB_Host_Library/Class/AUDIO/Src/usbh_audio.c ****     {
 856:Middlewares/ST/STM32_USB_Host_Library/Class/AUDIO/Src/usbh_audio.c ****     case UAC_HEADER: 
 857:Middlewares/ST/STM32_USB_Host_Library/Class/AUDIO/Src/usbh_audio.c ****       class_desc->cs_desc.HeaderDesc = (AUDIO_HeaderDescTypeDef *)pdesc;    
 300              		.loc 1 857 0
 301 0016 0260     		str	r2, [r0]
 858:Middlewares/ST/STM32_USB_Host_Library/Class/AUDIO/Src/usbh_audio.c ****       break;
 302              		.loc 1 858 0
 303 0018 48E0     		b	.L18
 304              	.L21:
 859:Middlewares/ST/STM32_USB_Host_Library/Class/AUDIO/Src/usbh_audio.c ****       
 860:Middlewares/ST/STM32_USB_Host_Library/Class/AUDIO/Src/usbh_audio.c ****     case UAC_INPUT_TERMINAL:
 861:Middlewares/ST/STM32_USB_Host_Library/Class/AUDIO/Src/usbh_audio.c ****       class_desc->cs_desc.InputTerminalDesc[class_desc->InputTerminalNum++] = (AUDIO_ITDescTypeDef*
 305              		.loc 1 861 0
 306 001a B0F87E30 		ldrh	r3, [r0, #126]
 307 001e 591C     		adds	r1, r3, #1
 308 0020 A0F87E10 		strh	r1, [r0, #126]	@ movhi
 309 0024 00EB8300 		add	r0, r0, r3, lsl #2
 310              	.LVL26:
 311 0028 4260     		str	r2, [r0, #4]
 862:Middlewares/ST/STM32_USB_Host_Library/Class/AUDIO/Src/usbh_audio.c ****       break;
 312              		.loc 1 862 0
 313 002a 3FE0     		b	.L18
 314              	.LVL27:
 315              	.L22:
 863:Middlewares/ST/STM32_USB_Host_Library/Class/AUDIO/Src/usbh_audio.c ****       
 864:Middlewares/ST/STM32_USB_Host_Library/Class/AUDIO/Src/usbh_audio.c ****     case UAC_OUTPUT_TERMINAL:
 865:Middlewares/ST/STM32_USB_Host_Library/Class/AUDIO/Src/usbh_audio.c ****       class_desc->cs_desc.OutputTerminalDesc[class_desc->OutputTerminalNum++] = (AUDIO_OTDescTypeDe
 316              		.loc 1 865 0
 317 002c B0F88030 		ldrh	r3, [r0, #128]
 318 0030 591C     		adds	r1, r3, #1
 319 0032 A0F88010 		strh	r1, [r0, #128]	@ movhi
 320 0036 0433     		adds	r3, r3, #4
 321 0038 00EB8300 		add	r0, r0, r3, lsl #2
 322              	.LVL28:
 323 003c 4260     		str	r2, [r0, #4]
 866:Middlewares/ST/STM32_USB_Host_Library/Class/AUDIO/Src/usbh_audio.c ****       break;
 324              		.loc 1 866 0
 325 003e 35E0     		b	.L18
 326              	.LVL29:
 327              	.L25:
 867:Middlewares/ST/STM32_USB_Host_Library/Class/AUDIO/Src/usbh_audio.c **** 
ARM GAS  /tmp/cc7hx4Eu.s 			page 22


 868:Middlewares/ST/STM32_USB_Host_Library/Class/AUDIO/Src/usbh_audio.c ****     case UAC_FEATURE_UNIT:
 869:Middlewares/ST/STM32_USB_Host_Library/Class/AUDIO/Src/usbh_audio.c ****       class_desc->cs_desc.FeatureUnitDesc[class_desc->FeatureUnitNum++] = (AUDIO_FeatureDescTypeDef
 328              		.loc 1 869 0
 329 0040 B0F88230 		ldrh	r3, [r0, #130]
 330 0044 591C     		adds	r1, r3, #1
 331 0046 A0F88210 		strh	r1, [r0, #130]	@ movhi
 332 004a 0833     		adds	r3, r3, #8
 333 004c 00EB8300 		add	r0, r0, r3, lsl #2
 334              	.LVL30:
 335 0050 4260     		str	r2, [r0, #4]
 870:Middlewares/ST/STM32_USB_Host_Library/Class/AUDIO/Src/usbh_audio.c ****       break;
 336              		.loc 1 870 0
 337 0052 2BE0     		b	.L18
 338              	.LVL31:
 339              	.L24:
 871:Middlewares/ST/STM32_USB_Host_Library/Class/AUDIO/Src/usbh_audio.c ****       
 872:Middlewares/ST/STM32_USB_Host_Library/Class/AUDIO/Src/usbh_audio.c ****     case UAC_SELECTOR_UNIT:
 873:Middlewares/ST/STM32_USB_Host_Library/Class/AUDIO/Src/usbh_audio.c ****       class_desc->cs_desc.SelectorUnitDesc[class_desc->SelectorUnitNum++] = (AUDIO_SelectorDescType
 340              		.loc 1 873 0
 341 0054 B0F88430 		ldrh	r3, [r0, #132]
 342 0058 591C     		adds	r1, r3, #1
 343 005a A0F88410 		strh	r1, [r0, #132]	@ movhi
 344 005e 1033     		adds	r3, r3, #16
 345 0060 00EB8300 		add	r0, r0, r3, lsl #2
 346              	.LVL32:
 347 0064 4260     		str	r2, [r0, #4]
 874:Middlewares/ST/STM32_USB_Host_Library/Class/AUDIO/Src/usbh_audio.c ****       break;
 348              		.loc 1 874 0
 349 0066 21E0     		b	.L18
 350              	.LVL33:
 351              	.L23:
 875:Middlewares/ST/STM32_USB_Host_Library/Class/AUDIO/Src/usbh_audio.c **** 
 876:Middlewares/ST/STM32_USB_Host_Library/Class/AUDIO/Src/usbh_audio.c ****     case UAC_MIXER_UNIT:
 877:Middlewares/ST/STM32_USB_Host_Library/Class/AUDIO/Src/usbh_audio.c ****       class_desc->cs_desc.MixerUnitDesc[class_desc->MixerUnitNum++] = (AUDIO_MixerDescTypeDef*) pde
 352              		.loc 1 877 0
 353 0068 B0F88630 		ldrh	r3, [r0, #134]
 354 006c 591C     		adds	r1, r3, #1
 355 006e A0F88610 		strh	r1, [r0, #134]	@ movhi
 356 0072 0C33     		adds	r3, r3, #12
 357 0074 00EB8300 		add	r0, r0, r3, lsl #2
 358              	.LVL34:
 359 0078 4260     		str	r2, [r0, #4]
 878:Middlewares/ST/STM32_USB_Host_Library/Class/AUDIO/Src/usbh_audio.c ****       break;      
 360              		.loc 1 878 0
 361 007a 17E0     		b	.L18
 362              	.LVL35:
 363              	.L17:
 879:Middlewares/ST/STM32_USB_Host_Library/Class/AUDIO/Src/usbh_audio.c **** 
 880:Middlewares/ST/STM32_USB_Host_Library/Class/AUDIO/Src/usbh_audio.c ****     default: 
 881:Middlewares/ST/STM32_USB_Host_Library/Class/AUDIO/Src/usbh_audio.c ****       break;
 882:Middlewares/ST/STM32_USB_Host_Library/Class/AUDIO/Src/usbh_audio.c ****     }
 883:Middlewares/ST/STM32_USB_Host_Library/Class/AUDIO/Src/usbh_audio.c ****   }
 884:Middlewares/ST/STM32_USB_Host_Library/Class/AUDIO/Src/usbh_audio.c ****   else if(ac_subclass == USB_SUBCLASS_AUDIOSTREAMING)
 364              		.loc 1 884 0
 365 007c 0229     		cmp	r1, #2
 366 007e 15D1     		bne	.L18
 885:Middlewares/ST/STM32_USB_Host_Library/Class/AUDIO/Src/usbh_audio.c ****   {
ARM GAS  /tmp/cc7hx4Eu.s 			page 23


 886:Middlewares/ST/STM32_USB_Host_Library/Class/AUDIO/Src/usbh_audio.c ****     switch(pdesc[2])
 367              		.loc 1 886 0
 368 0080 9378     		ldrb	r3, [r2, #2]	@ zero_extendqisi2
 369 0082 012B     		cmp	r3, #1
 370 0084 02D0     		beq	.L26
 371 0086 022B     		cmp	r3, #2
 372 0088 07D0     		beq	.L27
 373 008a 0FE0     		b	.L18
 374              	.L26:
 887:Middlewares/ST/STM32_USB_Host_Library/Class/AUDIO/Src/usbh_audio.c ****     {
 888:Middlewares/ST/STM32_USB_Host_Library/Class/AUDIO/Src/usbh_audio.c ****     case UAC_AS_GENERAL:
 889:Middlewares/ST/STM32_USB_Host_Library/Class/AUDIO/Src/usbh_audio.c ****       class_desc->as_desc[class_desc->ASNum].GeneralDesc = (AUDIO_ASGeneralDescTypeDef*) pdesc; 
 375              		.loc 1 889 0
 376 008c B0F87C30 		ldrh	r3, [r0, #124]
 377 0090 0A33     		adds	r3, r3, #10
 378 0092 00EBC300 		add	r0, r0, r3, lsl #3
 379              	.LVL36:
 380 0096 4260     		str	r2, [r0, #4]
 890:Middlewares/ST/STM32_USB_Host_Library/Class/AUDIO/Src/usbh_audio.c ****       break;
 381              		.loc 1 890 0
 382 0098 08E0     		b	.L18
 383              	.LVL37:
 384              	.L27:
 891:Middlewares/ST/STM32_USB_Host_Library/Class/AUDIO/Src/usbh_audio.c ****     case UAC_FORMAT_TYPE:      
 892:Middlewares/ST/STM32_USB_Host_Library/Class/AUDIO/Src/usbh_audio.c ****       class_desc->as_desc[class_desc->ASNum++].FormatTypeDesc = (AUDIO_ASFormatTypeDescTypeDef*) pd
 385              		.loc 1 892 0
 386 009a B0F87C30 		ldrh	r3, [r0, #124]
 387 009e 591C     		adds	r1, r3, #1
 388              	.LVL38:
 389 00a0 A0F87C10 		strh	r1, [r0, #124]	@ movhi
 390 00a4 0A33     		adds	r3, r3, #10
 391 00a6 00EBC300 		add	r0, r0, r3, lsl #3
 392              	.LVL39:
 393 00aa 8260     		str	r2, [r0, #8]
 394              	.L18:
 893:Middlewares/ST/STM32_USB_Host_Library/Class/AUDIO/Src/usbh_audio.c ****       break;
 894:Middlewares/ST/STM32_USB_Host_Library/Class/AUDIO/Src/usbh_audio.c ****     default:
 895:Middlewares/ST/STM32_USB_Host_Library/Class/AUDIO/Src/usbh_audio.c ****       break;
 896:Middlewares/ST/STM32_USB_Host_Library/Class/AUDIO/Src/usbh_audio.c ****     }
 897:Middlewares/ST/STM32_USB_Host_Library/Class/AUDIO/Src/usbh_audio.c ****   }
 898:Middlewares/ST/STM32_USB_Host_Library/Class/AUDIO/Src/usbh_audio.c ****  
 899:Middlewares/ST/STM32_USB_Host_Library/Class/AUDIO/Src/usbh_audio.c ****   return USBH_OK;
 900:Middlewares/ST/STM32_USB_Host_Library/Class/AUDIO/Src/usbh_audio.c **** }
 395              		.loc 1 900 0
 396 00ac 0020     		movs	r0, #0
 397 00ae 7047     		bx	lr
 398              		.cfi_endproc
 399              	.LFE135:
 401              		.section	.text.USBH_AUDIO_FindLinkedUnit,"ax",%progbits
 402              		.align	2
 403              		.thumb
 404              		.thumb_func
 406              	USBH_AUDIO_FindLinkedUnit:
 407              	.LFB136:
 901:Middlewares/ST/STM32_USB_Host_Library/Class/AUDIO/Src/usbh_audio.c **** 
 902:Middlewares/ST/STM32_USB_Host_Library/Class/AUDIO/Src/usbh_audio.c **** 
 903:Middlewares/ST/STM32_USB_Host_Library/Class/AUDIO/Src/usbh_audio.c **** /**
ARM GAS  /tmp/cc7hx4Eu.s 			page 24


 904:Middlewares/ST/STM32_USB_Host_Library/Class/AUDIO/Src/usbh_audio.c ****   * @brief  Link a Unit to next associated one
 905:Middlewares/ST/STM32_USB_Host_Library/Class/AUDIO/Src/usbh_audio.c ****   * @param  phost: Host handle
 906:Middlewares/ST/STM32_USB_Host_Library/Class/AUDIO/Src/usbh_audio.c ****   * @param  UnitID: Unit identifer
 907:Middlewares/ST/STM32_USB_Host_Library/Class/AUDIO/Src/usbh_audio.c ****   * @retval UnitID, Index and Type of the associated Unit 
 908:Middlewares/ST/STM32_USB_Host_Library/Class/AUDIO/Src/usbh_audio.c ****   */
 909:Middlewares/ST/STM32_USB_Host_Library/Class/AUDIO/Src/usbh_audio.c **** static int32_t USBH_AUDIO_FindLinkedUnit(USBH_HandleTypeDef *phost, uint8_t UnitID)
 910:Middlewares/ST/STM32_USB_Host_Library/Class/AUDIO/Src/usbh_audio.c **** {
 408              		.loc 1 910 0
 409              		.cfi_startproc
 410              		@ args = 0, pretend = 0, frame = 0
 411              		@ frame_needed = 0, uses_anonymous_args = 0
 412              		@ link register save eliminated.
 413              	.LVL40:
 414 0000 30B4     		push	{r4, r5}
 415              	.LCFI2:
 416              		.cfi_def_cfa_offset 8
 417              		.cfi_offset 4, -8
 418              		.cfi_offset 5, -4
 911:Middlewares/ST/STM32_USB_Host_Library/Class/AUDIO/Src/usbh_audio.c ****   uint8_t Index;  
 912:Middlewares/ST/STM32_USB_Host_Library/Class/AUDIO/Src/usbh_audio.c ****   AUDIO_HandleTypeDef *AUDIO_Handle;
 913:Middlewares/ST/STM32_USB_Host_Library/Class/AUDIO/Src/usbh_audio.c ****   
 914:Middlewares/ST/STM32_USB_Host_Library/Class/AUDIO/Src/usbh_audio.c ****   AUDIO_Handle =  (AUDIO_HandleTypeDef *) phost->pActiveClass->pData;    
 419              		.loc 1 914 0
 420 0002 D0F84435 		ldr	r3, [r0, #1348]
 421 0006 DC69     		ldr	r4, [r3, #28]
 422              	.LVL41:
 915:Middlewares/ST/STM32_USB_Host_Library/Class/AUDIO/Src/usbh_audio.c ****   
 916:Middlewares/ST/STM32_USB_Host_Library/Class/AUDIO/Src/usbh_audio.c ****   /* Find Feature Unit */
 917:Middlewares/ST/STM32_USB_Host_Library/Class/AUDIO/Src/usbh_audio.c ****   for(Index = 0; Index < AUDIO_Handle->class_desc.FeatureUnitNum; Index ++)
 423              		.loc 1 917 0
 424 0008 0023     		movs	r3, #0
 425 000a 10E0     		b	.L29
 426              	.LVL42:
 427              	.L32:
 918:Middlewares/ST/STM32_USB_Host_Library/Class/AUDIO/Src/usbh_audio.c ****   {
 919:Middlewares/ST/STM32_USB_Host_Library/Class/AUDIO/Src/usbh_audio.c ****     if(AUDIO_Handle->class_desc.cs_desc.FeatureUnitDesc[Index]->bSourceID == UnitID)
 428              		.loc 1 919 0
 429 000c 1846     		mov	r0, r3
 430 000e 03F12202 		add	r2, r3, #34
 431 0012 04EB8202 		add	r2, r4, r2, lsl #2
 432 0016 9268     		ldr	r2, [r2, #8]
 433 0018 1579     		ldrb	r5, [r2, #4]	@ zero_extendqisi2
 434 001a 8D42     		cmp	r5, r1
 435 001c 05D1     		bne	.L30
 920:Middlewares/ST/STM32_USB_Host_Library/Class/AUDIO/Src/usbh_audio.c ****     {
 921:Middlewares/ST/STM32_USB_Host_Library/Class/AUDIO/Src/usbh_audio.c ****       UnitID = AUDIO_Handle->class_desc.cs_desc.FeatureUnitDesc[Index]->bUnitID;
 436              		.loc 1 921 0
 437 001e D378     		ldrb	r3, [r2, #3]	@ zero_extendqisi2
 438              	.LVL43:
 922:Middlewares/ST/STM32_USB_Host_Library/Class/AUDIO/Src/usbh_audio.c ****       
 923:Middlewares/ST/STM32_USB_Host_Library/Class/AUDIO/Src/usbh_audio.c ****       return ((UnitID << 16) | (UAC_FEATURE_UNIT << 8) | Index);
 439              		.loc 1 923 0
 440 0020 1B04     		lsls	r3, r3, #16
 441              	.LVL44:
 442 0022 43F4C063 		orr	r3, r3, #1536
 443 0026 1843     		orrs	r0, r0, r3
 444 0028 53E0     		b	.L31
ARM GAS  /tmp/cc7hx4Eu.s 			page 25


 445              	.LVL45:
 446              	.L30:
 917:Middlewares/ST/STM32_USB_Host_Library/Class/AUDIO/Src/usbh_audio.c ****   {
 447              		.loc 1 917 0 discriminator 2
 448 002a 0133     		adds	r3, r3, #1
 449              	.LVL46:
 450 002c DBB2     		uxtb	r3, r3
 451              	.LVL47:
 452              	.L29:
 917:Middlewares/ST/STM32_USB_Host_Library/Class/AUDIO/Src/usbh_audio.c ****   {
 453              		.loc 1 917 0 is_stmt 0 discriminator 1
 454 002e 9AB2     		uxth	r2, r3
 455 0030 B4F8EE00 		ldrh	r0, [r4, #238]
 456 0034 8242     		cmp	r2, r0
 457 0036 E9D3     		bcc	.L32
 458 0038 0023     		movs	r3, #0
 459              	.LVL48:
 460 003a 13E0     		b	.L33
 461              	.LVL49:
 462              	.L36:
 924:Middlewares/ST/STM32_USB_Host_Library/Class/AUDIO/Src/usbh_audio.c ****     }
 925:Middlewares/ST/STM32_USB_Host_Library/Class/AUDIO/Src/usbh_audio.c ****   }
 926:Middlewares/ST/STM32_USB_Host_Library/Class/AUDIO/Src/usbh_audio.c ****   
 927:Middlewares/ST/STM32_USB_Host_Library/Class/AUDIO/Src/usbh_audio.c ****   /* Find Mixer Unit */
 928:Middlewares/ST/STM32_USB_Host_Library/Class/AUDIO/Src/usbh_audio.c ****   for(Index = 0; Index < AUDIO_Handle->class_desc.MixerUnitNum; Index ++)
 929:Middlewares/ST/STM32_USB_Host_Library/Class/AUDIO/Src/usbh_audio.c ****   {
 930:Middlewares/ST/STM32_USB_Host_Library/Class/AUDIO/Src/usbh_audio.c ****     if((AUDIO_Handle->class_desc.cs_desc.MixerUnitDesc[Index]->bSourceID0 == UnitID)||
 463              		.loc 1 930 0 is_stmt 1
 464 003c 1846     		mov	r0, r3
 465 003e 03F12602 		add	r2, r3, #38
 466 0042 04EB8202 		add	r2, r4, r2, lsl #2
 467 0046 9268     		ldr	r2, [r2, #8]
 468 0048 5579     		ldrb	r5, [r2, #5]	@ zero_extendqisi2
 469 004a A942     		cmp	r1, r5
 470 004c 02D0     		beq	.L34
 931:Middlewares/ST/STM32_USB_Host_Library/Class/AUDIO/Src/usbh_audio.c ****        (AUDIO_Handle->class_desc.cs_desc.MixerUnitDesc[Index]->bSourceID1 == UnitID))
 471              		.loc 1 931 0 discriminator 1
 472 004e 9579     		ldrb	r5, [r2, #6]	@ zero_extendqisi2
 930:Middlewares/ST/STM32_USB_Host_Library/Class/AUDIO/Src/usbh_audio.c ****        (AUDIO_Handle->class_desc.cs_desc.MixerUnitDesc[Index]->bSourceID1 == UnitID))
 473              		.loc 1 930 0 discriminator 1
 474 0050 A942     		cmp	r1, r5
 475 0052 05D1     		bne	.L35
 476              	.L34:
 932:Middlewares/ST/STM32_USB_Host_Library/Class/AUDIO/Src/usbh_audio.c ****     {
 933:Middlewares/ST/STM32_USB_Host_Library/Class/AUDIO/Src/usbh_audio.c ****       UnitID = AUDIO_Handle->class_desc.cs_desc.MixerUnitDesc[Index]->bUnitID;
 477              		.loc 1 933 0
 478 0054 D378     		ldrb	r3, [r2, #3]	@ zero_extendqisi2
 479              	.LVL50:
 934:Middlewares/ST/STM32_USB_Host_Library/Class/AUDIO/Src/usbh_audio.c ****       
 935:Middlewares/ST/STM32_USB_Host_Library/Class/AUDIO/Src/usbh_audio.c ****       return ((UnitID << 16) | (UAC_MIXER_UNIT << 8) | Index);
 480              		.loc 1 935 0
 481 0056 1B04     		lsls	r3, r3, #16
 482              	.LVL51:
 483 0058 43F48063 		orr	r3, r3, #1024
 484 005c 1843     		orrs	r0, r0, r3
 485 005e 38E0     		b	.L31
 486              	.LVL52:
ARM GAS  /tmp/cc7hx4Eu.s 			page 26


 487              	.L35:
 928:Middlewares/ST/STM32_USB_Host_Library/Class/AUDIO/Src/usbh_audio.c ****   {
 488              		.loc 1 928 0 discriminator 2
 489 0060 0133     		adds	r3, r3, #1
 490              	.LVL53:
 491 0062 DBB2     		uxtb	r3, r3
 492              	.LVL54:
 493              	.L33:
 928:Middlewares/ST/STM32_USB_Host_Library/Class/AUDIO/Src/usbh_audio.c ****   {
 494              		.loc 1 928 0 is_stmt 0 discriminator 1
 495 0064 9AB2     		uxth	r2, r3
 496 0066 B4F8F200 		ldrh	r0, [r4, #242]
 497 006a 8242     		cmp	r2, r0
 498 006c E6D3     		bcc	.L36
 499 006e 0023     		movs	r3, #0
 500              	.LVL55:
 501 0070 10E0     		b	.L37
 502              	.LVL56:
 503              	.L39:
 936:Middlewares/ST/STM32_USB_Host_Library/Class/AUDIO/Src/usbh_audio.c ****     }
 937:Middlewares/ST/STM32_USB_Host_Library/Class/AUDIO/Src/usbh_audio.c ****   }
 938:Middlewares/ST/STM32_USB_Host_Library/Class/AUDIO/Src/usbh_audio.c ****   
 939:Middlewares/ST/STM32_USB_Host_Library/Class/AUDIO/Src/usbh_audio.c ****   
 940:Middlewares/ST/STM32_USB_Host_Library/Class/AUDIO/Src/usbh_audio.c ****   /* Find Selector Unit */
 941:Middlewares/ST/STM32_USB_Host_Library/Class/AUDIO/Src/usbh_audio.c ****   for(Index = 0; Index < AUDIO_Handle->class_desc.SelectorUnitNum; Index ++)
 942:Middlewares/ST/STM32_USB_Host_Library/Class/AUDIO/Src/usbh_audio.c ****   {
 943:Middlewares/ST/STM32_USB_Host_Library/Class/AUDIO/Src/usbh_audio.c ****     if(AUDIO_Handle->class_desc.cs_desc.SelectorUnitDesc[Index]->bSourceID0 == UnitID)
 504              		.loc 1 943 0 is_stmt 1
 505 0072 1846     		mov	r0, r3
 506 0074 03F12A02 		add	r2, r3, #42
 507 0078 04EB8202 		add	r2, r4, r2, lsl #2
 508 007c 9268     		ldr	r2, [r2, #8]
 509 007e 5579     		ldrb	r5, [r2, #5]	@ zero_extendqisi2
 510 0080 A942     		cmp	r1, r5
 511 0082 05D1     		bne	.L38
 944:Middlewares/ST/STM32_USB_Host_Library/Class/AUDIO/Src/usbh_audio.c ****     {
 945:Middlewares/ST/STM32_USB_Host_Library/Class/AUDIO/Src/usbh_audio.c ****       UnitID = AUDIO_Handle->class_desc.cs_desc.SelectorUnitDesc[Index]->bUnitID;
 512              		.loc 1 945 0
 513 0084 D378     		ldrb	r3, [r2, #3]	@ zero_extendqisi2
 514              	.LVL57:
 946:Middlewares/ST/STM32_USB_Host_Library/Class/AUDIO/Src/usbh_audio.c ****       
 947:Middlewares/ST/STM32_USB_Host_Library/Class/AUDIO/Src/usbh_audio.c ****       return ((UnitID << 16) | (UAC_SELECTOR_UNIT << 8) | Index); 
 515              		.loc 1 947 0
 516 0086 1B04     		lsls	r3, r3, #16
 517              	.LVL58:
 518 0088 43F4A063 		orr	r3, r3, #1280
 519 008c 1843     		orrs	r0, r0, r3
 520 008e 20E0     		b	.L31
 521              	.LVL59:
 522              	.L38:
 941:Middlewares/ST/STM32_USB_Host_Library/Class/AUDIO/Src/usbh_audio.c ****   {
 523              		.loc 1 941 0 discriminator 2
 524 0090 0133     		adds	r3, r3, #1
 525              	.LVL60:
 526 0092 DBB2     		uxtb	r3, r3
 527              	.LVL61:
 528              	.L37:
ARM GAS  /tmp/cc7hx4Eu.s 			page 27


 941:Middlewares/ST/STM32_USB_Host_Library/Class/AUDIO/Src/usbh_audio.c ****   {
 529              		.loc 1 941 0 is_stmt 0 discriminator 1
 530 0094 9AB2     		uxth	r2, r3
 531 0096 B4F8F000 		ldrh	r0, [r4, #240]
 532 009a 8242     		cmp	r2, r0
 533 009c E9D3     		bcc	.L39
 534 009e 0023     		movs	r3, #0
 535              	.LVL62:
 536 00a0 10E0     		b	.L40
 537              	.LVL63:
 538              	.L42:
 948:Middlewares/ST/STM32_USB_Host_Library/Class/AUDIO/Src/usbh_audio.c ****     }
 949:Middlewares/ST/STM32_USB_Host_Library/Class/AUDIO/Src/usbh_audio.c ****   }  
 950:Middlewares/ST/STM32_USB_Host_Library/Class/AUDIO/Src/usbh_audio.c ****   
 951:Middlewares/ST/STM32_USB_Host_Library/Class/AUDIO/Src/usbh_audio.c ****   
 952:Middlewares/ST/STM32_USB_Host_Library/Class/AUDIO/Src/usbh_audio.c ****   /* Find OT Unit */  
 953:Middlewares/ST/STM32_USB_Host_Library/Class/AUDIO/Src/usbh_audio.c ****   for(Index = 0; Index < AUDIO_Handle->class_desc.OutputTerminalNum; Index ++)
 954:Middlewares/ST/STM32_USB_Host_Library/Class/AUDIO/Src/usbh_audio.c ****   {
 955:Middlewares/ST/STM32_USB_Host_Library/Class/AUDIO/Src/usbh_audio.c ****     if(AUDIO_Handle->class_desc.cs_desc.OutputTerminalDesc[Index]->bSourceID == UnitID)
 539              		.loc 1 955 0 is_stmt 1
 540 00a2 1846     		mov	r0, r3
 541 00a4 03F11E02 		add	r2, r3, #30
 542 00a8 04EB8202 		add	r2, r4, r2, lsl #2
 543 00ac 9268     		ldr	r2, [r2, #8]
 544 00ae D579     		ldrb	r5, [r2, #7]	@ zero_extendqisi2
 545 00b0 A942     		cmp	r1, r5
 546 00b2 05D1     		bne	.L41
 956:Middlewares/ST/STM32_USB_Host_Library/Class/AUDIO/Src/usbh_audio.c ****     {
 957:Middlewares/ST/STM32_USB_Host_Library/Class/AUDIO/Src/usbh_audio.c ****       UnitID = AUDIO_Handle->class_desc.cs_desc.OutputTerminalDesc[Index]->bTerminalID;
 547              		.loc 1 957 0
 548 00b4 D378     		ldrb	r3, [r2, #3]	@ zero_extendqisi2
 549              	.LVL64:
 958:Middlewares/ST/STM32_USB_Host_Library/Class/AUDIO/Src/usbh_audio.c ****       
 959:Middlewares/ST/STM32_USB_Host_Library/Class/AUDIO/Src/usbh_audio.c ****       return ((UnitID << 16) | (UAC_OUTPUT_TERMINAL << 8) | Index);
 550              		.loc 1 959 0
 551 00b6 1B04     		lsls	r3, r3, #16
 552              	.LVL65:
 553 00b8 43F44073 		orr	r3, r3, #768
 554 00bc 1843     		orrs	r0, r0, r3
 555 00be 08E0     		b	.L31
 556              	.LVL66:
 557              	.L41:
 953:Middlewares/ST/STM32_USB_Host_Library/Class/AUDIO/Src/usbh_audio.c ****   {
 558              		.loc 1 953 0 discriminator 2
 559 00c0 0133     		adds	r3, r3, #1
 560              	.LVL67:
 561 00c2 DBB2     		uxtb	r3, r3
 562              	.LVL68:
 563              	.L40:
 953:Middlewares/ST/STM32_USB_Host_Library/Class/AUDIO/Src/usbh_audio.c ****   {
 564              		.loc 1 953 0 is_stmt 0 discriminator 1
 565 00c4 9AB2     		uxth	r2, r3
 566 00c6 B4F8EC00 		ldrh	r0, [r4, #236]
 567 00ca 8242     		cmp	r2, r0
 568 00cc E9D3     		bcc	.L42
 960:Middlewares/ST/STM32_USB_Host_Library/Class/AUDIO/Src/usbh_audio.c ****     }
 961:Middlewares/ST/STM32_USB_Host_Library/Class/AUDIO/Src/usbh_audio.c ****   } 
ARM GAS  /tmp/cc7hx4Eu.s 			page 28


 962:Middlewares/ST/STM32_USB_Host_Library/Class/AUDIO/Src/usbh_audio.c ****   
 963:Middlewares/ST/STM32_USB_Host_Library/Class/AUDIO/Src/usbh_audio.c ****   /* No associated Unit found */
 964:Middlewares/ST/STM32_USB_Host_Library/Class/AUDIO/Src/usbh_audio.c ****   return -1;
 569              		.loc 1 964 0 is_stmt 1
 570 00ce 4FF0FF30 		mov	r0, #-1
 571              	.LVL69:
 572              	.L31:
 965:Middlewares/ST/STM32_USB_Host_Library/Class/AUDIO/Src/usbh_audio.c **** }
 573              		.loc 1 965 0
 574 00d2 30BC     		pop	{r4, r5}
 575              	.LCFI3:
 576              		.cfi_restore 5
 577              		.cfi_restore 4
 578              		.cfi_def_cfa_offset 0
 579              	.LVL70:
 580 00d4 7047     		bx	lr
 581              		.cfi_endproc
 582              	.LFE136:
 584              		.section	.text.USBH_AUDIO_BuildMicrophonePath,"ax",%progbits
 585              		.align	2
 586              		.thumb
 587              		.thumb_func
 589              	USBH_AUDIO_BuildMicrophonePath:
 590              	.LFB137:
 966:Middlewares/ST/STM32_USB_Host_Library/Class/AUDIO/Src/usbh_audio.c **** 
 967:Middlewares/ST/STM32_USB_Host_Library/Class/AUDIO/Src/usbh_audio.c **** /**
 968:Middlewares/ST/STM32_USB_Host_Library/Class/AUDIO/Src/usbh_audio.c ****   * @brief  Build full path for Microphone device
 969:Middlewares/ST/STM32_USB_Host_Library/Class/AUDIO/Src/usbh_audio.c ****   * @param  phost: Host handle
 970:Middlewares/ST/STM32_USB_Host_Library/Class/AUDIO/Src/usbh_audio.c ****   * @retval USBH Status
 971:Middlewares/ST/STM32_USB_Host_Library/Class/AUDIO/Src/usbh_audio.c ****   */
 972:Middlewares/ST/STM32_USB_Host_Library/Class/AUDIO/Src/usbh_audio.c **** USBH_StatusTypeDef USBH_AUDIO_BuildMicrophonePath(USBH_HandleTypeDef *phost)
 973:Middlewares/ST/STM32_USB_Host_Library/Class/AUDIO/Src/usbh_audio.c **** {
 591              		.loc 1 973 0
 592              		.cfi_startproc
 593              		@ args = 0, pretend = 0, frame = 0
 594              		@ frame_needed = 0, uses_anonymous_args = 0
 595              	.LVL71:
 596 0000 70B5     		push	{r4, r5, r6, lr}
 597              	.LCFI4:
 598              		.cfi_def_cfa_offset 16
 599              		.cfi_offset 4, -16
 600              		.cfi_offset 5, -12
 601              		.cfi_offset 6, -8
 602              		.cfi_offset 14, -4
 603 0002 0546     		mov	r5, r0
 604              	.LVL72:
 974:Middlewares/ST/STM32_USB_Host_Library/Class/AUDIO/Src/usbh_audio.c ****   uint8_t UnitID = 0, Type, Index;
 975:Middlewares/ST/STM32_USB_Host_Library/Class/AUDIO/Src/usbh_audio.c ****   uint32_t value;
 976:Middlewares/ST/STM32_USB_Host_Library/Class/AUDIO/Src/usbh_audio.c ****   uint8_t terminalIndex;  
 977:Middlewares/ST/STM32_USB_Host_Library/Class/AUDIO/Src/usbh_audio.c ****   AUDIO_HandleTypeDef *AUDIO_Handle;
 978:Middlewares/ST/STM32_USB_Host_Library/Class/AUDIO/Src/usbh_audio.c ****   
 979:Middlewares/ST/STM32_USB_Host_Library/Class/AUDIO/Src/usbh_audio.c ****   AUDIO_Handle = (AUDIO_HandleTypeDef*) phost->pActiveClass->pData;    
 605              		.loc 1 979 0
 606 0004 D0F84435 		ldr	r3, [r0, #1348]
 607 0008 DC69     		ldr	r4, [r3, #28]
 608              	.LVL73:
 980:Middlewares/ST/STM32_USB_Host_Library/Class/AUDIO/Src/usbh_audio.c ****   
ARM GAS  /tmp/cc7hx4Eu.s 			page 29


 981:Middlewares/ST/STM32_USB_Host_Library/Class/AUDIO/Src/usbh_audio.c ****   /*Find microphone IT*/
 982:Middlewares/ST/STM32_USB_Host_Library/Class/AUDIO/Src/usbh_audio.c ****   for(terminalIndex = 0; terminalIndex < AUDIO_Handle->class_desc.InputTerminalNum; terminalIndex++
 609              		.loc 1 982 0
 610 000a 0023     		movs	r3, #0
 611 000c 13E0     		b	.L45
 612              	.LVL74:
 613              	.L48:
 983:Middlewares/ST/STM32_USB_Host_Library/Class/AUDIO/Src/usbh_audio.c ****   {
 984:Middlewares/ST/STM32_USB_Host_Library/Class/AUDIO/Src/usbh_audio.c ****     if(LE16(AUDIO_Handle->class_desc.cs_desc.InputTerminalDesc[terminalIndex]->wTerminalType) == 0x
 614              		.loc 1 984 0
 615 000e 03F11A02 		add	r2, r3, #26
 616 0012 04EB8202 		add	r2, r4, r2, lsl #2
 617 0016 9068     		ldr	r0, [r2, #8]
 618 0018 0279     		ldrb	r2, [r0, #4]	@ zero_extendqisi2
 619 001a 4179     		ldrb	r1, [r0, #5]	@ zero_extendqisi2
 620 001c 02EB0122 		add	r2, r2, r1, lsl #8
 621 0020 40F20121 		movw	r1, #513
 622 0024 8A42     		cmp	r2, r1
 623 0026 04D1     		bne	.L46
 985:Middlewares/ST/STM32_USB_Host_Library/Class/AUDIO/Src/usbh_audio.c ****     {    
 986:Middlewares/ST/STM32_USB_Host_Library/Class/AUDIO/Src/usbh_audio.c ****       UnitID = AUDIO_Handle->class_desc.cs_desc.InputTerminalDesc[terminalIndex]->bTerminalID;
 624              		.loc 1 986 0
 625 0028 C178     		ldrb	r1, [r0, #3]	@ zero_extendqisi2
 626              	.LVL75:
 987:Middlewares/ST/STM32_USB_Host_Library/Class/AUDIO/Src/usbh_audio.c ****       AUDIO_Handle->microphone.asociated_channels =  AUDIO_Handle->class_desc.cs_desc.InputTerminal
 627              		.loc 1 987 0
 628 002a C379     		ldrb	r3, [r0, #7]	@ zero_extendqisi2
 629              	.LVL76:
 630 002c 84F85131 		strb	r3, [r4, #337]
 988:Middlewares/ST/STM32_USB_Host_Library/Class/AUDIO/Src/usbh_audio.c ****       break;
 631              		.loc 1 988 0
 632 0030 07E0     		b	.L56
 633              	.LVL77:
 634              	.L46:
 982:Middlewares/ST/STM32_USB_Host_Library/Class/AUDIO/Src/usbh_audio.c ****   {
 635              		.loc 1 982 0 discriminator 2
 636 0032 0133     		adds	r3, r3, #1
 637              	.LVL78:
 638 0034 DBB2     		uxtb	r3, r3
 639              	.LVL79:
 640              	.L45:
 982:Middlewares/ST/STM32_USB_Host_Library/Class/AUDIO/Src/usbh_audio.c ****   {
 641              		.loc 1 982 0 is_stmt 0 discriminator 1
 642 0036 9AB2     		uxth	r2, r3
 643 0038 B4F8EA10 		ldrh	r1, [r4, #234]
 644 003c 8A42     		cmp	r2, r1
 645 003e E6D3     		bcc	.L48
 974:Middlewares/ST/STM32_USB_Host_Library/Class/AUDIO/Src/usbh_audio.c ****   uint32_t value;
 646              		.loc 1 974 0 is_stmt 1
 647 0040 0021     		movs	r1, #0
 648              	.LVL80:
 649              	.L56:
 989:Middlewares/ST/STM32_USB_Host_Library/Class/AUDIO/Src/usbh_audio.c ****     }
 990:Middlewares/ST/STM32_USB_Host_Library/Class/AUDIO/Src/usbh_audio.c ****   }
 991:Middlewares/ST/STM32_USB_Host_Library/Class/AUDIO/Src/usbh_audio.c ****   
 992:Middlewares/ST/STM32_USB_Host_Library/Class/AUDIO/Src/usbh_audio.c ****   do
 993:Middlewares/ST/STM32_USB_Host_Library/Class/AUDIO/Src/usbh_audio.c ****   {
ARM GAS  /tmp/cc7hx4Eu.s 			page 30


 994:Middlewares/ST/STM32_USB_Host_Library/Class/AUDIO/Src/usbh_audio.c ****     value =  USBH_AUDIO_FindLinkedUnit(phost, UnitID);
 650              		.loc 1 994 0
 651 0042 2846     		mov	r0, r5
 652 0044 FFF7FEFF 		bl	USBH_AUDIO_FindLinkedUnit
 653              	.LVL81:
 995:Middlewares/ST/STM32_USB_Host_Library/Class/AUDIO/Src/usbh_audio.c ****     Index = value & 0xFF;
 654              		.loc 1 995 0
 655 0048 C6B2     		uxtb	r6, r0
 656              	.LVL82:
 996:Middlewares/ST/STM32_USB_Host_Library/Class/AUDIO/Src/usbh_audio.c ****     Type   = (value >> 8) & 0xFF;
 657              		.loc 1 996 0
 658 004a C0F30723 		ubfx	r3, r0, #8, #8
 659              	.LVL83:
 997:Middlewares/ST/STM32_USB_Host_Library/Class/AUDIO/Src/usbh_audio.c ****     UnitID   = (value >> 16) & 0xFF;
 660              		.loc 1 997 0
 661 004e C0F30741 		ubfx	r1, r0, #16, #8
 662              	.LVL84:
 998:Middlewares/ST/STM32_USB_Host_Library/Class/AUDIO/Src/usbh_audio.c ****     
 999:Middlewares/ST/STM32_USB_Host_Library/Class/AUDIO/Src/usbh_audio.c ****     switch (Type)
 663              		.loc 1 999 0
 664 0052 DA1E     		subs	r2, r3, #3
 665 0054 032A     		cmp	r2, #3
 666 0056 0ED8     		bhi	.L49
 667 0058 DFE802F0 		tbb	[pc, r2]
 668              	.L51:
 669 005c 0B       		.byte	(.L50-.L51)/2
 670 005d 05       		.byte	(.L52-.L51)/2
 671 005e 08       		.byte	(.L53-.L51)/2
 672 005f 02       		.byte	(.L54-.L51)/2
 673              		.p2align 1
 674              	.L54:
1000:Middlewares/ST/STM32_USB_Host_Library/Class/AUDIO/Src/usbh_audio.c ****     {
1001:Middlewares/ST/STM32_USB_Host_Library/Class/AUDIO/Src/usbh_audio.c ****     case UAC_FEATURE_UNIT:
1002:Middlewares/ST/STM32_USB_Host_Library/Class/AUDIO/Src/usbh_audio.c ****       AUDIO_Handle->microphone.asociated_feature = Index;
 675              		.loc 1 1002 0
 676 0060 84F84F61 		strb	r6, [r4, #335]
1003:Middlewares/ST/STM32_USB_Host_Library/Class/AUDIO/Src/usbh_audio.c ****       break;
 677              		.loc 1 1003 0
 678 0064 07E0     		b	.L49
 679              	.L52:
1004:Middlewares/ST/STM32_USB_Host_Library/Class/AUDIO/Src/usbh_audio.c ****       
1005:Middlewares/ST/STM32_USB_Host_Library/Class/AUDIO/Src/usbh_audio.c ****     case UAC_MIXER_UNIT:
1006:Middlewares/ST/STM32_USB_Host_Library/Class/AUDIO/Src/usbh_audio.c ****       AUDIO_Handle->microphone.asociated_mixer = Index;
 680              		.loc 1 1006 0
 681 0066 84F84D61 		strb	r6, [r4, #333]
1007:Middlewares/ST/STM32_USB_Host_Library/Class/AUDIO/Src/usbh_audio.c ****       break;
 682              		.loc 1 1007 0
 683 006a 04E0     		b	.L49
 684              	.L53:
1008:Middlewares/ST/STM32_USB_Host_Library/Class/AUDIO/Src/usbh_audio.c ****       
1009:Middlewares/ST/STM32_USB_Host_Library/Class/AUDIO/Src/usbh_audio.c ****     case UAC_SELECTOR_UNIT:
1010:Middlewares/ST/STM32_USB_Host_Library/Class/AUDIO/Src/usbh_audio.c ****       AUDIO_Handle->microphone.asociated_selector = Index;
 685              		.loc 1 1010 0
 686 006c 84F84E61 		strb	r6, [r4, #334]
1011:Middlewares/ST/STM32_USB_Host_Library/Class/AUDIO/Src/usbh_audio.c ****       break;
 687              		.loc 1 1011 0
 688 0070 01E0     		b	.L49
ARM GAS  /tmp/cc7hx4Eu.s 			page 31


 689              	.L50:
1012:Middlewares/ST/STM32_USB_Host_Library/Class/AUDIO/Src/usbh_audio.c ****       
1013:Middlewares/ST/STM32_USB_Host_Library/Class/AUDIO/Src/usbh_audio.c ****     case UAC_OUTPUT_TERMINAL:
1014:Middlewares/ST/STM32_USB_Host_Library/Class/AUDIO/Src/usbh_audio.c ****       AUDIO_Handle->microphone.asociated_terminal = Index;
 690              		.loc 1 1014 0
 691 0072 84F85061 		strb	r6, [r4, #336]
 692              	.L49:
1015:Middlewares/ST/STM32_USB_Host_Library/Class/AUDIO/Src/usbh_audio.c ****       break;    
1016:Middlewares/ST/STM32_USB_Host_Library/Class/AUDIO/Src/usbh_audio.c ****     }
1017:Middlewares/ST/STM32_USB_Host_Library/Class/AUDIO/Src/usbh_audio.c ****   }
1018:Middlewares/ST/STM32_USB_Host_Library/Class/AUDIO/Src/usbh_audio.c ****   while ((Type != UAC_OUTPUT_TERMINAL) && (value > 0));
 693              		.loc 1 1018 0
 694 0076 032B     		cmp	r3, #3
 695 0078 01D0     		beq	.L55
 696              		.loc 1 1018 0 is_stmt 0 discriminator 1
 697 007a 0028     		cmp	r0, #0
 698 007c E1D1     		bne	.L56
 699              	.L55:
1019:Middlewares/ST/STM32_USB_Host_Library/Class/AUDIO/Src/usbh_audio.c ****   
1020:Middlewares/ST/STM32_USB_Host_Library/Class/AUDIO/Src/usbh_audio.c ****   
1021:Middlewares/ST/STM32_USB_Host_Library/Class/AUDIO/Src/usbh_audio.c ****   
1022:Middlewares/ST/STM32_USB_Host_Library/Class/AUDIO/Src/usbh_audio.c ****   return USBH_OK;
1023:Middlewares/ST/STM32_USB_Host_Library/Class/AUDIO/Src/usbh_audio.c **** }
 700              		.loc 1 1023 0 is_stmt 1
 701 007e 0020     		movs	r0, #0
 702              	.LVL85:
 703 0080 70BD     		pop	{r4, r5, r6, pc}
 704              		.cfi_endproc
 705              	.LFE137:
 707 0082 00BF     		.section	.text.USBH_AUDIO_BuildHeadphonePath,"ax",%progbits
 708              		.align	2
 709              		.thumb
 710              		.thumb_func
 712              	USBH_AUDIO_BuildHeadphonePath:
 713              	.LFB138:
1024:Middlewares/ST/STM32_USB_Host_Library/Class/AUDIO/Src/usbh_audio.c **** 
1025:Middlewares/ST/STM32_USB_Host_Library/Class/AUDIO/Src/usbh_audio.c **** /**
1026:Middlewares/ST/STM32_USB_Host_Library/Class/AUDIO/Src/usbh_audio.c ****   * @brief  Build full path for Headphone device
1027:Middlewares/ST/STM32_USB_Host_Library/Class/AUDIO/Src/usbh_audio.c ****   * @param  phost: Host handle
1028:Middlewares/ST/STM32_USB_Host_Library/Class/AUDIO/Src/usbh_audio.c ****   * @retval USBH Status
1029:Middlewares/ST/STM32_USB_Host_Library/Class/AUDIO/Src/usbh_audio.c ****   */
1030:Middlewares/ST/STM32_USB_Host_Library/Class/AUDIO/Src/usbh_audio.c **** USBH_StatusTypeDef USBH_AUDIO_BuildHeadphonePath(USBH_HandleTypeDef *phost)
1031:Middlewares/ST/STM32_USB_Host_Library/Class/AUDIO/Src/usbh_audio.c **** {
 714              		.loc 1 1031 0
 715              		.cfi_startproc
 716              		@ args = 0, pretend = 0, frame = 0
 717              		@ frame_needed = 0, uses_anonymous_args = 0
 718              	.LVL86:
 719 0000 70B5     		push	{r4, r5, r6, lr}
 720              	.LCFI5:
 721              		.cfi_def_cfa_offset 16
 722              		.cfi_offset 4, -16
 723              		.cfi_offset 5, -12
 724              		.cfi_offset 6, -8
 725              		.cfi_offset 14, -4
 726 0002 0546     		mov	r5, r0
 727              	.LVL87:
ARM GAS  /tmp/cc7hx4Eu.s 			page 32


1032:Middlewares/ST/STM32_USB_Host_Library/Class/AUDIO/Src/usbh_audio.c ****   uint8_t UnitID = 0, Type, Index;
1033:Middlewares/ST/STM32_USB_Host_Library/Class/AUDIO/Src/usbh_audio.c ****   uint32_t value;
1034:Middlewares/ST/STM32_USB_Host_Library/Class/AUDIO/Src/usbh_audio.c ****   uint8_t terminalIndex;  
1035:Middlewares/ST/STM32_USB_Host_Library/Class/AUDIO/Src/usbh_audio.c ****   AUDIO_HandleTypeDef *AUDIO_Handle;
1036:Middlewares/ST/STM32_USB_Host_Library/Class/AUDIO/Src/usbh_audio.c ****   
1037:Middlewares/ST/STM32_USB_Host_Library/Class/AUDIO/Src/usbh_audio.c ****   AUDIO_Handle =  (AUDIO_HandleTypeDef*) phost->pActiveClass->pData;    
 728              		.loc 1 1037 0
 729 0004 D0F84435 		ldr	r3, [r0, #1348]
 730 0008 DC69     		ldr	r4, [r3, #28]
 731              	.LVL88:
1038:Middlewares/ST/STM32_USB_Host_Library/Class/AUDIO/Src/usbh_audio.c ****   
1039:Middlewares/ST/STM32_USB_Host_Library/Class/AUDIO/Src/usbh_audio.c ****   /* Find association between audio streaming and microphone */
1040:Middlewares/ST/STM32_USB_Host_Library/Class/AUDIO/Src/usbh_audio.c ****   for(terminalIndex = 0; terminalIndex < AUDIO_Handle->class_desc.InputTerminalNum; terminalIndex++
 732              		.loc 1 1040 0
 733 000a 0023     		movs	r3, #0
 734 000c 13E0     		b	.L59
 735              	.LVL89:
 736              	.L62:
1041:Middlewares/ST/STM32_USB_Host_Library/Class/AUDIO/Src/usbh_audio.c ****   {
1042:Middlewares/ST/STM32_USB_Host_Library/Class/AUDIO/Src/usbh_audio.c ****     if(LE16(AUDIO_Handle->class_desc.cs_desc.InputTerminalDesc[terminalIndex]->wTerminalType) == 0x
 737              		.loc 1 1042 0
 738 000e 03F11A02 		add	r2, r3, #26
 739 0012 04EB8202 		add	r2, r4, r2, lsl #2
 740 0016 9068     		ldr	r0, [r2, #8]
 741 0018 0279     		ldrb	r2, [r0, #4]	@ zero_extendqisi2
 742 001a 4179     		ldrb	r1, [r0, #5]	@ zero_extendqisi2
 743 001c 02EB0122 		add	r2, r2, r1, lsl #8
 744 0020 40F20111 		movw	r1, #257
 745 0024 8A42     		cmp	r2, r1
 746 0026 04D1     		bne	.L60
1043:Middlewares/ST/STM32_USB_Host_Library/Class/AUDIO/Src/usbh_audio.c ****     {    
1044:Middlewares/ST/STM32_USB_Host_Library/Class/AUDIO/Src/usbh_audio.c ****       UnitID = AUDIO_Handle->class_desc.cs_desc.InputTerminalDesc[terminalIndex]->bTerminalID;
 747              		.loc 1 1044 0
 748 0028 C178     		ldrb	r1, [r0, #3]	@ zero_extendqisi2
 749              	.LVL90:
1045:Middlewares/ST/STM32_USB_Host_Library/Class/AUDIO/Src/usbh_audio.c ****       AUDIO_Handle->headphone.asociated_channels =  AUDIO_Handle->class_desc.cs_desc.InputTerminalD
 750              		.loc 1 1045 0
 751 002a C379     		ldrb	r3, [r0, #7]	@ zero_extendqisi2
 752              	.LVL91:
 753 002c 84F80931 		strb	r3, [r4, #265]
1046:Middlewares/ST/STM32_USB_Host_Library/Class/AUDIO/Src/usbh_audio.c ****       break;
 754              		.loc 1 1046 0
 755 0030 07E0     		b	.L61
 756              	.LVL92:
 757              	.L60:
1040:Middlewares/ST/STM32_USB_Host_Library/Class/AUDIO/Src/usbh_audio.c ****   {
 758              		.loc 1 1040 0 discriminator 2
 759 0032 0133     		adds	r3, r3, #1
 760              	.LVL93:
 761 0034 DBB2     		uxtb	r3, r3
 762              	.LVL94:
 763              	.L59:
1040:Middlewares/ST/STM32_USB_Host_Library/Class/AUDIO/Src/usbh_audio.c ****   {
 764              		.loc 1 1040 0 is_stmt 0 discriminator 1
 765 0036 9AB2     		uxth	r2, r3
 766 0038 B4F8EA10 		ldrh	r1, [r4, #234]
 767 003c 8A42     		cmp	r2, r1
ARM GAS  /tmp/cc7hx4Eu.s 			page 33


 768 003e E6D3     		bcc	.L62
1032:Middlewares/ST/STM32_USB_Host_Library/Class/AUDIO/Src/usbh_audio.c ****   uint32_t value;
 769              		.loc 1 1032 0 is_stmt 1
 770 0040 0021     		movs	r1, #0
 771              	.LVL95:
 772              	.L61:
1047:Middlewares/ST/STM32_USB_Host_Library/Class/AUDIO/Src/usbh_audio.c ****     }
1048:Middlewares/ST/STM32_USB_Host_Library/Class/AUDIO/Src/usbh_audio.c ****   }
1049:Middlewares/ST/STM32_USB_Host_Library/Class/AUDIO/Src/usbh_audio.c ****   
1050:Middlewares/ST/STM32_USB_Host_Library/Class/AUDIO/Src/usbh_audio.c ****   for(Index = 0; Index < AUDIO_Handle->class_desc.ASNum; Index++)
 773              		.loc 1 1050 0
 774 0042 0023     		movs	r3, #0
 775 0044 0CE0     		b	.L63
 776              	.LVL96:
 777              	.L66:
1051:Middlewares/ST/STM32_USB_Host_Library/Class/AUDIO/Src/usbh_audio.c ****   {
1052:Middlewares/ST/STM32_USB_Host_Library/Class/AUDIO/Src/usbh_audio.c ****     if(AUDIO_Handle->class_desc.as_desc[Index].GeneralDesc->bTerminalLink == UnitID)
 778              		.loc 1 1052 0
 779 0046 03F11702 		add	r2, r3, #23
 780 004a 04EBC202 		add	r2, r4, r2, lsl #3
 781 004e 9268     		ldr	r2, [r2, #8]
 782 0050 D278     		ldrb	r2, [r2, #3]	@ zero_extendqisi2
 783 0052 9142     		cmp	r1, r2
 784 0054 02D1     		bne	.L64
1053:Middlewares/ST/STM32_USB_Host_Library/Class/AUDIO/Src/usbh_audio.c ****     {    
1054:Middlewares/ST/STM32_USB_Host_Library/Class/AUDIO/Src/usbh_audio.c ****       AUDIO_Handle->headphone.asociated_as = Index;
 785              		.loc 1 1054 0
 786 0056 84F80431 		strb	r3, [r4, #260]
1055:Middlewares/ST/STM32_USB_Host_Library/Class/AUDIO/Src/usbh_audio.c ****       break;
 787              		.loc 1 1055 0
 788 005a 06E0     		b	.L74
 789              	.L64:
1050:Middlewares/ST/STM32_USB_Host_Library/Class/AUDIO/Src/usbh_audio.c ****   {
 790              		.loc 1 1050 0 discriminator 2
 791 005c 0133     		adds	r3, r3, #1
 792              	.LVL97:
 793 005e DBB2     		uxtb	r3, r3
 794              	.LVL98:
 795              	.L63:
1050:Middlewares/ST/STM32_USB_Host_Library/Class/AUDIO/Src/usbh_audio.c ****   {
 796              		.loc 1 1050 0 is_stmt 0 discriminator 1
 797 0060 9AB2     		uxth	r2, r3
 798 0062 B4F8E800 		ldrh	r0, [r4, #232]
 799 0066 8242     		cmp	r2, r0
 800 0068 EDD3     		bcc	.L66
 801              	.LVL99:
 802              	.L74:
1056:Middlewares/ST/STM32_USB_Host_Library/Class/AUDIO/Src/usbh_audio.c ****     }
1057:Middlewares/ST/STM32_USB_Host_Library/Class/AUDIO/Src/usbh_audio.c ****   } 
1058:Middlewares/ST/STM32_USB_Host_Library/Class/AUDIO/Src/usbh_audio.c ****         
1059:Middlewares/ST/STM32_USB_Host_Library/Class/AUDIO/Src/usbh_audio.c ****   do
1060:Middlewares/ST/STM32_USB_Host_Library/Class/AUDIO/Src/usbh_audio.c ****   {
1061:Middlewares/ST/STM32_USB_Host_Library/Class/AUDIO/Src/usbh_audio.c ****     value =  USBH_AUDIO_FindLinkedUnit(phost, UnitID);
 803              		.loc 1 1061 0 is_stmt 1
 804 006a 2846     		mov	r0, r5
 805 006c FFF7FEFF 		bl	USBH_AUDIO_FindLinkedUnit
 806              	.LVL100:
ARM GAS  /tmp/cc7hx4Eu.s 			page 34


1062:Middlewares/ST/STM32_USB_Host_Library/Class/AUDIO/Src/usbh_audio.c ****     Index = value & 0xFF;
 807              		.loc 1 1062 0
 808 0070 C6B2     		uxtb	r6, r0
 809              	.LVL101:
1063:Middlewares/ST/STM32_USB_Host_Library/Class/AUDIO/Src/usbh_audio.c ****     Type   = (value >> 8) & 0xFF;
 810              		.loc 1 1063 0
 811 0072 C0F30722 		ubfx	r2, r0, #8, #8
 812              	.LVL102:
1064:Middlewares/ST/STM32_USB_Host_Library/Class/AUDIO/Src/usbh_audio.c ****     UnitID   = (value >> 16) & 0xFF;
 813              		.loc 1 1064 0
 814 0076 C0F30741 		ubfx	r1, r0, #16, #8
 815              	.LVL103:
1065:Middlewares/ST/STM32_USB_Host_Library/Class/AUDIO/Src/usbh_audio.c ****     
1066:Middlewares/ST/STM32_USB_Host_Library/Class/AUDIO/Src/usbh_audio.c ****     switch (Type)
 816              		.loc 1 1066 0
 817 007a D31E     		subs	r3, r2, #3
 818 007c 032B     		cmp	r3, #3
 819 007e 1BD8     		bhi	.L67
 820 0080 DFE803F0 		tbb	[pc, r3]
 821              	.L69:
 822 0084 0B       		.byte	(.L68-.L69)/2
 823 0085 05       		.byte	(.L70-.L69)/2
 824 0086 08       		.byte	(.L71-.L69)/2
 825 0087 02       		.byte	(.L72-.L69)/2
 826              		.p2align 1
 827              	.L72:
1067:Middlewares/ST/STM32_USB_Host_Library/Class/AUDIO/Src/usbh_audio.c ****     {
1068:Middlewares/ST/STM32_USB_Host_Library/Class/AUDIO/Src/usbh_audio.c ****     case UAC_FEATURE_UNIT:
1069:Middlewares/ST/STM32_USB_Host_Library/Class/AUDIO/Src/usbh_audio.c ****       AUDIO_Handle->headphone.asociated_feature = Index;
 828              		.loc 1 1069 0
 829 0088 84F80761 		strb	r6, [r4, #263]
1070:Middlewares/ST/STM32_USB_Host_Library/Class/AUDIO/Src/usbh_audio.c ****       break;
 830              		.loc 1 1070 0
 831 008c 14E0     		b	.L67
 832              	.L70:
1071:Middlewares/ST/STM32_USB_Host_Library/Class/AUDIO/Src/usbh_audio.c ****       
1072:Middlewares/ST/STM32_USB_Host_Library/Class/AUDIO/Src/usbh_audio.c ****     case UAC_MIXER_UNIT:
1073:Middlewares/ST/STM32_USB_Host_Library/Class/AUDIO/Src/usbh_audio.c ****       AUDIO_Handle->headphone.asociated_mixer = Index;
 833              		.loc 1 1073 0
 834 008e 84F80561 		strb	r6, [r4, #261]
1074:Middlewares/ST/STM32_USB_Host_Library/Class/AUDIO/Src/usbh_audio.c ****       break;
 835              		.loc 1 1074 0
 836 0092 11E0     		b	.L67
 837              	.L71:
1075:Middlewares/ST/STM32_USB_Host_Library/Class/AUDIO/Src/usbh_audio.c ****       
1076:Middlewares/ST/STM32_USB_Host_Library/Class/AUDIO/Src/usbh_audio.c ****     case UAC_SELECTOR_UNIT:
1077:Middlewares/ST/STM32_USB_Host_Library/Class/AUDIO/Src/usbh_audio.c ****       AUDIO_Handle->headphone.asociated_selector = Index;
 838              		.loc 1 1077 0
 839 0094 84F80661 		strb	r6, [r4, #262]
1078:Middlewares/ST/STM32_USB_Host_Library/Class/AUDIO/Src/usbh_audio.c ****       break;
 840              		.loc 1 1078 0
 841 0098 0EE0     		b	.L67
 842              	.L68:
1079:Middlewares/ST/STM32_USB_Host_Library/Class/AUDIO/Src/usbh_audio.c ****       
1080:Middlewares/ST/STM32_USB_Host_Library/Class/AUDIO/Src/usbh_audio.c ****     case UAC_OUTPUT_TERMINAL:
1081:Middlewares/ST/STM32_USB_Host_Library/Class/AUDIO/Src/usbh_audio.c ****       AUDIO_Handle->headphone.asociated_terminal = Index;
 843              		.loc 1 1081 0
ARM GAS  /tmp/cc7hx4Eu.s 			page 35


 844 009a 84F80861 		strb	r6, [r4, #264]
1082:Middlewares/ST/STM32_USB_Host_Library/Class/AUDIO/Src/usbh_audio.c ****       if(LE16(AUDIO_Handle->class_desc.cs_desc.OutputTerminalDesc[Index]->wTerminalType) != 0x103)
 845              		.loc 1 1082 0
 846 009e C3B2     		uxtb	r3, r0
 847 00a0 1E33     		adds	r3, r3, #30
 848 00a2 04EB8303 		add	r3, r4, r3, lsl #2
 849 00a6 9E68     		ldr	r6, [r3, #8]
 850              	.LVL104:
 851 00a8 3379     		ldrb	r3, [r6, #4]	@ zero_extendqisi2
 852 00aa 7679     		ldrb	r6, [r6, #5]	@ zero_extendqisi2
 853 00ac 03EB0623 		add	r3, r3, r6, lsl #8
 854 00b0 40F20316 		movw	r6, #259
 855 00b4 B342     		cmp	r3, r6
 856 00b6 05D1     		bne	.L75
 857              	.LVL105:
 858              	.L67:
1083:Middlewares/ST/STM32_USB_Host_Library/Class/AUDIO/Src/usbh_audio.c ****       {
1084:Middlewares/ST/STM32_USB_Host_Library/Class/AUDIO/Src/usbh_audio.c ****         return  USBH_OK;
1085:Middlewares/ST/STM32_USB_Host_Library/Class/AUDIO/Src/usbh_audio.c ****       }
1086:Middlewares/ST/STM32_USB_Host_Library/Class/AUDIO/Src/usbh_audio.c ****       break;    
1087:Middlewares/ST/STM32_USB_Host_Library/Class/AUDIO/Src/usbh_audio.c ****     }
1088:Middlewares/ST/STM32_USB_Host_Library/Class/AUDIO/Src/usbh_audio.c ****   }
1089:Middlewares/ST/STM32_USB_Host_Library/Class/AUDIO/Src/usbh_audio.c ****   while ((Type != UAC_OUTPUT_TERMINAL) && (value > 0));
 859              		.loc 1 1089 0
 860 00b8 032A     		cmp	r2, #3
 861 00ba 05D0     		beq	.L76
 862              		.loc 1 1089 0 is_stmt 0 discriminator 1
 863 00bc 0028     		cmp	r0, #0
 864 00be D4D1     		bne	.L74
1090:Middlewares/ST/STM32_USB_Host_Library/Class/AUDIO/Src/usbh_audio.c **** 
1091:Middlewares/ST/STM32_USB_Host_Library/Class/AUDIO/Src/usbh_audio.c ****   return USBH_FAIL;
 865              		.loc 1 1091 0 is_stmt 1
 866 00c0 0220     		movs	r0, #2
 867              	.LVL106:
 868 00c2 70BD     		pop	{r4, r5, r6, pc}
 869              	.LVL107:
 870              	.L75:
1084:Middlewares/ST/STM32_USB_Host_Library/Class/AUDIO/Src/usbh_audio.c ****       }
 871              		.loc 1 1084 0
 872 00c4 0020     		movs	r0, #0
 873              	.LVL108:
 874 00c6 70BD     		pop	{r4, r5, r6, pc}
 875              	.LVL109:
 876              	.L76:
 877              		.loc 1 1091 0
 878 00c8 0220     		movs	r0, #2
 879              	.LVL110:
1092:Middlewares/ST/STM32_USB_Host_Library/Class/AUDIO/Src/usbh_audio.c **** }
 880              		.loc 1 1092 0
 881 00ca 70BD     		pop	{r4, r5, r6, pc}
 882              		.cfi_endproc
 883              	.LFE138:
 885              		.section	.text.USBH_AUDIO_SetEndpointControls,"ax",%progbits
 886              		.align	2
 887              		.thumb
 888              		.thumb_func
 890              	USBH_AUDIO_SetEndpointControls:
ARM GAS  /tmp/cc7hx4Eu.s 			page 36


 891              	.LFB144:
1093:Middlewares/ST/STM32_USB_Host_Library/Class/AUDIO/Src/usbh_audio.c **** 
1094:Middlewares/ST/STM32_USB_Host_Library/Class/AUDIO/Src/usbh_audio.c **** 
1095:Middlewares/ST/STM32_USB_Host_Library/Class/AUDIO/Src/usbh_audio.c **** /**
1096:Middlewares/ST/STM32_USB_Host_Library/Class/AUDIO/Src/usbh_audio.c ****   * @brief  Handle Set Cur request
1097:Middlewares/ST/STM32_USB_Host_Library/Class/AUDIO/Src/usbh_audio.c ****   * @param  phost: Host handle
1098:Middlewares/ST/STM32_USB_Host_Library/Class/AUDIO/Src/usbh_audio.c ****   * @param  subtype: subtype index
1099:Middlewares/ST/STM32_USB_Host_Library/Class/AUDIO/Src/usbh_audio.c ****   * @param  feature: feature index
1100:Middlewares/ST/STM32_USB_Host_Library/Class/AUDIO/Src/usbh_audio.c ****   * @param  controlSelector: control code
1101:Middlewares/ST/STM32_USB_Host_Library/Class/AUDIO/Src/usbh_audio.c ****   * @param  channel: channel index
1102:Middlewares/ST/STM32_USB_Host_Library/Class/AUDIO/Src/usbh_audio.c ****   * @param  length: Command length
1103:Middlewares/ST/STM32_USB_Host_Library/Class/AUDIO/Src/usbh_audio.c ****   * @retval USBH Status
1104:Middlewares/ST/STM32_USB_Host_Library/Class/AUDIO/Src/usbh_audio.c ****   */
1105:Middlewares/ST/STM32_USB_Host_Library/Class/AUDIO/Src/usbh_audio.c **** static USBH_StatusTypeDef USBH_AC_SetCur(USBH_HandleTypeDef *phost, 
1106:Middlewares/ST/STM32_USB_Host_Library/Class/AUDIO/Src/usbh_audio.c ****                                          uint8_t subtype, 
1107:Middlewares/ST/STM32_USB_Host_Library/Class/AUDIO/Src/usbh_audio.c ****                                          uint8_t feature,
1108:Middlewares/ST/STM32_USB_Host_Library/Class/AUDIO/Src/usbh_audio.c ****                                          uint8_t controlSelector,
1109:Middlewares/ST/STM32_USB_Host_Library/Class/AUDIO/Src/usbh_audio.c ****                                          uint8_t channel,
1110:Middlewares/ST/STM32_USB_Host_Library/Class/AUDIO/Src/usbh_audio.c ****                                          uint16_t length)
1111:Middlewares/ST/STM32_USB_Host_Library/Class/AUDIO/Src/usbh_audio.c **** {
1112:Middlewares/ST/STM32_USB_Host_Library/Class/AUDIO/Src/usbh_audio.c ****   uint16_t wValue,wIndex,wLength;
1113:Middlewares/ST/STM32_USB_Host_Library/Class/AUDIO/Src/usbh_audio.c ****   uint8_t UnitID,InterfaceNum;
1114:Middlewares/ST/STM32_USB_Host_Library/Class/AUDIO/Src/usbh_audio.c ****   AUDIO_HandleTypeDef *AUDIO_Handle;
1115:Middlewares/ST/STM32_USB_Host_Library/Class/AUDIO/Src/usbh_audio.c ****   AUDIO_Handle =  (AUDIO_HandleTypeDef*) phost->pActiveClass->pData;
1116:Middlewares/ST/STM32_USB_Host_Library/Class/AUDIO/Src/usbh_audio.c ****   
1117:Middlewares/ST/STM32_USB_Host_Library/Class/AUDIO/Src/usbh_audio.c ****   switch(subtype)
1118:Middlewares/ST/STM32_USB_Host_Library/Class/AUDIO/Src/usbh_audio.c ****   {
1119:Middlewares/ST/STM32_USB_Host_Library/Class/AUDIO/Src/usbh_audio.c ****   case UAC_INPUT_TERMINAL:
1120:Middlewares/ST/STM32_USB_Host_Library/Class/AUDIO/Src/usbh_audio.c ****     UnitID = AUDIO_Handle->class_desc.cs_desc.InputTerminalDesc[0]->bTerminalID;
1121:Middlewares/ST/STM32_USB_Host_Library/Class/AUDIO/Src/usbh_audio.c ****     InterfaceNum = 0; /*Always zero Control Interface */
1122:Middlewares/ST/STM32_USB_Host_Library/Class/AUDIO/Src/usbh_audio.c ****     wIndex = ( UnitID << 8 ) | InterfaceNum ;
1123:Middlewares/ST/STM32_USB_Host_Library/Class/AUDIO/Src/usbh_audio.c ****     wValue = (COPY_PROTECT_CONTROL << 8 ) ;
1124:Middlewares/ST/STM32_USB_Host_Library/Class/AUDIO/Src/usbh_audio.c ****     AUDIO_Handle->mem[0] = 0x00;
1125:Middlewares/ST/STM32_USB_Host_Library/Class/AUDIO/Src/usbh_audio.c ****     
1126:Middlewares/ST/STM32_USB_Host_Library/Class/AUDIO/Src/usbh_audio.c ****     wLength = 1;
1127:Middlewares/ST/STM32_USB_Host_Library/Class/AUDIO/Src/usbh_audio.c ****     break;
1128:Middlewares/ST/STM32_USB_Host_Library/Class/AUDIO/Src/usbh_audio.c ****   case UAC_FEATURE_UNIT:
1129:Middlewares/ST/STM32_USB_Host_Library/Class/AUDIO/Src/usbh_audio.c ****     UnitID = AUDIO_Handle->class_desc.cs_desc.FeatureUnitDesc[feature]->bUnitID;
1130:Middlewares/ST/STM32_USB_Host_Library/Class/AUDIO/Src/usbh_audio.c ****     InterfaceNum = 0; /*Always zero Control Interface */
1131:Middlewares/ST/STM32_USB_Host_Library/Class/AUDIO/Src/usbh_audio.c ****     wIndex = ( UnitID << 8 ) | InterfaceNum ;
1132:Middlewares/ST/STM32_USB_Host_Library/Class/AUDIO/Src/usbh_audio.c ****     /*holds the CS(control selector ) and CN (channel number)*/
1133:Middlewares/ST/STM32_USB_Host_Library/Class/AUDIO/Src/usbh_audio.c ****     wValue =  (controlSelector << 8) | channel;
1134:Middlewares/ST/STM32_USB_Host_Library/Class/AUDIO/Src/usbh_audio.c ****     wLength = length;
1135:Middlewares/ST/STM32_USB_Host_Library/Class/AUDIO/Src/usbh_audio.c ****     break;
1136:Middlewares/ST/STM32_USB_Host_Library/Class/AUDIO/Src/usbh_audio.c ****   }
1137:Middlewares/ST/STM32_USB_Host_Library/Class/AUDIO/Src/usbh_audio.c ****   
1138:Middlewares/ST/STM32_USB_Host_Library/Class/AUDIO/Src/usbh_audio.c ****   phost->Control.setup.b.bmRequestType = USB_H2D | USB_REQ_RECIPIENT_INTERFACE | \
1139:Middlewares/ST/STM32_USB_Host_Library/Class/AUDIO/Src/usbh_audio.c ****     USB_REQ_TYPE_CLASS;
1140:Middlewares/ST/STM32_USB_Host_Library/Class/AUDIO/Src/usbh_audio.c ****   
1141:Middlewares/ST/STM32_USB_Host_Library/Class/AUDIO/Src/usbh_audio.c ****   phost->Control.setup.b.bRequest = UAC_SET_CUR;
1142:Middlewares/ST/STM32_USB_Host_Library/Class/AUDIO/Src/usbh_audio.c ****   phost->Control.setup.b.wValue.w = wValue;
1143:Middlewares/ST/STM32_USB_Host_Library/Class/AUDIO/Src/usbh_audio.c ****   phost->Control.setup.b.wIndex.w = wIndex;
1144:Middlewares/ST/STM32_USB_Host_Library/Class/AUDIO/Src/usbh_audio.c ****   phost->Control.setup.b.wLength.w = wLength; 
1145:Middlewares/ST/STM32_USB_Host_Library/Class/AUDIO/Src/usbh_audio.c ****   
1146:Middlewares/ST/STM32_USB_Host_Library/Class/AUDIO/Src/usbh_audio.c ****   return(USBH_CtlReq(phost, (uint8_t *)(AUDIO_Handle->mem) , wLength ));    
1147:Middlewares/ST/STM32_USB_Host_Library/Class/AUDIO/Src/usbh_audio.c ****   
1148:Middlewares/ST/STM32_USB_Host_Library/Class/AUDIO/Src/usbh_audio.c **** }
ARM GAS  /tmp/cc7hx4Eu.s 			page 37


1149:Middlewares/ST/STM32_USB_Host_Library/Class/AUDIO/Src/usbh_audio.c **** 
1150:Middlewares/ST/STM32_USB_Host_Library/Class/AUDIO/Src/usbh_audio.c **** /**
1151:Middlewares/ST/STM32_USB_Host_Library/Class/AUDIO/Src/usbh_audio.c ****   * @brief  Handle Get Cur request
1152:Middlewares/ST/STM32_USB_Host_Library/Class/AUDIO/Src/usbh_audio.c ****   * @param  phost: Host handle
1153:Middlewares/ST/STM32_USB_Host_Library/Class/AUDIO/Src/usbh_audio.c ****   * @param  subtype: subtype index
1154:Middlewares/ST/STM32_USB_Host_Library/Class/AUDIO/Src/usbh_audio.c ****   * @param  feature: feature index
1155:Middlewares/ST/STM32_USB_Host_Library/Class/AUDIO/Src/usbh_audio.c ****   * @param  controlSelector: control code
1156:Middlewares/ST/STM32_USB_Host_Library/Class/AUDIO/Src/usbh_audio.c ****   * @param  channel: channel index
1157:Middlewares/ST/STM32_USB_Host_Library/Class/AUDIO/Src/usbh_audio.c ****   * @param  length: Command length
1158:Middlewares/ST/STM32_USB_Host_Library/Class/AUDIO/Src/usbh_audio.c ****   * @retval USBH Status
1159:Middlewares/ST/STM32_USB_Host_Library/Class/AUDIO/Src/usbh_audio.c ****   */
1160:Middlewares/ST/STM32_USB_Host_Library/Class/AUDIO/Src/usbh_audio.c **** static USBH_StatusTypeDef USBH_AC_GetCur(USBH_HandleTypeDef *phost, 
1161:Middlewares/ST/STM32_USB_Host_Library/Class/AUDIO/Src/usbh_audio.c ****                                          uint8_t subtype, 
1162:Middlewares/ST/STM32_USB_Host_Library/Class/AUDIO/Src/usbh_audio.c ****                                          uint8_t feature,
1163:Middlewares/ST/STM32_USB_Host_Library/Class/AUDIO/Src/usbh_audio.c ****                                          uint8_t controlSelector,
1164:Middlewares/ST/STM32_USB_Host_Library/Class/AUDIO/Src/usbh_audio.c ****                                          uint8_t channel,
1165:Middlewares/ST/STM32_USB_Host_Library/Class/AUDIO/Src/usbh_audio.c ****                                          uint16_t length)
1166:Middlewares/ST/STM32_USB_Host_Library/Class/AUDIO/Src/usbh_audio.c **** {
1167:Middlewares/ST/STM32_USB_Host_Library/Class/AUDIO/Src/usbh_audio.c ****   uint16_t wValue = 0, wIndex = 0,wLength = 0;
1168:Middlewares/ST/STM32_USB_Host_Library/Class/AUDIO/Src/usbh_audio.c ****   uint8_t UnitID = 0, InterfaceNum = 0;
1169:Middlewares/ST/STM32_USB_Host_Library/Class/AUDIO/Src/usbh_audio.c ****   AUDIO_HandleTypeDef *AUDIO_Handle;
1170:Middlewares/ST/STM32_USB_Host_Library/Class/AUDIO/Src/usbh_audio.c ****   AUDIO_Handle =  (AUDIO_HandleTypeDef*) phost->pActiveClass->pData;
1171:Middlewares/ST/STM32_USB_Host_Library/Class/AUDIO/Src/usbh_audio.c ****   
1172:Middlewares/ST/STM32_USB_Host_Library/Class/AUDIO/Src/usbh_audio.c ****   switch(subtype)
1173:Middlewares/ST/STM32_USB_Host_Library/Class/AUDIO/Src/usbh_audio.c ****   {
1174:Middlewares/ST/STM32_USB_Host_Library/Class/AUDIO/Src/usbh_audio.c ****   case UAC_INPUT_TERMINAL:
1175:Middlewares/ST/STM32_USB_Host_Library/Class/AUDIO/Src/usbh_audio.c ****     UnitID = AUDIO_Handle->class_desc.cs_desc.InputTerminalDesc[0]->bTerminalID;
1176:Middlewares/ST/STM32_USB_Host_Library/Class/AUDIO/Src/usbh_audio.c ****     InterfaceNum = 0; /*Always zero Control Interface */
1177:Middlewares/ST/STM32_USB_Host_Library/Class/AUDIO/Src/usbh_audio.c ****     wIndex = ( UnitID << 8 ) | InterfaceNum ;
1178:Middlewares/ST/STM32_USB_Host_Library/Class/AUDIO/Src/usbh_audio.c ****     wValue = (COPY_PROTECT_CONTROL << 8 ) ;
1179:Middlewares/ST/STM32_USB_Host_Library/Class/AUDIO/Src/usbh_audio.c ****     AUDIO_Handle->mem[0] = 0x00;
1180:Middlewares/ST/STM32_USB_Host_Library/Class/AUDIO/Src/usbh_audio.c ****     
1181:Middlewares/ST/STM32_USB_Host_Library/Class/AUDIO/Src/usbh_audio.c ****     wLength = 1;
1182:Middlewares/ST/STM32_USB_Host_Library/Class/AUDIO/Src/usbh_audio.c ****     break;
1183:Middlewares/ST/STM32_USB_Host_Library/Class/AUDIO/Src/usbh_audio.c ****   case UAC_FEATURE_UNIT:
1184:Middlewares/ST/STM32_USB_Host_Library/Class/AUDIO/Src/usbh_audio.c ****     UnitID = AUDIO_Handle->class_desc.cs_desc.FeatureUnitDesc[feature]->bUnitID;
1185:Middlewares/ST/STM32_USB_Host_Library/Class/AUDIO/Src/usbh_audio.c ****     InterfaceNum = 0; /*Always zero Control Interface */
1186:Middlewares/ST/STM32_USB_Host_Library/Class/AUDIO/Src/usbh_audio.c ****     wIndex = ( UnitID << 8 ) | InterfaceNum ;
1187:Middlewares/ST/STM32_USB_Host_Library/Class/AUDIO/Src/usbh_audio.c ****     /*holds the CS(control selector ) and CN (channel number)*/
1188:Middlewares/ST/STM32_USB_Host_Library/Class/AUDIO/Src/usbh_audio.c ****     wValue =  (controlSelector << 8) | channel;
1189:Middlewares/ST/STM32_USB_Host_Library/Class/AUDIO/Src/usbh_audio.c ****     wLength = length;
1190:Middlewares/ST/STM32_USB_Host_Library/Class/AUDIO/Src/usbh_audio.c ****     break;
1191:Middlewares/ST/STM32_USB_Host_Library/Class/AUDIO/Src/usbh_audio.c ****     
1192:Middlewares/ST/STM32_USB_Host_Library/Class/AUDIO/Src/usbh_audio.c ****   case UAC_OUTPUT_TERMINAL:
1193:Middlewares/ST/STM32_USB_Host_Library/Class/AUDIO/Src/usbh_audio.c ****     UnitID = AUDIO_Handle->class_desc.cs_desc.OutputTerminalDesc[0]->bTerminalID;
1194:Middlewares/ST/STM32_USB_Host_Library/Class/AUDIO/Src/usbh_audio.c ****     InterfaceNum = 0; /*Always zero Control Interface */
1195:Middlewares/ST/STM32_USB_Host_Library/Class/AUDIO/Src/usbh_audio.c ****     wIndex = ( UnitID << 8 ) | InterfaceNum ;
1196:Middlewares/ST/STM32_USB_Host_Library/Class/AUDIO/Src/usbh_audio.c ****     wValue = (COPY_PROTECT_CONTROL << 8 ) ; 
1197:Middlewares/ST/STM32_USB_Host_Library/Class/AUDIO/Src/usbh_audio.c ****     wLength = 1; 
1198:Middlewares/ST/STM32_USB_Host_Library/Class/AUDIO/Src/usbh_audio.c ****     break;
1199:Middlewares/ST/STM32_USB_Host_Library/Class/AUDIO/Src/usbh_audio.c ****   }
1200:Middlewares/ST/STM32_USB_Host_Library/Class/AUDIO/Src/usbh_audio.c ****   
1201:Middlewares/ST/STM32_USB_Host_Library/Class/AUDIO/Src/usbh_audio.c ****   phost->Control.setup.b.bmRequestType = USB_D2H | USB_REQ_RECIPIENT_INTERFACE | \
1202:Middlewares/ST/STM32_USB_Host_Library/Class/AUDIO/Src/usbh_audio.c ****     USB_REQ_TYPE_CLASS;
1203:Middlewares/ST/STM32_USB_Host_Library/Class/AUDIO/Src/usbh_audio.c ****   
1204:Middlewares/ST/STM32_USB_Host_Library/Class/AUDIO/Src/usbh_audio.c ****   phost->Control.setup.b.bRequest = UAC_GET_CUR;
1205:Middlewares/ST/STM32_USB_Host_Library/Class/AUDIO/Src/usbh_audio.c ****   phost->Control.setup.b.wValue.w = wValue;
ARM GAS  /tmp/cc7hx4Eu.s 			page 38


1206:Middlewares/ST/STM32_USB_Host_Library/Class/AUDIO/Src/usbh_audio.c ****   phost->Control.setup.b.wIndex.w = wIndex;
1207:Middlewares/ST/STM32_USB_Host_Library/Class/AUDIO/Src/usbh_audio.c ****   phost->Control.setup.b.wLength.w = wLength; 
1208:Middlewares/ST/STM32_USB_Host_Library/Class/AUDIO/Src/usbh_audio.c ****   
1209:Middlewares/ST/STM32_USB_Host_Library/Class/AUDIO/Src/usbh_audio.c ****   return(USBH_CtlReq(phost, (uint8_t *)(AUDIO_Handle->mem) , wLength ));    
1210:Middlewares/ST/STM32_USB_Host_Library/Class/AUDIO/Src/usbh_audio.c ****   
1211:Middlewares/ST/STM32_USB_Host_Library/Class/AUDIO/Src/usbh_audio.c **** }
1212:Middlewares/ST/STM32_USB_Host_Library/Class/AUDIO/Src/usbh_audio.c **** 
1213:Middlewares/ST/STM32_USB_Host_Library/Class/AUDIO/Src/usbh_audio.c **** 
1214:Middlewares/ST/STM32_USB_Host_Library/Class/AUDIO/Src/usbh_audio.c **** /**
1215:Middlewares/ST/STM32_USB_Host_Library/Class/AUDIO/Src/usbh_audio.c ****   * @brief  Handle Get Max request
1216:Middlewares/ST/STM32_USB_Host_Library/Class/AUDIO/Src/usbh_audio.c ****   * @param  phost: Host handle
1217:Middlewares/ST/STM32_USB_Host_Library/Class/AUDIO/Src/usbh_audio.c ****   * @param  subtype: subtype index
1218:Middlewares/ST/STM32_USB_Host_Library/Class/AUDIO/Src/usbh_audio.c ****   * @param  feature: feature index
1219:Middlewares/ST/STM32_USB_Host_Library/Class/AUDIO/Src/usbh_audio.c ****   * @param  controlSelector: control code
1220:Middlewares/ST/STM32_USB_Host_Library/Class/AUDIO/Src/usbh_audio.c ****   * @param  channel: channel index
1221:Middlewares/ST/STM32_USB_Host_Library/Class/AUDIO/Src/usbh_audio.c ****   * @param  length: Command length
1222:Middlewares/ST/STM32_USB_Host_Library/Class/AUDIO/Src/usbh_audio.c ****   * @retval USBH Status
1223:Middlewares/ST/STM32_USB_Host_Library/Class/AUDIO/Src/usbh_audio.c ****   */
1224:Middlewares/ST/STM32_USB_Host_Library/Class/AUDIO/Src/usbh_audio.c **** static USBH_StatusTypeDef USBH_AC_GetMax(USBH_HandleTypeDef *phost, 
1225:Middlewares/ST/STM32_USB_Host_Library/Class/AUDIO/Src/usbh_audio.c ****                                          uint8_t subtype, 
1226:Middlewares/ST/STM32_USB_Host_Library/Class/AUDIO/Src/usbh_audio.c ****                                          uint8_t feature,
1227:Middlewares/ST/STM32_USB_Host_Library/Class/AUDIO/Src/usbh_audio.c ****                                          uint8_t controlSelector,
1228:Middlewares/ST/STM32_USB_Host_Library/Class/AUDIO/Src/usbh_audio.c ****                                          uint8_t channel,
1229:Middlewares/ST/STM32_USB_Host_Library/Class/AUDIO/Src/usbh_audio.c ****                                          uint16_t length)
1230:Middlewares/ST/STM32_USB_Host_Library/Class/AUDIO/Src/usbh_audio.c **** {
1231:Middlewares/ST/STM32_USB_Host_Library/Class/AUDIO/Src/usbh_audio.c ****   uint16_t wValue = 0, wIndex = 0, wLength = 0;
1232:Middlewares/ST/STM32_USB_Host_Library/Class/AUDIO/Src/usbh_audio.c ****   uint8_t UnitID = 0, InterfaceNum = 0;
1233:Middlewares/ST/STM32_USB_Host_Library/Class/AUDIO/Src/usbh_audio.c ****   AUDIO_HandleTypeDef *AUDIO_Handle;
1234:Middlewares/ST/STM32_USB_Host_Library/Class/AUDIO/Src/usbh_audio.c ****   AUDIO_Handle =  (AUDIO_HandleTypeDef*) phost->pActiveClass->pData;
1235:Middlewares/ST/STM32_USB_Host_Library/Class/AUDIO/Src/usbh_audio.c ****   
1236:Middlewares/ST/STM32_USB_Host_Library/Class/AUDIO/Src/usbh_audio.c ****   switch(subtype)
1237:Middlewares/ST/STM32_USB_Host_Library/Class/AUDIO/Src/usbh_audio.c ****   {
1238:Middlewares/ST/STM32_USB_Host_Library/Class/AUDIO/Src/usbh_audio.c ****   case UAC_INPUT_TERMINAL:
1239:Middlewares/ST/STM32_USB_Host_Library/Class/AUDIO/Src/usbh_audio.c ****     UnitID = AUDIO_Handle->class_desc.cs_desc.InputTerminalDesc[0]->bTerminalID;
1240:Middlewares/ST/STM32_USB_Host_Library/Class/AUDIO/Src/usbh_audio.c ****     InterfaceNum = 0; /*Always zero Control Interface */
1241:Middlewares/ST/STM32_USB_Host_Library/Class/AUDIO/Src/usbh_audio.c ****     wIndex = ( UnitID << 8 ) | InterfaceNum ;
1242:Middlewares/ST/STM32_USB_Host_Library/Class/AUDIO/Src/usbh_audio.c ****     wValue = (COPY_PROTECT_CONTROL << 8 ) ;
1243:Middlewares/ST/STM32_USB_Host_Library/Class/AUDIO/Src/usbh_audio.c ****     AUDIO_Handle->mem[0] = 0x00;
1244:Middlewares/ST/STM32_USB_Host_Library/Class/AUDIO/Src/usbh_audio.c ****     
1245:Middlewares/ST/STM32_USB_Host_Library/Class/AUDIO/Src/usbh_audio.c ****     wLength = 1;
1246:Middlewares/ST/STM32_USB_Host_Library/Class/AUDIO/Src/usbh_audio.c ****     break;
1247:Middlewares/ST/STM32_USB_Host_Library/Class/AUDIO/Src/usbh_audio.c ****   case UAC_FEATURE_UNIT:
1248:Middlewares/ST/STM32_USB_Host_Library/Class/AUDIO/Src/usbh_audio.c ****     UnitID = AUDIO_Handle->class_desc.cs_desc.FeatureUnitDesc[feature]->bUnitID;
1249:Middlewares/ST/STM32_USB_Host_Library/Class/AUDIO/Src/usbh_audio.c ****     InterfaceNum = 0; /*Always zero Control Interface */
1250:Middlewares/ST/STM32_USB_Host_Library/Class/AUDIO/Src/usbh_audio.c ****     wIndex = ( UnitID << 8 ) | InterfaceNum ;
1251:Middlewares/ST/STM32_USB_Host_Library/Class/AUDIO/Src/usbh_audio.c ****     /*holds the CS(control selector ) and CN (channel number)*/
1252:Middlewares/ST/STM32_USB_Host_Library/Class/AUDIO/Src/usbh_audio.c ****     wValue =  (controlSelector << 8) | channel;
1253:Middlewares/ST/STM32_USB_Host_Library/Class/AUDIO/Src/usbh_audio.c ****     wLength = length;
1254:Middlewares/ST/STM32_USB_Host_Library/Class/AUDIO/Src/usbh_audio.c ****     break;
1255:Middlewares/ST/STM32_USB_Host_Library/Class/AUDIO/Src/usbh_audio.c ****     
1256:Middlewares/ST/STM32_USB_Host_Library/Class/AUDIO/Src/usbh_audio.c ****   case UAC_OUTPUT_TERMINAL:
1257:Middlewares/ST/STM32_USB_Host_Library/Class/AUDIO/Src/usbh_audio.c ****     UnitID = AUDIO_Handle->class_desc.cs_desc.OutputTerminalDesc[0]->bTerminalID;
1258:Middlewares/ST/STM32_USB_Host_Library/Class/AUDIO/Src/usbh_audio.c ****     InterfaceNum = 0; /*Always zero Control Interface */
1259:Middlewares/ST/STM32_USB_Host_Library/Class/AUDIO/Src/usbh_audio.c ****     wIndex = ( UnitID << 8 ) | InterfaceNum ;
1260:Middlewares/ST/STM32_USB_Host_Library/Class/AUDIO/Src/usbh_audio.c ****     wValue = (COPY_PROTECT_CONTROL << 8 ) ; 
1261:Middlewares/ST/STM32_USB_Host_Library/Class/AUDIO/Src/usbh_audio.c ****     wLength = 1; 
1262:Middlewares/ST/STM32_USB_Host_Library/Class/AUDIO/Src/usbh_audio.c ****     break;
ARM GAS  /tmp/cc7hx4Eu.s 			page 39


1263:Middlewares/ST/STM32_USB_Host_Library/Class/AUDIO/Src/usbh_audio.c ****   }
1264:Middlewares/ST/STM32_USB_Host_Library/Class/AUDIO/Src/usbh_audio.c ****   
1265:Middlewares/ST/STM32_USB_Host_Library/Class/AUDIO/Src/usbh_audio.c ****   phost->Control.setup.b.bmRequestType = USB_D2H | USB_REQ_RECIPIENT_INTERFACE | \
1266:Middlewares/ST/STM32_USB_Host_Library/Class/AUDIO/Src/usbh_audio.c ****     USB_REQ_TYPE_CLASS;
1267:Middlewares/ST/STM32_USB_Host_Library/Class/AUDIO/Src/usbh_audio.c ****   
1268:Middlewares/ST/STM32_USB_Host_Library/Class/AUDIO/Src/usbh_audio.c ****   phost->Control.setup.b.bRequest = UAC_GET_MAX;
1269:Middlewares/ST/STM32_USB_Host_Library/Class/AUDIO/Src/usbh_audio.c ****   phost->Control.setup.b.wValue.w = wValue;
1270:Middlewares/ST/STM32_USB_Host_Library/Class/AUDIO/Src/usbh_audio.c ****   phost->Control.setup.b.wIndex.w = wIndex;
1271:Middlewares/ST/STM32_USB_Host_Library/Class/AUDIO/Src/usbh_audio.c ****   phost->Control.setup.b.wLength.w = wLength; 
1272:Middlewares/ST/STM32_USB_Host_Library/Class/AUDIO/Src/usbh_audio.c ****   
1273:Middlewares/ST/STM32_USB_Host_Library/Class/AUDIO/Src/usbh_audio.c ****   return(USBH_CtlReq(phost, (uint8_t *)(AUDIO_Handle->mem) , wLength ));    
1274:Middlewares/ST/STM32_USB_Host_Library/Class/AUDIO/Src/usbh_audio.c ****   
1275:Middlewares/ST/STM32_USB_Host_Library/Class/AUDIO/Src/usbh_audio.c **** }
1276:Middlewares/ST/STM32_USB_Host_Library/Class/AUDIO/Src/usbh_audio.c **** 
1277:Middlewares/ST/STM32_USB_Host_Library/Class/AUDIO/Src/usbh_audio.c **** 
1278:Middlewares/ST/STM32_USB_Host_Library/Class/AUDIO/Src/usbh_audio.c **** 
1279:Middlewares/ST/STM32_USB_Host_Library/Class/AUDIO/Src/usbh_audio.c **** /**
1280:Middlewares/ST/STM32_USB_Host_Library/Class/AUDIO/Src/usbh_audio.c ****   * @brief  Handle Get Res request
1281:Middlewares/ST/STM32_USB_Host_Library/Class/AUDIO/Src/usbh_audio.c ****   * @param  phost: Host handle
1282:Middlewares/ST/STM32_USB_Host_Library/Class/AUDIO/Src/usbh_audio.c ****   * @param  subtype: subtype index
1283:Middlewares/ST/STM32_USB_Host_Library/Class/AUDIO/Src/usbh_audio.c ****   * @param  feature: feature index
1284:Middlewares/ST/STM32_USB_Host_Library/Class/AUDIO/Src/usbh_audio.c ****   * @param  controlSelector: control code
1285:Middlewares/ST/STM32_USB_Host_Library/Class/AUDIO/Src/usbh_audio.c ****   * @param  channel: channel index
1286:Middlewares/ST/STM32_USB_Host_Library/Class/AUDIO/Src/usbh_audio.c ****   * @param  length: Command length
1287:Middlewares/ST/STM32_USB_Host_Library/Class/AUDIO/Src/usbh_audio.c ****   * @retval USBH Status
1288:Middlewares/ST/STM32_USB_Host_Library/Class/AUDIO/Src/usbh_audio.c ****   */
1289:Middlewares/ST/STM32_USB_Host_Library/Class/AUDIO/Src/usbh_audio.c **** static USBH_StatusTypeDef USBH_AC_GetRes(USBH_HandleTypeDef *phost, 
1290:Middlewares/ST/STM32_USB_Host_Library/Class/AUDIO/Src/usbh_audio.c ****                                          uint8_t subtype, 
1291:Middlewares/ST/STM32_USB_Host_Library/Class/AUDIO/Src/usbh_audio.c ****                                          uint8_t feature,
1292:Middlewares/ST/STM32_USB_Host_Library/Class/AUDIO/Src/usbh_audio.c ****                                          uint8_t controlSelector,
1293:Middlewares/ST/STM32_USB_Host_Library/Class/AUDIO/Src/usbh_audio.c ****                                          uint8_t channel,
1294:Middlewares/ST/STM32_USB_Host_Library/Class/AUDIO/Src/usbh_audio.c ****                                          uint16_t length)
1295:Middlewares/ST/STM32_USB_Host_Library/Class/AUDIO/Src/usbh_audio.c **** {
1296:Middlewares/ST/STM32_USB_Host_Library/Class/AUDIO/Src/usbh_audio.c ****   uint16_t wValue = 0, wIndex = 0, wLength = 0;
1297:Middlewares/ST/STM32_USB_Host_Library/Class/AUDIO/Src/usbh_audio.c ****   uint8_t UnitID = 0, InterfaceNum = 0;
1298:Middlewares/ST/STM32_USB_Host_Library/Class/AUDIO/Src/usbh_audio.c ****   AUDIO_HandleTypeDef *AUDIO_Handle;
1299:Middlewares/ST/STM32_USB_Host_Library/Class/AUDIO/Src/usbh_audio.c ****   AUDIO_Handle =  (AUDIO_HandleTypeDef*) phost->pActiveClass->pData;
1300:Middlewares/ST/STM32_USB_Host_Library/Class/AUDIO/Src/usbh_audio.c ****   
1301:Middlewares/ST/STM32_USB_Host_Library/Class/AUDIO/Src/usbh_audio.c ****   switch(subtype)
1302:Middlewares/ST/STM32_USB_Host_Library/Class/AUDIO/Src/usbh_audio.c ****   {
1303:Middlewares/ST/STM32_USB_Host_Library/Class/AUDIO/Src/usbh_audio.c ****   case UAC_INPUT_TERMINAL:
1304:Middlewares/ST/STM32_USB_Host_Library/Class/AUDIO/Src/usbh_audio.c ****     UnitID = AUDIO_Handle->class_desc.cs_desc.InputTerminalDesc[0]->bTerminalID;
1305:Middlewares/ST/STM32_USB_Host_Library/Class/AUDIO/Src/usbh_audio.c ****     InterfaceNum = 0; /*Always zero Control Interface */
1306:Middlewares/ST/STM32_USB_Host_Library/Class/AUDIO/Src/usbh_audio.c ****     wIndex = ( UnitID << 8 ) | InterfaceNum ;
1307:Middlewares/ST/STM32_USB_Host_Library/Class/AUDIO/Src/usbh_audio.c ****     wValue = (COPY_PROTECT_CONTROL << 8 ) ;
1308:Middlewares/ST/STM32_USB_Host_Library/Class/AUDIO/Src/usbh_audio.c ****     AUDIO_Handle->mem[0] = 0x00;
1309:Middlewares/ST/STM32_USB_Host_Library/Class/AUDIO/Src/usbh_audio.c ****     
1310:Middlewares/ST/STM32_USB_Host_Library/Class/AUDIO/Src/usbh_audio.c ****     wLength = 1;
1311:Middlewares/ST/STM32_USB_Host_Library/Class/AUDIO/Src/usbh_audio.c ****     break;
1312:Middlewares/ST/STM32_USB_Host_Library/Class/AUDIO/Src/usbh_audio.c ****   case UAC_FEATURE_UNIT:
1313:Middlewares/ST/STM32_USB_Host_Library/Class/AUDIO/Src/usbh_audio.c ****     UnitID = AUDIO_Handle->class_desc.cs_desc.FeatureUnitDesc[feature]->bUnitID;
1314:Middlewares/ST/STM32_USB_Host_Library/Class/AUDIO/Src/usbh_audio.c ****     InterfaceNum = 0; /*Always zero Control Interface */
1315:Middlewares/ST/STM32_USB_Host_Library/Class/AUDIO/Src/usbh_audio.c ****     wIndex = ( UnitID << 8 ) | InterfaceNum ;
1316:Middlewares/ST/STM32_USB_Host_Library/Class/AUDIO/Src/usbh_audio.c ****     /*holds the CS(control selector ) and CN (channel number)*/
1317:Middlewares/ST/STM32_USB_Host_Library/Class/AUDIO/Src/usbh_audio.c ****     wValue =  (controlSelector << 8) | channel;
1318:Middlewares/ST/STM32_USB_Host_Library/Class/AUDIO/Src/usbh_audio.c ****     wLength = length;
1319:Middlewares/ST/STM32_USB_Host_Library/Class/AUDIO/Src/usbh_audio.c ****     break;
ARM GAS  /tmp/cc7hx4Eu.s 			page 40


1320:Middlewares/ST/STM32_USB_Host_Library/Class/AUDIO/Src/usbh_audio.c ****     
1321:Middlewares/ST/STM32_USB_Host_Library/Class/AUDIO/Src/usbh_audio.c ****   case UAC_OUTPUT_TERMINAL:
1322:Middlewares/ST/STM32_USB_Host_Library/Class/AUDIO/Src/usbh_audio.c ****     UnitID = AUDIO_Handle->class_desc.cs_desc.OutputTerminalDesc[0]->bTerminalID;
1323:Middlewares/ST/STM32_USB_Host_Library/Class/AUDIO/Src/usbh_audio.c ****     InterfaceNum = 0; /*Always zero Control Interface */
1324:Middlewares/ST/STM32_USB_Host_Library/Class/AUDIO/Src/usbh_audio.c ****     wIndex = ( UnitID << 8 ) | InterfaceNum ;
1325:Middlewares/ST/STM32_USB_Host_Library/Class/AUDIO/Src/usbh_audio.c ****     wValue = (COPY_PROTECT_CONTROL << 8 ) ; 
1326:Middlewares/ST/STM32_USB_Host_Library/Class/AUDIO/Src/usbh_audio.c ****     wLength = 1; 
1327:Middlewares/ST/STM32_USB_Host_Library/Class/AUDIO/Src/usbh_audio.c ****     break;
1328:Middlewares/ST/STM32_USB_Host_Library/Class/AUDIO/Src/usbh_audio.c ****   }
1329:Middlewares/ST/STM32_USB_Host_Library/Class/AUDIO/Src/usbh_audio.c ****   
1330:Middlewares/ST/STM32_USB_Host_Library/Class/AUDIO/Src/usbh_audio.c ****   phost->Control.setup.b.bmRequestType = USB_D2H | USB_REQ_RECIPIENT_INTERFACE | \
1331:Middlewares/ST/STM32_USB_Host_Library/Class/AUDIO/Src/usbh_audio.c ****     USB_REQ_TYPE_CLASS;
1332:Middlewares/ST/STM32_USB_Host_Library/Class/AUDIO/Src/usbh_audio.c ****   
1333:Middlewares/ST/STM32_USB_Host_Library/Class/AUDIO/Src/usbh_audio.c ****   phost->Control.setup.b.bRequest = UAC_GET_RES;
1334:Middlewares/ST/STM32_USB_Host_Library/Class/AUDIO/Src/usbh_audio.c ****   phost->Control.setup.b.wValue.w = wValue;
1335:Middlewares/ST/STM32_USB_Host_Library/Class/AUDIO/Src/usbh_audio.c ****   phost->Control.setup.b.wIndex.w = wIndex;
1336:Middlewares/ST/STM32_USB_Host_Library/Class/AUDIO/Src/usbh_audio.c ****   phost->Control.setup.b.wLength.w = wLength; 
1337:Middlewares/ST/STM32_USB_Host_Library/Class/AUDIO/Src/usbh_audio.c ****   
1338:Middlewares/ST/STM32_USB_Host_Library/Class/AUDIO/Src/usbh_audio.c ****   return(USBH_CtlReq(phost, (uint8_t *)(AUDIO_Handle->mem) , wLength ));    
1339:Middlewares/ST/STM32_USB_Host_Library/Class/AUDIO/Src/usbh_audio.c ****   
1340:Middlewares/ST/STM32_USB_Host_Library/Class/AUDIO/Src/usbh_audio.c **** }
1341:Middlewares/ST/STM32_USB_Host_Library/Class/AUDIO/Src/usbh_audio.c **** 
1342:Middlewares/ST/STM32_USB_Host_Library/Class/AUDIO/Src/usbh_audio.c **** /**
1343:Middlewares/ST/STM32_USB_Host_Library/Class/AUDIO/Src/usbh_audio.c ****   * @brief  Handle Get Min request
1344:Middlewares/ST/STM32_USB_Host_Library/Class/AUDIO/Src/usbh_audio.c ****   * @param  phost: Host handle
1345:Middlewares/ST/STM32_USB_Host_Library/Class/AUDIO/Src/usbh_audio.c ****   * @param  subtype: subtype index
1346:Middlewares/ST/STM32_USB_Host_Library/Class/AUDIO/Src/usbh_audio.c ****   * @param  feature: feature index
1347:Middlewares/ST/STM32_USB_Host_Library/Class/AUDIO/Src/usbh_audio.c ****   * @param  controlSelector: control code
1348:Middlewares/ST/STM32_USB_Host_Library/Class/AUDIO/Src/usbh_audio.c ****   * @param  channel: channel index
1349:Middlewares/ST/STM32_USB_Host_Library/Class/AUDIO/Src/usbh_audio.c ****   * @param  length: Command length
1350:Middlewares/ST/STM32_USB_Host_Library/Class/AUDIO/Src/usbh_audio.c ****   * @retval USBH Status
1351:Middlewares/ST/STM32_USB_Host_Library/Class/AUDIO/Src/usbh_audio.c ****   */
1352:Middlewares/ST/STM32_USB_Host_Library/Class/AUDIO/Src/usbh_audio.c **** static USBH_StatusTypeDef USBH_AC_GetMin(USBH_HandleTypeDef *phost, 
1353:Middlewares/ST/STM32_USB_Host_Library/Class/AUDIO/Src/usbh_audio.c ****                                          uint8_t subtype, 
1354:Middlewares/ST/STM32_USB_Host_Library/Class/AUDIO/Src/usbh_audio.c ****                                          uint8_t feature,
1355:Middlewares/ST/STM32_USB_Host_Library/Class/AUDIO/Src/usbh_audio.c ****                                          uint8_t controlSelector,
1356:Middlewares/ST/STM32_USB_Host_Library/Class/AUDIO/Src/usbh_audio.c ****                                          uint8_t channel,
1357:Middlewares/ST/STM32_USB_Host_Library/Class/AUDIO/Src/usbh_audio.c ****                                          uint16_t length)
1358:Middlewares/ST/STM32_USB_Host_Library/Class/AUDIO/Src/usbh_audio.c **** {
1359:Middlewares/ST/STM32_USB_Host_Library/Class/AUDIO/Src/usbh_audio.c ****   uint16_t wValue = 0, wIndex = 0, wLength = 0;
1360:Middlewares/ST/STM32_USB_Host_Library/Class/AUDIO/Src/usbh_audio.c ****   uint8_t UnitID = 0, InterfaceNum = 0;
1361:Middlewares/ST/STM32_USB_Host_Library/Class/AUDIO/Src/usbh_audio.c ****   AUDIO_HandleTypeDef *AUDIO_Handle;
1362:Middlewares/ST/STM32_USB_Host_Library/Class/AUDIO/Src/usbh_audio.c ****   AUDIO_Handle =  (AUDIO_HandleTypeDef*) phost->pActiveClass->pData;
1363:Middlewares/ST/STM32_USB_Host_Library/Class/AUDIO/Src/usbh_audio.c ****   
1364:Middlewares/ST/STM32_USB_Host_Library/Class/AUDIO/Src/usbh_audio.c ****   switch(subtype)
1365:Middlewares/ST/STM32_USB_Host_Library/Class/AUDIO/Src/usbh_audio.c ****   {
1366:Middlewares/ST/STM32_USB_Host_Library/Class/AUDIO/Src/usbh_audio.c ****   case UAC_INPUT_TERMINAL:
1367:Middlewares/ST/STM32_USB_Host_Library/Class/AUDIO/Src/usbh_audio.c ****     UnitID = AUDIO_Handle->class_desc.cs_desc.InputTerminalDesc[0]->bTerminalID;
1368:Middlewares/ST/STM32_USB_Host_Library/Class/AUDIO/Src/usbh_audio.c ****     InterfaceNum = 0; /*Always zero Control Interface */
1369:Middlewares/ST/STM32_USB_Host_Library/Class/AUDIO/Src/usbh_audio.c ****     wIndex = ( UnitID << 8 ) | InterfaceNum ;
1370:Middlewares/ST/STM32_USB_Host_Library/Class/AUDIO/Src/usbh_audio.c ****     wValue = (COPY_PROTECT_CONTROL << 8 ) ;
1371:Middlewares/ST/STM32_USB_Host_Library/Class/AUDIO/Src/usbh_audio.c ****     AUDIO_Handle->mem[0] = 0x00;
1372:Middlewares/ST/STM32_USB_Host_Library/Class/AUDIO/Src/usbh_audio.c ****     
1373:Middlewares/ST/STM32_USB_Host_Library/Class/AUDIO/Src/usbh_audio.c ****     wLength = 1;
1374:Middlewares/ST/STM32_USB_Host_Library/Class/AUDIO/Src/usbh_audio.c ****     break;
1375:Middlewares/ST/STM32_USB_Host_Library/Class/AUDIO/Src/usbh_audio.c ****   case UAC_FEATURE_UNIT:
1376:Middlewares/ST/STM32_USB_Host_Library/Class/AUDIO/Src/usbh_audio.c ****     UnitID = AUDIO_Handle->class_desc.cs_desc.FeatureUnitDesc[feature]->bUnitID;
ARM GAS  /tmp/cc7hx4Eu.s 			page 41


1377:Middlewares/ST/STM32_USB_Host_Library/Class/AUDIO/Src/usbh_audio.c ****     InterfaceNum = 0; /*Always zero Control Interface */
1378:Middlewares/ST/STM32_USB_Host_Library/Class/AUDIO/Src/usbh_audio.c ****     wIndex = ( UnitID << 8 ) | InterfaceNum ;
1379:Middlewares/ST/STM32_USB_Host_Library/Class/AUDIO/Src/usbh_audio.c ****     /*holds the CS(control selector ) and CN (channel number)*/
1380:Middlewares/ST/STM32_USB_Host_Library/Class/AUDIO/Src/usbh_audio.c ****     wValue =  (controlSelector << 8) | channel;
1381:Middlewares/ST/STM32_USB_Host_Library/Class/AUDIO/Src/usbh_audio.c ****     wLength = length;
1382:Middlewares/ST/STM32_USB_Host_Library/Class/AUDIO/Src/usbh_audio.c ****     break;
1383:Middlewares/ST/STM32_USB_Host_Library/Class/AUDIO/Src/usbh_audio.c ****     
1384:Middlewares/ST/STM32_USB_Host_Library/Class/AUDIO/Src/usbh_audio.c ****   case UAC_OUTPUT_TERMINAL:
1385:Middlewares/ST/STM32_USB_Host_Library/Class/AUDIO/Src/usbh_audio.c ****     UnitID = AUDIO_Handle->class_desc.cs_desc.OutputTerminalDesc[0]->bTerminalID;
1386:Middlewares/ST/STM32_USB_Host_Library/Class/AUDIO/Src/usbh_audio.c ****     InterfaceNum = 0; /*Always zero Control Interface */
1387:Middlewares/ST/STM32_USB_Host_Library/Class/AUDIO/Src/usbh_audio.c ****     wIndex = ( UnitID << 8 ) | InterfaceNum ;
1388:Middlewares/ST/STM32_USB_Host_Library/Class/AUDIO/Src/usbh_audio.c ****     wValue = (COPY_PROTECT_CONTROL << 8 ) ; 
1389:Middlewares/ST/STM32_USB_Host_Library/Class/AUDIO/Src/usbh_audio.c ****     wLength = 1; 
1390:Middlewares/ST/STM32_USB_Host_Library/Class/AUDIO/Src/usbh_audio.c ****     break;
1391:Middlewares/ST/STM32_USB_Host_Library/Class/AUDIO/Src/usbh_audio.c ****   }
1392:Middlewares/ST/STM32_USB_Host_Library/Class/AUDIO/Src/usbh_audio.c ****   
1393:Middlewares/ST/STM32_USB_Host_Library/Class/AUDIO/Src/usbh_audio.c ****   phost->Control.setup.b.bmRequestType = USB_D2H | USB_REQ_RECIPIENT_INTERFACE | \
1394:Middlewares/ST/STM32_USB_Host_Library/Class/AUDIO/Src/usbh_audio.c ****     USB_REQ_TYPE_CLASS;
1395:Middlewares/ST/STM32_USB_Host_Library/Class/AUDIO/Src/usbh_audio.c ****   
1396:Middlewares/ST/STM32_USB_Host_Library/Class/AUDIO/Src/usbh_audio.c ****   phost->Control.setup.b.bRequest = UAC_GET_MIN;
1397:Middlewares/ST/STM32_USB_Host_Library/Class/AUDIO/Src/usbh_audio.c ****   phost->Control.setup.b.wValue.w = wValue;
1398:Middlewares/ST/STM32_USB_Host_Library/Class/AUDIO/Src/usbh_audio.c ****   phost->Control.setup.b.wIndex.w = wIndex;
1399:Middlewares/ST/STM32_USB_Host_Library/Class/AUDIO/Src/usbh_audio.c ****   phost->Control.setup.b.wLength.w = wLength; 
1400:Middlewares/ST/STM32_USB_Host_Library/Class/AUDIO/Src/usbh_audio.c ****   
1401:Middlewares/ST/STM32_USB_Host_Library/Class/AUDIO/Src/usbh_audio.c ****   return(USBH_CtlReq(phost, (uint8_t *)(AUDIO_Handle->mem) , wLength ));    
1402:Middlewares/ST/STM32_USB_Host_Library/Class/AUDIO/Src/usbh_audio.c ****   
1403:Middlewares/ST/STM32_USB_Host_Library/Class/AUDIO/Src/usbh_audio.c **** }
1404:Middlewares/ST/STM32_USB_Host_Library/Class/AUDIO/Src/usbh_audio.c **** 
1405:Middlewares/ST/STM32_USB_Host_Library/Class/AUDIO/Src/usbh_audio.c **** /**
1406:Middlewares/ST/STM32_USB_Host_Library/Class/AUDIO/Src/usbh_audio.c ****   * @brief  Handle Set Endpoint Controls Request
1407:Middlewares/ST/STM32_USB_Host_Library/Class/AUDIO/Src/usbh_audio.c ****   * @param  phost: Host handle
1408:Middlewares/ST/STM32_USB_Host_Library/Class/AUDIO/Src/usbh_audio.c ****   * @param  Ep: Endpoint address
1409:Middlewares/ST/STM32_USB_Host_Library/Class/AUDIO/Src/usbh_audio.c ****   * @param  buf: pointer to data
1410:Middlewares/ST/STM32_USB_Host_Library/Class/AUDIO/Src/usbh_audio.c ****   * @retval USBH Status
1411:Middlewares/ST/STM32_USB_Host_Library/Class/AUDIO/Src/usbh_audio.c ****   */
1412:Middlewares/ST/STM32_USB_Host_Library/Class/AUDIO/Src/usbh_audio.c **** static USBH_StatusTypeDef USBH_AUDIO_SetEndpointControls(USBH_HandleTypeDef *phost,
1413:Middlewares/ST/STM32_USB_Host_Library/Class/AUDIO/Src/usbh_audio.c ****                                                uint8_t  Ep,
1414:Middlewares/ST/STM32_USB_Host_Library/Class/AUDIO/Src/usbh_audio.c ****                                                uint8_t *buff) 
1415:Middlewares/ST/STM32_USB_Host_Library/Class/AUDIO/Src/usbh_audio.c **** {
 892              		.loc 1 1415 0
 893              		.cfi_startproc
 894              		@ args = 0, pretend = 0, frame = 0
 895              		@ frame_needed = 0, uses_anonymous_args = 0
 896              	.LVL111:
 897 0000 10B5     		push	{r4, lr}
 898              	.LCFI6:
 899              		.cfi_def_cfa_offset 8
 900              		.cfi_offset 4, -8
 901              		.cfi_offset 14, -4
 902 0002 1446     		mov	r4, r2
 903              	.LVL112:
1416:Middlewares/ST/STM32_USB_Host_Library/Class/AUDIO/Src/usbh_audio.c ****   uint16_t wValue, wIndex, wLength;
1417:Middlewares/ST/STM32_USB_Host_Library/Class/AUDIO/Src/usbh_audio.c ****   
1418:Middlewares/ST/STM32_USB_Host_Library/Class/AUDIO/Src/usbh_audio.c **** 
1419:Middlewares/ST/STM32_USB_Host_Library/Class/AUDIO/Src/usbh_audio.c ****   wValue = SAMPLING_FREQ_CONTROL << 8;
1420:Middlewares/ST/STM32_USB_Host_Library/Class/AUDIO/Src/usbh_audio.c ****   wIndex = Ep; 
1421:Middlewares/ST/STM32_USB_Host_Library/Class/AUDIO/Src/usbh_audio.c ****   wLength = 3; /*length of the frequency parameter*/   
ARM GAS  /tmp/cc7hx4Eu.s 			page 42


1422:Middlewares/ST/STM32_USB_Host_Library/Class/AUDIO/Src/usbh_audio.c ****   
1423:Middlewares/ST/STM32_USB_Host_Library/Class/AUDIO/Src/usbh_audio.c ****   phost->Control.setup.b.bmRequestType = USB_H2D | USB_REQ_RECIPIENT_ENDPOINT | \
 904              		.loc 1 1423 0
 905 0004 2222     		movs	r2, #34
 906              	.LVL113:
 907 0006 0274     		strb	r2, [r0, #16]
1424:Middlewares/ST/STM32_USB_Host_Library/Class/AUDIO/Src/usbh_audio.c ****     USB_REQ_TYPE_CLASS;
1425:Middlewares/ST/STM32_USB_Host_Library/Class/AUDIO/Src/usbh_audio.c ****   
1426:Middlewares/ST/STM32_USB_Host_Library/Class/AUDIO/Src/usbh_audio.c ****   phost->Control.setup.b.bRequest = UAC_SET_CUR;
 908              		.loc 1 1426 0
 909 0008 0122     		movs	r2, #1
 910 000a 4274     		strb	r2, [r0, #17]
1427:Middlewares/ST/STM32_USB_Host_Library/Class/AUDIO/Src/usbh_audio.c ****   phost->Control.setup.b.wValue.w = wValue;
 911              		.loc 1 1427 0
 912 000c 4FF48072 		mov	r2, #256
 913 0010 4282     		strh	r2, [r0, #18]	@ movhi
1428:Middlewares/ST/STM32_USB_Host_Library/Class/AUDIO/Src/usbh_audio.c ****   phost->Control.setup.b.wIndex.w = wIndex;
 914              		.loc 1 1428 0
 915 0012 8182     		strh	r1, [r0, #20]	@ movhi
1429:Middlewares/ST/STM32_USB_Host_Library/Class/AUDIO/Src/usbh_audio.c ****   phost->Control.setup.b.wLength.w = wLength; 
 916              		.loc 1 1429 0
 917 0014 0322     		movs	r2, #3
 918 0016 C282     		strh	r2, [r0, #22]	@ movhi
1430:Middlewares/ST/STM32_USB_Host_Library/Class/AUDIO/Src/usbh_audio.c ****   
1431:Middlewares/ST/STM32_USB_Host_Library/Class/AUDIO/Src/usbh_audio.c ****   return(USBH_CtlReq(phost, (uint8_t *)buff, wLength ));
 919              		.loc 1 1431 0
 920 0018 2146     		mov	r1, r4
 921              	.LVL114:
 922 001a FFF7FEFF 		bl	USBH_CtlReq
 923              	.LVL115:
1432:Middlewares/ST/STM32_USB_Host_Library/Class/AUDIO/Src/usbh_audio.c ****     
1433:Middlewares/ST/STM32_USB_Host_Library/Class/AUDIO/Src/usbh_audio.c **** }
 924              		.loc 1 1433 0
 925 001e 10BD     		pop	{r4, pc}
 926              		.cfi_endproc
 927              	.LFE144:
 929              		.section	.text.USBH_AC_SetCur,"ax",%progbits
 930              		.align	2
 931              		.thumb
 932              		.thumb_func
 934              	USBH_AC_SetCur:
 935              	.LFB139:
1111:Middlewares/ST/STM32_USB_Host_Library/Class/AUDIO/Src/usbh_audio.c ****   uint16_t wValue,wIndex,wLength;
 936              		.loc 1 1111 0
 937              		.cfi_startproc
 938              		@ args = 8, pretend = 0, frame = 0
 939              		@ frame_needed = 0, uses_anonymous_args = 0
 940              	.LVL116:
 941 0000 F8B5     		push	{r3, r4, r5, r6, r7, lr}
 942              	.LCFI7:
 943              		.cfi_def_cfa_offset 24
 944              		.cfi_offset 3, -24
 945              		.cfi_offset 4, -20
 946              		.cfi_offset 5, -16
 947              		.cfi_offset 6, -12
 948              		.cfi_offset 7, -8
 949              		.cfi_offset 14, -4
ARM GAS  /tmp/cc7hx4Eu.s 			page 43


1115:Middlewares/ST/STM32_USB_Host_Library/Class/AUDIO/Src/usbh_audio.c ****   
 950              		.loc 1 1115 0
 951 0002 D0F84445 		ldr	r4, [r0, #1348]
 952 0006 E469     		ldr	r4, [r4, #28]
 953              	.LVL117:
1117:Middlewares/ST/STM32_USB_Host_Library/Class/AUDIO/Src/usbh_audio.c ****   {
 954              		.loc 1 1117 0
 955 0008 0229     		cmp	r1, #2
 956 000a 02D0     		beq	.L82
 957 000c 0629     		cmp	r1, #6
 958 000e 0AD0     		beq	.L83
 959 0010 15E0     		b	.L81
 960              	.L82:
1120:Middlewares/ST/STM32_USB_Host_Library/Class/AUDIO/Src/usbh_audio.c ****     InterfaceNum = 0; /*Always zero Control Interface */
 961              		.loc 1 1120 0
 962 0012 236F     		ldr	r3, [r4, #112]
 963              	.LVL118:
 964 0014 DD78     		ldrb	r5, [r3, #3]	@ zero_extendqisi2
 965              	.LVL119:
1122:Middlewares/ST/STM32_USB_Host_Library/Class/AUDIO/Src/usbh_audio.c ****     wValue = (COPY_PROTECT_CONTROL << 8 ) ;
 966              		.loc 1 1122 0
 967 0016 2D02     		lsls	r5, r5, #8
 968              	.LVL120:
1124:Middlewares/ST/STM32_USB_Host_Library/Class/AUDIO/Src/usbh_audio.c ****     
 969              		.loc 1 1124 0
 970 0018 0023     		movs	r3, #0
 971              	.LVL121:
 972 001a A4F89031 		strh	r3, [r4, #400]	@ movhi
 973              	.LVL122:
1126:Middlewares/ST/STM32_USB_Host_Library/Class/AUDIO/Src/usbh_audio.c ****     break;
 974              		.loc 1 1126 0
 975 001e 0126     		movs	r6, #1
1123:Middlewares/ST/STM32_USB_Host_Library/Class/AUDIO/Src/usbh_audio.c ****     AUDIO_Handle->mem[0] = 0x00;
 976              		.loc 1 1123 0
 977 0020 4FF48077 		mov	r7, #256
1127:Middlewares/ST/STM32_USB_Host_Library/Class/AUDIO/Src/usbh_audio.c ****   case UAC_FEATURE_UNIT:
 978              		.loc 1 1127 0
 979 0024 0BE0     		b	.L81
 980              	.LVL123:
 981              	.L83:
1129:Middlewares/ST/STM32_USB_Host_Library/Class/AUDIO/Src/usbh_audio.c ****     InterfaceNum = 0; /*Always zero Control Interface */
 982              		.loc 1 1129 0
 983 0026 2232     		adds	r2, r2, #34
 984              	.LVL124:
 985 0028 04EB8202 		add	r2, r4, r2, lsl #2
 986 002c 9268     		ldr	r2, [r2, #8]
 987 002e D578     		ldrb	r5, [r2, #3]	@ zero_extendqisi2
 988              	.LVL125:
1131:Middlewares/ST/STM32_USB_Host_Library/Class/AUDIO/Src/usbh_audio.c ****     /*holds the CS(control selector ) and CN (channel number)*/
 989              		.loc 1 1131 0
 990 0030 2D02     		lsls	r5, r5, #8
 991              	.LVL126:
1133:Middlewares/ST/STM32_USB_Host_Library/Class/AUDIO/Src/usbh_audio.c ****     wLength = length;
 992              		.loc 1 1133 0
 993 0032 9DF81870 		ldrb	r7, [sp, #24]	@ zero_extendqisi2
 994 0036 47EA0327 		orr	r7, r7, r3, lsl #8
 995              	.LVL127:
ARM GAS  /tmp/cc7hx4Eu.s 			page 44


1134:Middlewares/ST/STM32_USB_Host_Library/Class/AUDIO/Src/usbh_audio.c ****     break;
 996              		.loc 1 1134 0
 997 003a BDF81C60 		ldrh	r6, [sp, #28]
 998              	.LVL128:
 999              	.L81:
1138:Middlewares/ST/STM32_USB_Host_Library/Class/AUDIO/Src/usbh_audio.c ****     USB_REQ_TYPE_CLASS;
 1000              		.loc 1 1138 0
 1001 003e 2123     		movs	r3, #33
 1002 0040 0374     		strb	r3, [r0, #16]
1141:Middlewares/ST/STM32_USB_Host_Library/Class/AUDIO/Src/usbh_audio.c ****   phost->Control.setup.b.wValue.w = wValue;
 1003              		.loc 1 1141 0
 1004 0042 0123     		movs	r3, #1
 1005 0044 4374     		strb	r3, [r0, #17]
1142:Middlewares/ST/STM32_USB_Host_Library/Class/AUDIO/Src/usbh_audio.c ****   phost->Control.setup.b.wIndex.w = wIndex;
 1006              		.loc 1 1142 0
 1007 0046 4782     		strh	r7, [r0, #18]	@ movhi
1143:Middlewares/ST/STM32_USB_Host_Library/Class/AUDIO/Src/usbh_audio.c ****   phost->Control.setup.b.wLength.w = wLength; 
 1008              		.loc 1 1143 0
 1009 0048 8582     		strh	r5, [r0, #20]	@ movhi
1144:Middlewares/ST/STM32_USB_Host_Library/Class/AUDIO/Src/usbh_audio.c ****   
 1010              		.loc 1 1144 0
 1011 004a C682     		strh	r6, [r0, #22]	@ movhi
1146:Middlewares/ST/STM32_USB_Host_Library/Class/AUDIO/Src/usbh_audio.c ****   
 1012              		.loc 1 1146 0
 1013 004c 3246     		mov	r2, r6
 1014 004e 04F5C871 		add	r1, r4, #400
 1015              	.LVL129:
 1016 0052 FFF7FEFF 		bl	USBH_CtlReq
 1017              	.LVL130:
1148:Middlewares/ST/STM32_USB_Host_Library/Class/AUDIO/Src/usbh_audio.c **** 
 1018              		.loc 1 1148 0
 1019 0056 F8BD     		pop	{r3, r4, r5, r6, r7, pc}
 1020              		.cfi_endproc
 1021              	.LFE139:
 1023              		.section	.text.AUDIO_SetVolume,"ax",%progbits
 1024              		.align	2
 1025              		.thumb
 1026              		.thumb_func
 1028              	AUDIO_SetVolume:
 1029              	.LFB158:
1434:Middlewares/ST/STM32_USB_Host_Library/Class/AUDIO/Src/usbh_audio.c **** 
1435:Middlewares/ST/STM32_USB_Host_Library/Class/AUDIO/Src/usbh_audio.c **** /**
1436:Middlewares/ST/STM32_USB_Host_Library/Class/AUDIO/Src/usbh_audio.c ****   * @brief  Handle Input stream process
1437:Middlewares/ST/STM32_USB_Host_Library/Class/AUDIO/Src/usbh_audio.c ****   * @param  phost: Host handle
1438:Middlewares/ST/STM32_USB_Host_Library/Class/AUDIO/Src/usbh_audio.c ****   * @retval USBH Status
1439:Middlewares/ST/STM32_USB_Host_Library/Class/AUDIO/Src/usbh_audio.c ****   */
1440:Middlewares/ST/STM32_USB_Host_Library/Class/AUDIO/Src/usbh_audio.c **** static USBH_StatusTypeDef USBH_AUDIO_InputStream (USBH_HandleTypeDef *phost)
1441:Middlewares/ST/STM32_USB_Host_Library/Class/AUDIO/Src/usbh_audio.c **** {
1442:Middlewares/ST/STM32_USB_Host_Library/Class/AUDIO/Src/usbh_audio.c ****   USBH_StatusTypeDef status = USBH_BUSY ; 
1443:Middlewares/ST/STM32_USB_Host_Library/Class/AUDIO/Src/usbh_audio.c ****   
1444:Middlewares/ST/STM32_USB_Host_Library/Class/AUDIO/Src/usbh_audio.c ****   return status;  
1445:Middlewares/ST/STM32_USB_Host_Library/Class/AUDIO/Src/usbh_audio.c **** }
1446:Middlewares/ST/STM32_USB_Host_Library/Class/AUDIO/Src/usbh_audio.c **** 
1447:Middlewares/ST/STM32_USB_Host_Library/Class/AUDIO/Src/usbh_audio.c **** /**
1448:Middlewares/ST/STM32_USB_Host_Library/Class/AUDIO/Src/usbh_audio.c ****   * @brief  Handle HID Control process
1449:Middlewares/ST/STM32_USB_Host_Library/Class/AUDIO/Src/usbh_audio.c ****   * @param  phost: Host handle
1450:Middlewares/ST/STM32_USB_Host_Library/Class/AUDIO/Src/usbh_audio.c ****   * @retval USBH Status
ARM GAS  /tmp/cc7hx4Eu.s 			page 45


1451:Middlewares/ST/STM32_USB_Host_Library/Class/AUDIO/Src/usbh_audio.c ****   */
1452:Middlewares/ST/STM32_USB_Host_Library/Class/AUDIO/Src/usbh_audio.c **** static USBH_StatusTypeDef USBH_AUDIO_Control (USBH_HandleTypeDef *phost)
1453:Middlewares/ST/STM32_USB_Host_Library/Class/AUDIO/Src/usbh_audio.c **** {
1454:Middlewares/ST/STM32_USB_Host_Library/Class/AUDIO/Src/usbh_audio.c ****   USBH_StatusTypeDef status = USBH_BUSY ;
1455:Middlewares/ST/STM32_USB_Host_Library/Class/AUDIO/Src/usbh_audio.c ****   AUDIO_HandleTypeDef *AUDIO_Handle =  (AUDIO_HandleTypeDef*) phost->pActiveClass->pData; 
1456:Middlewares/ST/STM32_USB_Host_Library/Class/AUDIO/Src/usbh_audio.c ****   uint16_t attribute  = 0; 
1457:Middlewares/ST/STM32_USB_Host_Library/Class/AUDIO/Src/usbh_audio.c ****  
1458:Middlewares/ST/STM32_USB_Host_Library/Class/AUDIO/Src/usbh_audio.c ****   
1459:Middlewares/ST/STM32_USB_Host_Library/Class/AUDIO/Src/usbh_audio.c ****   switch(AUDIO_Handle->control_state)
1460:Middlewares/ST/STM32_USB_Host_Library/Class/AUDIO/Src/usbh_audio.c ****   {
1461:Middlewares/ST/STM32_USB_Host_Library/Class/AUDIO/Src/usbh_audio.c ****   case AUDIO_CONTROL_INIT:
1462:Middlewares/ST/STM32_USB_Host_Library/Class/AUDIO/Src/usbh_audio.c ****     if((phost->Timer & 1) == 0)
1463:Middlewares/ST/STM32_USB_Host_Library/Class/AUDIO/Src/usbh_audio.c ****     {
1464:Middlewares/ST/STM32_USB_Host_Library/Class/AUDIO/Src/usbh_audio.c ****       AUDIO_Handle->control.timer = phost->Timer;
1465:Middlewares/ST/STM32_USB_Host_Library/Class/AUDIO/Src/usbh_audio.c ****       USBH_InterruptReceiveData(phost, 
1466:Middlewares/ST/STM32_USB_Host_Library/Class/AUDIO/Src/usbh_audio.c ****                                 (uint8_t *)(AUDIO_Handle->mem),
1467:Middlewares/ST/STM32_USB_Host_Library/Class/AUDIO/Src/usbh_audio.c ****                                 AUDIO_Handle->control.EpSize,
1468:Middlewares/ST/STM32_USB_Host_Library/Class/AUDIO/Src/usbh_audio.c ****                                 AUDIO_Handle->control.Pipe);
1469:Middlewares/ST/STM32_USB_Host_Library/Class/AUDIO/Src/usbh_audio.c ****       
1470:Middlewares/ST/STM32_USB_Host_Library/Class/AUDIO/Src/usbh_audio.c ****       AUDIO_Handle->temp_feature  = AUDIO_Handle->headphone.asociated_feature;
1471:Middlewares/ST/STM32_USB_Host_Library/Class/AUDIO/Src/usbh_audio.c ****       AUDIO_Handle->temp_channels = AUDIO_Handle->headphone.asociated_channels;
1472:Middlewares/ST/STM32_USB_Host_Library/Class/AUDIO/Src/usbh_audio.c ****       
1473:Middlewares/ST/STM32_USB_Host_Library/Class/AUDIO/Src/usbh_audio.c ****       AUDIO_Handle->control_state = AUDIO_CONTROL_CHANGE ;
1474:Middlewares/ST/STM32_USB_Host_Library/Class/AUDIO/Src/usbh_audio.c ****     }
1475:Middlewares/ST/STM32_USB_Host_Library/Class/AUDIO/Src/usbh_audio.c ****     break;
1476:Middlewares/ST/STM32_USB_Host_Library/Class/AUDIO/Src/usbh_audio.c ****   case AUDIO_CONTROL_CHANGE:
1477:Middlewares/ST/STM32_USB_Host_Library/Class/AUDIO/Src/usbh_audio.c ****     if(USBH_LL_GetURBState(phost , AUDIO_Handle->control.Pipe) == USBH_URB_DONE)
1478:Middlewares/ST/STM32_USB_Host_Library/Class/AUDIO/Src/usbh_audio.c ****     {
1479:Middlewares/ST/STM32_USB_Host_Library/Class/AUDIO/Src/usbh_audio.c ****       attribute = LE16(&AUDIO_Handle->mem[0]); 
1480:Middlewares/ST/STM32_USB_Host_Library/Class/AUDIO/Src/usbh_audio.c ****       if(USBH_AUDIO_SetControlAttribute (phost, attribute) == USBH_BUSY)
1481:Middlewares/ST/STM32_USB_Host_Library/Class/AUDIO/Src/usbh_audio.c ****       {
1482:Middlewares/ST/STM32_USB_Host_Library/Class/AUDIO/Src/usbh_audio.c ****         break;
1483:Middlewares/ST/STM32_USB_Host_Library/Class/AUDIO/Src/usbh_audio.c ****       }
1484:Middlewares/ST/STM32_USB_Host_Library/Class/AUDIO/Src/usbh_audio.c ****     }
1485:Middlewares/ST/STM32_USB_Host_Library/Class/AUDIO/Src/usbh_audio.c ****     
1486:Middlewares/ST/STM32_USB_Host_Library/Class/AUDIO/Src/usbh_audio.c ****     if(( phost->Timer - AUDIO_Handle->control.timer) >= AUDIO_Handle->control.Poll)
1487:Middlewares/ST/STM32_USB_Host_Library/Class/AUDIO/Src/usbh_audio.c ****     {
1488:Middlewares/ST/STM32_USB_Host_Library/Class/AUDIO/Src/usbh_audio.c ****       AUDIO_Handle->control.timer = phost->Timer;
1489:Middlewares/ST/STM32_USB_Host_Library/Class/AUDIO/Src/usbh_audio.c ****       
1490:Middlewares/ST/STM32_USB_Host_Library/Class/AUDIO/Src/usbh_audio.c ****       USBH_InterruptReceiveData(phost, 
1491:Middlewares/ST/STM32_USB_Host_Library/Class/AUDIO/Src/usbh_audio.c ****                                 (uint8_t *)(AUDIO_Handle->mem),
1492:Middlewares/ST/STM32_USB_Host_Library/Class/AUDIO/Src/usbh_audio.c ****                                 AUDIO_Handle->control.EpSize,
1493:Middlewares/ST/STM32_USB_Host_Library/Class/AUDIO/Src/usbh_audio.c ****                                 AUDIO_Handle->control.Pipe);      
1494:Middlewares/ST/STM32_USB_Host_Library/Class/AUDIO/Src/usbh_audio.c ****       
1495:Middlewares/ST/STM32_USB_Host_Library/Class/AUDIO/Src/usbh_audio.c ****     }
1496:Middlewares/ST/STM32_USB_Host_Library/Class/AUDIO/Src/usbh_audio.c ****     break;
1497:Middlewares/ST/STM32_USB_Host_Library/Class/AUDIO/Src/usbh_audio.c ****     
1498:Middlewares/ST/STM32_USB_Host_Library/Class/AUDIO/Src/usbh_audio.c ****   case AUDIO_CONTROL_VOLUME_UP:
1499:Middlewares/ST/STM32_USB_Host_Library/Class/AUDIO/Src/usbh_audio.c ****        if( USBH_AUDIO_SetControlAttribute (phost, 1) == USBH_OK)
1500:Middlewares/ST/STM32_USB_Host_Library/Class/AUDIO/Src/usbh_audio.c ****        {
1501:Middlewares/ST/STM32_USB_Host_Library/Class/AUDIO/Src/usbh_audio.c ****          AUDIO_Handle->control_state = AUDIO_CONTROL_INIT;
1502:Middlewares/ST/STM32_USB_Host_Library/Class/AUDIO/Src/usbh_audio.c ****         status = USBH_OK; 
1503:Middlewares/ST/STM32_USB_Host_Library/Class/AUDIO/Src/usbh_audio.c ****        }
1504:Middlewares/ST/STM32_USB_Host_Library/Class/AUDIO/Src/usbh_audio.c ****        break;
1505:Middlewares/ST/STM32_USB_Host_Library/Class/AUDIO/Src/usbh_audio.c ****        
1506:Middlewares/ST/STM32_USB_Host_Library/Class/AUDIO/Src/usbh_audio.c ****   case AUDIO_CONTROL_VOLUME_DOWN:
1507:Middlewares/ST/STM32_USB_Host_Library/Class/AUDIO/Src/usbh_audio.c ****        if( USBH_AUDIO_SetControlAttribute (phost, 2) == USBH_OK)
ARM GAS  /tmp/cc7hx4Eu.s 			page 46


1508:Middlewares/ST/STM32_USB_Host_Library/Class/AUDIO/Src/usbh_audio.c ****        {
1509:Middlewares/ST/STM32_USB_Host_Library/Class/AUDIO/Src/usbh_audio.c ****          AUDIO_Handle->control_state = AUDIO_CONTROL_INIT;         
1510:Middlewares/ST/STM32_USB_Host_Library/Class/AUDIO/Src/usbh_audio.c ****          status = USBH_OK; 
1511:Middlewares/ST/STM32_USB_Host_Library/Class/AUDIO/Src/usbh_audio.c ****        }     
1512:Middlewares/ST/STM32_USB_Host_Library/Class/AUDIO/Src/usbh_audio.c ****        break;
1513:Middlewares/ST/STM32_USB_Host_Library/Class/AUDIO/Src/usbh_audio.c ****        
1514:Middlewares/ST/STM32_USB_Host_Library/Class/AUDIO/Src/usbh_audio.c ****   case AUDIO_CONTROL_IDLE:
1515:Middlewares/ST/STM32_USB_Host_Library/Class/AUDIO/Src/usbh_audio.c ****   default:  
1516:Middlewares/ST/STM32_USB_Host_Library/Class/AUDIO/Src/usbh_audio.c ****     break; 
1517:Middlewares/ST/STM32_USB_Host_Library/Class/AUDIO/Src/usbh_audio.c ****   }
1518:Middlewares/ST/STM32_USB_Host_Library/Class/AUDIO/Src/usbh_audio.c ****     
1519:Middlewares/ST/STM32_USB_Host_Library/Class/AUDIO/Src/usbh_audio.c ****   return status;  
1520:Middlewares/ST/STM32_USB_Host_Library/Class/AUDIO/Src/usbh_audio.c **** }
1521:Middlewares/ST/STM32_USB_Host_Library/Class/AUDIO/Src/usbh_audio.c **** 
1522:Middlewares/ST/STM32_USB_Host_Library/Class/AUDIO/Src/usbh_audio.c **** /**
1523:Middlewares/ST/STM32_USB_Host_Library/Class/AUDIO/Src/usbh_audio.c ****   * @brief  Handle Output stream process
1524:Middlewares/ST/STM32_USB_Host_Library/Class/AUDIO/Src/usbh_audio.c ****   * @param  phost: Host handle
1525:Middlewares/ST/STM32_USB_Host_Library/Class/AUDIO/Src/usbh_audio.c ****   * @retval USBH Status
1526:Middlewares/ST/STM32_USB_Host_Library/Class/AUDIO/Src/usbh_audio.c ****   */
1527:Middlewares/ST/STM32_USB_Host_Library/Class/AUDIO/Src/usbh_audio.c **** static USBH_StatusTypeDef USBH_AUDIO_OutputStream (USBH_HandleTypeDef *phost)
1528:Middlewares/ST/STM32_USB_Host_Library/Class/AUDIO/Src/usbh_audio.c **** {
1529:Middlewares/ST/STM32_USB_Host_Library/Class/AUDIO/Src/usbh_audio.c ****   USBH_StatusTypeDef status = USBH_BUSY ;
1530:Middlewares/ST/STM32_USB_Host_Library/Class/AUDIO/Src/usbh_audio.c ****   AUDIO_HandleTypeDef *AUDIO_Handle =  (AUDIO_HandleTypeDef*) phost->pActiveClass->pData;   
1531:Middlewares/ST/STM32_USB_Host_Library/Class/AUDIO/Src/usbh_audio.c ****   uint8_t *buff;
1532:Middlewares/ST/STM32_USB_Host_Library/Class/AUDIO/Src/usbh_audio.c ****   
1533:Middlewares/ST/STM32_USB_Host_Library/Class/AUDIO/Src/usbh_audio.c ****   
1534:Middlewares/ST/STM32_USB_Host_Library/Class/AUDIO/Src/usbh_audio.c ****   switch(AUDIO_Handle->play_state)
1535:Middlewares/ST/STM32_USB_Host_Library/Class/AUDIO/Src/usbh_audio.c ****   {
1536:Middlewares/ST/STM32_USB_Host_Library/Class/AUDIO/Src/usbh_audio.c ****   case AUDIO_PLAYBACK_INIT:
1537:Middlewares/ST/STM32_USB_Host_Library/Class/AUDIO/Src/usbh_audio.c ****     
1538:Middlewares/ST/STM32_USB_Host_Library/Class/AUDIO/Src/usbh_audio.c ****     if( AUDIO_Handle->class_desc.as_desc[AUDIO_Handle->headphone.asociated_as].FormatTypeDesc->bSam
1539:Middlewares/ST/STM32_USB_Host_Library/Class/AUDIO/Src/usbh_audio.c ****     {
1540:Middlewares/ST/STM32_USB_Host_Library/Class/AUDIO/Src/usbh_audio.c ****       AUDIO_Handle->play_state = AUDIO_PLAYBACK_SET_EP_FREQ;        
1541:Middlewares/ST/STM32_USB_Host_Library/Class/AUDIO/Src/usbh_audio.c ****     }
1542:Middlewares/ST/STM32_USB_Host_Library/Class/AUDIO/Src/usbh_audio.c ****     else
1543:Middlewares/ST/STM32_USB_Host_Library/Class/AUDIO/Src/usbh_audio.c ****     {
1544:Middlewares/ST/STM32_USB_Host_Library/Class/AUDIO/Src/usbh_audio.c ****       AUDIO_Handle->play_state = AUDIO_PLAYBACK_SET_EP;
1545:Middlewares/ST/STM32_USB_Host_Library/Class/AUDIO/Src/usbh_audio.c ****     }
1546:Middlewares/ST/STM32_USB_Host_Library/Class/AUDIO/Src/usbh_audio.c **** #if (USBH_USE_OS == 1)
1547:Middlewares/ST/STM32_USB_Host_Library/Class/AUDIO/Src/usbh_audio.c ****       osMessagePut ( phost->os_event, USBH_URB_EVENT, 0);
1548:Middlewares/ST/STM32_USB_Host_Library/Class/AUDIO/Src/usbh_audio.c **** #endif  
1549:Middlewares/ST/STM32_USB_Host_Library/Class/AUDIO/Src/usbh_audio.c ****     break;
1550:Middlewares/ST/STM32_USB_Host_Library/Class/AUDIO/Src/usbh_audio.c ****     
1551:Middlewares/ST/STM32_USB_Host_Library/Class/AUDIO/Src/usbh_audio.c ****   case AUDIO_PLAYBACK_SET_EP_FREQ:
1552:Middlewares/ST/STM32_USB_Host_Library/Class/AUDIO/Src/usbh_audio.c **** 
1553:Middlewares/ST/STM32_USB_Host_Library/Class/AUDIO/Src/usbh_audio.c ****     buff = (uint8_t*)AUDIO_Handle->class_desc.as_desc[AUDIO_Handle->headphone.asociated_as].FormatT
1554:Middlewares/ST/STM32_USB_Host_Library/Class/AUDIO/Src/usbh_audio.c **** 
1555:Middlewares/ST/STM32_USB_Host_Library/Class/AUDIO/Src/usbh_audio.c ****     status = USBH_AUDIO_SetEndpointControls(phost, AUDIO_Handle->headphone.Ep, buff);
1556:Middlewares/ST/STM32_USB_Host_Library/Class/AUDIO/Src/usbh_audio.c ****     if(status == USBH_OK) 
1557:Middlewares/ST/STM32_USB_Host_Library/Class/AUDIO/Src/usbh_audio.c ****     {
1558:Middlewares/ST/STM32_USB_Host_Library/Class/AUDIO/Src/usbh_audio.c ****       AUDIO_Handle->play_state = AUDIO_PLAYBACK_IDLE;    
1559:Middlewares/ST/STM32_USB_Host_Library/Class/AUDIO/Src/usbh_audio.c ****     }
1560:Middlewares/ST/STM32_USB_Host_Library/Class/AUDIO/Src/usbh_audio.c ****     break;
1561:Middlewares/ST/STM32_USB_Host_Library/Class/AUDIO/Src/usbh_audio.c ****     
1562:Middlewares/ST/STM32_USB_Host_Library/Class/AUDIO/Src/usbh_audio.c ****   case AUDIO_PLAYBACK_SET_EP:
1563:Middlewares/ST/STM32_USB_Host_Library/Class/AUDIO/Src/usbh_audio.c ****     buff = (uint8_t *)&AUDIO_Handle->headphone.frequency;    
1564:Middlewares/ST/STM32_USB_Host_Library/Class/AUDIO/Src/usbh_audio.c ****     status = USBH_AUDIO_SetEndpointControls(phost,AUDIO_Handle->headphone.Ep, buff);
ARM GAS  /tmp/cc7hx4Eu.s 			page 47


1565:Middlewares/ST/STM32_USB_Host_Library/Class/AUDIO/Src/usbh_audio.c ****     if(status == USBH_OK)
1566:Middlewares/ST/STM32_USB_Host_Library/Class/AUDIO/Src/usbh_audio.c ****     {
1567:Middlewares/ST/STM32_USB_Host_Library/Class/AUDIO/Src/usbh_audio.c ****       AUDIO_Handle->play_state = AUDIO_PLAYBACK_IDLE;
1568:Middlewares/ST/STM32_USB_Host_Library/Class/AUDIO/Src/usbh_audio.c ****       USBH_AUDIO_FrequencySet(phost);
1569:Middlewares/ST/STM32_USB_Host_Library/Class/AUDIO/Src/usbh_audio.c ****     }
1570:Middlewares/ST/STM32_USB_Host_Library/Class/AUDIO/Src/usbh_audio.c ****     break;
1571:Middlewares/ST/STM32_USB_Host_Library/Class/AUDIO/Src/usbh_audio.c ****   case AUDIO_PLAYBACK_IDLE:
1572:Middlewares/ST/STM32_USB_Host_Library/Class/AUDIO/Src/usbh_audio.c **** #if (USBH_USE_OS == 1)
1573:Middlewares/ST/STM32_USB_Host_Library/Class/AUDIO/Src/usbh_audio.c ****       osMessagePut ( phost->os_event, USBH_CLASS_EVENT, 0);
1574:Middlewares/ST/STM32_USB_Host_Library/Class/AUDIO/Src/usbh_audio.c **** #endif      
1575:Middlewares/ST/STM32_USB_Host_Library/Class/AUDIO/Src/usbh_audio.c ****     status = USBH_OK;
1576:Middlewares/ST/STM32_USB_Host_Library/Class/AUDIO/Src/usbh_audio.c ****     break;
1577:Middlewares/ST/STM32_USB_Host_Library/Class/AUDIO/Src/usbh_audio.c ****     
1578:Middlewares/ST/STM32_USB_Host_Library/Class/AUDIO/Src/usbh_audio.c ****   case AUDIO_PLAYBACK_PLAY:
1579:Middlewares/ST/STM32_USB_Host_Library/Class/AUDIO/Src/usbh_audio.c ****     USBH_AUDIO_Transmit(phost);
1580:Middlewares/ST/STM32_USB_Host_Library/Class/AUDIO/Src/usbh_audio.c ****     status = USBH_OK;
1581:Middlewares/ST/STM32_USB_Host_Library/Class/AUDIO/Src/usbh_audio.c ****     break;
1582:Middlewares/ST/STM32_USB_Host_Library/Class/AUDIO/Src/usbh_audio.c ****     
1583:Middlewares/ST/STM32_USB_Host_Library/Class/AUDIO/Src/usbh_audio.c ****   default:
1584:Middlewares/ST/STM32_USB_Host_Library/Class/AUDIO/Src/usbh_audio.c ****     break;
1585:Middlewares/ST/STM32_USB_Host_Library/Class/AUDIO/Src/usbh_audio.c ****   }  
1586:Middlewares/ST/STM32_USB_Host_Library/Class/AUDIO/Src/usbh_audio.c ****   
1587:Middlewares/ST/STM32_USB_Host_Library/Class/AUDIO/Src/usbh_audio.c ****   return status;
1588:Middlewares/ST/STM32_USB_Host_Library/Class/AUDIO/Src/usbh_audio.c **** }
1589:Middlewares/ST/STM32_USB_Host_Library/Class/AUDIO/Src/usbh_audio.c **** 
1590:Middlewares/ST/STM32_USB_Host_Library/Class/AUDIO/Src/usbh_audio.c **** /**
1591:Middlewares/ST/STM32_USB_Host_Library/Class/AUDIO/Src/usbh_audio.c ****   * @brief  Handle Transmission process
1592:Middlewares/ST/STM32_USB_Host_Library/Class/AUDIO/Src/usbh_audio.c ****   * @param  phost: Host handle
1593:Middlewares/ST/STM32_USB_Host_Library/Class/AUDIO/Src/usbh_audio.c ****   * @retval USBH Status
1594:Middlewares/ST/STM32_USB_Host_Library/Class/AUDIO/Src/usbh_audio.c ****   */
1595:Middlewares/ST/STM32_USB_Host_Library/Class/AUDIO/Src/usbh_audio.c **** static USBH_StatusTypeDef USBH_AUDIO_Transmit (USBH_HandleTypeDef *phost)
1596:Middlewares/ST/STM32_USB_Host_Library/Class/AUDIO/Src/usbh_audio.c **** {
1597:Middlewares/ST/STM32_USB_Host_Library/Class/AUDIO/Src/usbh_audio.c ****   USBH_StatusTypeDef status = USBH_BUSY ;
1598:Middlewares/ST/STM32_USB_Host_Library/Class/AUDIO/Src/usbh_audio.c ****   AUDIO_HandleTypeDef *AUDIO_Handle =  (AUDIO_HandleTypeDef*) phost->pActiveClass->pData;   
1599:Middlewares/ST/STM32_USB_Host_Library/Class/AUDIO/Src/usbh_audio.c ****   
1600:Middlewares/ST/STM32_USB_Host_Library/Class/AUDIO/Src/usbh_audio.c ****   switch(AUDIO_Handle->processing_state)
1601:Middlewares/ST/STM32_USB_Host_Library/Class/AUDIO/Src/usbh_audio.c ****   {
1602:Middlewares/ST/STM32_USB_Host_Library/Class/AUDIO/Src/usbh_audio.c ****   case AUDIO_DATA_START_OUT:
1603:Middlewares/ST/STM32_USB_Host_Library/Class/AUDIO/Src/usbh_audio.c ****     /* Sync with start of Even Frame */
1604:Middlewares/ST/STM32_USB_Host_Library/Class/AUDIO/Src/usbh_audio.c ****     if((phost->Timer & 1) == 0)
1605:Middlewares/ST/STM32_USB_Host_Library/Class/AUDIO/Src/usbh_audio.c ****     {
1606:Middlewares/ST/STM32_USB_Host_Library/Class/AUDIO/Src/usbh_audio.c ****       AUDIO_Handle->headphone.timer = phost->Timer;
1607:Middlewares/ST/STM32_USB_Host_Library/Class/AUDIO/Src/usbh_audio.c ****       AUDIO_Handle->processing_state = AUDIO_DATA_OUT;
1608:Middlewares/ST/STM32_USB_Host_Library/Class/AUDIO/Src/usbh_audio.c ****       USBH_IsocSendData(phost, 
1609:Middlewares/ST/STM32_USB_Host_Library/Class/AUDIO/Src/usbh_audio.c ****                        AUDIO_Handle->headphone.buf,
1610:Middlewares/ST/STM32_USB_Host_Library/Class/AUDIO/Src/usbh_audio.c ****                        AUDIO_Handle->headphone.frame_length,
1611:Middlewares/ST/STM32_USB_Host_Library/Class/AUDIO/Src/usbh_audio.c ****                        AUDIO_Handle->headphone.Pipe);
1612:Middlewares/ST/STM32_USB_Host_Library/Class/AUDIO/Src/usbh_audio.c ****       
1613:Middlewares/ST/STM32_USB_Host_Library/Class/AUDIO/Src/usbh_audio.c ****       AUDIO_Handle->headphone.partial_ptr = AUDIO_Handle->headphone.frame_length; 
1614:Middlewares/ST/STM32_USB_Host_Library/Class/AUDIO/Src/usbh_audio.c ****       AUDIO_Handle->headphone.global_ptr = AUDIO_Handle->headphone.frame_length; 
1615:Middlewares/ST/STM32_USB_Host_Library/Class/AUDIO/Src/usbh_audio.c ****       AUDIO_Handle->headphone.cbuf = AUDIO_Handle->headphone.buf;
1616:Middlewares/ST/STM32_USB_Host_Library/Class/AUDIO/Src/usbh_audio.c ****     }
1617:Middlewares/ST/STM32_USB_Host_Library/Class/AUDIO/Src/usbh_audio.c ****     else
1618:Middlewares/ST/STM32_USB_Host_Library/Class/AUDIO/Src/usbh_audio.c ****     {
1619:Middlewares/ST/STM32_USB_Host_Library/Class/AUDIO/Src/usbh_audio.c **** #if (USBH_USE_OS == 1)
1620:Middlewares/ST/STM32_USB_Host_Library/Class/AUDIO/Src/usbh_audio.c ****       osDelay(1);
1621:Middlewares/ST/STM32_USB_Host_Library/Class/AUDIO/Src/usbh_audio.c ****       osMessagePut ( phost->os_event, USBH_CLASS_EVENT, 0);
ARM GAS  /tmp/cc7hx4Eu.s 			page 48


1622:Middlewares/ST/STM32_USB_Host_Library/Class/AUDIO/Src/usbh_audio.c **** #endif  
1623:Middlewares/ST/STM32_USB_Host_Library/Class/AUDIO/Src/usbh_audio.c ****     }
1624:Middlewares/ST/STM32_USB_Host_Library/Class/AUDIO/Src/usbh_audio.c ****     break;
1625:Middlewares/ST/STM32_USB_Host_Library/Class/AUDIO/Src/usbh_audio.c ****     
1626:Middlewares/ST/STM32_USB_Host_Library/Class/AUDIO/Src/usbh_audio.c ****   case AUDIO_DATA_OUT:
1627:Middlewares/ST/STM32_USB_Host_Library/Class/AUDIO/Src/usbh_audio.c ****     if((USBH_LL_GetURBState(phost , AUDIO_Handle->headphone.Pipe) == USBH_URB_DONE)&&
1628:Middlewares/ST/STM32_USB_Host_Library/Class/AUDIO/Src/usbh_audio.c ****        (( phost->Timer - AUDIO_Handle->headphone.timer) >= AUDIO_Handle->headphone.Poll))
1629:Middlewares/ST/STM32_USB_Host_Library/Class/AUDIO/Src/usbh_audio.c ****     {
1630:Middlewares/ST/STM32_USB_Host_Library/Class/AUDIO/Src/usbh_audio.c ****       AUDIO_Handle->headphone.timer = phost->Timer;
1631:Middlewares/ST/STM32_USB_Host_Library/Class/AUDIO/Src/usbh_audio.c ****       
1632:Middlewares/ST/STM32_USB_Host_Library/Class/AUDIO/Src/usbh_audio.c ****       if(AUDIO_Handle->control.supported == 1)
1633:Middlewares/ST/STM32_USB_Host_Library/Class/AUDIO/Src/usbh_audio.c ****       {
1634:Middlewares/ST/STM32_USB_Host_Library/Class/AUDIO/Src/usbh_audio.c ****         USBH_AUDIO_Control (phost);
1635:Middlewares/ST/STM32_USB_Host_Library/Class/AUDIO/Src/usbh_audio.c ****       }
1636:Middlewares/ST/STM32_USB_Host_Library/Class/AUDIO/Src/usbh_audio.c ****       
1637:Middlewares/ST/STM32_USB_Host_Library/Class/AUDIO/Src/usbh_audio.c ****       if(AUDIO_Handle->headphone.global_ptr <= AUDIO_Handle->headphone.total_length)
1638:Middlewares/ST/STM32_USB_Host_Library/Class/AUDIO/Src/usbh_audio.c ****       {
1639:Middlewares/ST/STM32_USB_Host_Library/Class/AUDIO/Src/usbh_audio.c ****         USBH_IsocSendData(phost, 
1640:Middlewares/ST/STM32_USB_Host_Library/Class/AUDIO/Src/usbh_audio.c ****                           AUDIO_Handle->headphone.cbuf,
1641:Middlewares/ST/STM32_USB_Host_Library/Class/AUDIO/Src/usbh_audio.c ****                           AUDIO_Handle->headphone.frame_length,
1642:Middlewares/ST/STM32_USB_Host_Library/Class/AUDIO/Src/usbh_audio.c ****                           AUDIO_Handle->headphone.Pipe);
1643:Middlewares/ST/STM32_USB_Host_Library/Class/AUDIO/Src/usbh_audio.c ****         
1644:Middlewares/ST/STM32_USB_Host_Library/Class/AUDIO/Src/usbh_audio.c ****         AUDIO_Handle->headphone.cbuf += AUDIO_Handle->headphone.frame_length;
1645:Middlewares/ST/STM32_USB_Host_Library/Class/AUDIO/Src/usbh_audio.c ****         AUDIO_Handle->headphone.partial_ptr += AUDIO_Handle->headphone.frame_length;
1646:Middlewares/ST/STM32_USB_Host_Library/Class/AUDIO/Src/usbh_audio.c ****         AUDIO_Handle->headphone.global_ptr += AUDIO_Handle->headphone.frame_length;
1647:Middlewares/ST/STM32_USB_Host_Library/Class/AUDIO/Src/usbh_audio.c ****       }
1648:Middlewares/ST/STM32_USB_Host_Library/Class/AUDIO/Src/usbh_audio.c ****       else
1649:Middlewares/ST/STM32_USB_Host_Library/Class/AUDIO/Src/usbh_audio.c ****       {
1650:Middlewares/ST/STM32_USB_Host_Library/Class/AUDIO/Src/usbh_audio.c ****        AUDIO_Handle->headphone.partial_ptr = 0xFFFFFFFF;
1651:Middlewares/ST/STM32_USB_Host_Library/Class/AUDIO/Src/usbh_audio.c ****        AUDIO_Handle->play_state = AUDIO_PLAYBACK_IDLE;
1652:Middlewares/ST/STM32_USB_Host_Library/Class/AUDIO/Src/usbh_audio.c ****        USBH_AUDIO_BufferEmptyCallback(phost);
1653:Middlewares/ST/STM32_USB_Host_Library/Class/AUDIO/Src/usbh_audio.c ****       }
1654:Middlewares/ST/STM32_USB_Host_Library/Class/AUDIO/Src/usbh_audio.c ****     }
1655:Middlewares/ST/STM32_USB_Host_Library/Class/AUDIO/Src/usbh_audio.c ****     break;
1656:Middlewares/ST/STM32_USB_Host_Library/Class/AUDIO/Src/usbh_audio.c ****   }
1657:Middlewares/ST/STM32_USB_Host_Library/Class/AUDIO/Src/usbh_audio.c ****   return status;
1658:Middlewares/ST/STM32_USB_Host_Library/Class/AUDIO/Src/usbh_audio.c **** }
1659:Middlewares/ST/STM32_USB_Host_Library/Class/AUDIO/Src/usbh_audio.c **** 
1660:Middlewares/ST/STM32_USB_Host_Library/Class/AUDIO/Src/usbh_audio.c **** /**
1661:Middlewares/ST/STM32_USB_Host_Library/Class/AUDIO/Src/usbh_audio.c ****   * @brief  USBH_AUDIO_SetFrequency 
1662:Middlewares/ST/STM32_USB_Host_Library/Class/AUDIO/Src/usbh_audio.c ****   *         Set Audio sampling parameters
1663:Middlewares/ST/STM32_USB_Host_Library/Class/AUDIO/Src/usbh_audio.c ****   * @param  phost: Host handle
1664:Middlewares/ST/STM32_USB_Host_Library/Class/AUDIO/Src/usbh_audio.c ****   * @param  SampleRate: Sample Rate
1665:Middlewares/ST/STM32_USB_Host_Library/Class/AUDIO/Src/usbh_audio.c ****   * @param  NbrChannels: Number of Channels
1666:Middlewares/ST/STM32_USB_Host_Library/Class/AUDIO/Src/usbh_audio.c ****   * @param  BitPerSample: Bit Per Sample
1667:Middlewares/ST/STM32_USB_Host_Library/Class/AUDIO/Src/usbh_audio.c ****   * @retval USBH Status
1668:Middlewares/ST/STM32_USB_Host_Library/Class/AUDIO/Src/usbh_audio.c ****   */
1669:Middlewares/ST/STM32_USB_Host_Library/Class/AUDIO/Src/usbh_audio.c **** USBH_StatusTypeDef USBH_AUDIO_SetFrequency (USBH_HandleTypeDef *phost, 
1670:Middlewares/ST/STM32_USB_Host_Library/Class/AUDIO/Src/usbh_audio.c ****                                             uint16_t SampleRate,
1671:Middlewares/ST/STM32_USB_Host_Library/Class/AUDIO/Src/usbh_audio.c ****                                             uint8_t  NbrChannels,
1672:Middlewares/ST/STM32_USB_Host_Library/Class/AUDIO/Src/usbh_audio.c ****                                             uint8_t  BitPerSample)
1673:Middlewares/ST/STM32_USB_Host_Library/Class/AUDIO/Src/usbh_audio.c **** {
1674:Middlewares/ST/STM32_USB_Host_Library/Class/AUDIO/Src/usbh_audio.c ****   USBH_StatusTypeDef Status = USBH_BUSY;
1675:Middlewares/ST/STM32_USB_Host_Library/Class/AUDIO/Src/usbh_audio.c ****   AUDIO_HandleTypeDef *AUDIO_Handle; 
1676:Middlewares/ST/STM32_USB_Host_Library/Class/AUDIO/Src/usbh_audio.c ****   uint8_t              index; 
1677:Middlewares/ST/STM32_USB_Host_Library/Class/AUDIO/Src/usbh_audio.c ****   uint8_t              change_freq = FALSE;
1678:Middlewares/ST/STM32_USB_Host_Library/Class/AUDIO/Src/usbh_audio.c ****   uint32_t             freq_min, freq_max;
ARM GAS  /tmp/cc7hx4Eu.s 			page 49


1679:Middlewares/ST/STM32_USB_Host_Library/Class/AUDIO/Src/usbh_audio.c ****   uint8_t              num_supported_freq;
1680:Middlewares/ST/STM32_USB_Host_Library/Class/AUDIO/Src/usbh_audio.c ****   
1681:Middlewares/ST/STM32_USB_Host_Library/Class/AUDIO/Src/usbh_audio.c ****   if(phost->gState == HOST_CLASS)
1682:Middlewares/ST/STM32_USB_Host_Library/Class/AUDIO/Src/usbh_audio.c ****   {
1683:Middlewares/ST/STM32_USB_Host_Library/Class/AUDIO/Src/usbh_audio.c ****     AUDIO_Handle =  (AUDIO_HandleTypeDef*) phost->pActiveClass->pData;
1684:Middlewares/ST/STM32_USB_Host_Library/Class/AUDIO/Src/usbh_audio.c ****     if(AUDIO_Handle->play_state == AUDIO_PLAYBACK_IDLE)
1685:Middlewares/ST/STM32_USB_Host_Library/Class/AUDIO/Src/usbh_audio.c ****     {
1686:Middlewares/ST/STM32_USB_Host_Library/Class/AUDIO/Src/usbh_audio.c ****       
1687:Middlewares/ST/STM32_USB_Host_Library/Class/AUDIO/Src/usbh_audio.c ****       if(AUDIO_Handle->class_desc.as_desc[AUDIO_Handle->headphone.asociated_as].FormatTypeDesc->bSa
1688:Middlewares/ST/STM32_USB_Host_Library/Class/AUDIO/Src/usbh_audio.c ****       { 
1689:Middlewares/ST/STM32_USB_Host_Library/Class/AUDIO/Src/usbh_audio.c ****         freq_min = LE24(AUDIO_Handle->class_desc.as_desc[AUDIO_Handle->headphone.asociated_as].Form
1690:Middlewares/ST/STM32_USB_Host_Library/Class/AUDIO/Src/usbh_audio.c ****         freq_max = LE24(AUDIO_Handle->class_desc.as_desc[AUDIO_Handle->headphone.asociated_as].Form
1691:Middlewares/ST/STM32_USB_Host_Library/Class/AUDIO/Src/usbh_audio.c ****         
1692:Middlewares/ST/STM32_USB_Host_Library/Class/AUDIO/Src/usbh_audio.c ****         if(( SampleRate >= freq_min)&& (SampleRate <= freq_max))
1693:Middlewares/ST/STM32_USB_Host_Library/Class/AUDIO/Src/usbh_audio.c ****         {
1694:Middlewares/ST/STM32_USB_Host_Library/Class/AUDIO/Src/usbh_audio.c ****           change_freq = TRUE;
1695:Middlewares/ST/STM32_USB_Host_Library/Class/AUDIO/Src/usbh_audio.c ****         }
1696:Middlewares/ST/STM32_USB_Host_Library/Class/AUDIO/Src/usbh_audio.c ****       }
1697:Middlewares/ST/STM32_USB_Host_Library/Class/AUDIO/Src/usbh_audio.c ****       else
1698:Middlewares/ST/STM32_USB_Host_Library/Class/AUDIO/Src/usbh_audio.c ****       {    
1699:Middlewares/ST/STM32_USB_Host_Library/Class/AUDIO/Src/usbh_audio.c ****         
1700:Middlewares/ST/STM32_USB_Host_Library/Class/AUDIO/Src/usbh_audio.c ****         num_supported_freq = (AUDIO_Handle->class_desc.as_desc[AUDIO_Handle->headphone.asociated_as
1701:Middlewares/ST/STM32_USB_Host_Library/Class/AUDIO/Src/usbh_audio.c ****         
1702:Middlewares/ST/STM32_USB_Host_Library/Class/AUDIO/Src/usbh_audio.c ****         
1703:Middlewares/ST/STM32_USB_Host_Library/Class/AUDIO/Src/usbh_audio.c ****         for(index = 0; index < num_supported_freq; index++)
1704:Middlewares/ST/STM32_USB_Host_Library/Class/AUDIO/Src/usbh_audio.c ****         {
1705:Middlewares/ST/STM32_USB_Host_Library/Class/AUDIO/Src/usbh_audio.c ****           if(SampleRate == LE24(AUDIO_Handle->class_desc.as_desc[AUDIO_Handle->headphone.asociated_
1706:Middlewares/ST/STM32_USB_Host_Library/Class/AUDIO/Src/usbh_audio.c ****           {
1707:Middlewares/ST/STM32_USB_Host_Library/Class/AUDIO/Src/usbh_audio.c ****             change_freq = TRUE;            
1708:Middlewares/ST/STM32_USB_Host_Library/Class/AUDIO/Src/usbh_audio.c ****             break;
1709:Middlewares/ST/STM32_USB_Host_Library/Class/AUDIO/Src/usbh_audio.c ****           }
1710:Middlewares/ST/STM32_USB_Host_Library/Class/AUDIO/Src/usbh_audio.c ****         }  
1711:Middlewares/ST/STM32_USB_Host_Library/Class/AUDIO/Src/usbh_audio.c ****       }      
1712:Middlewares/ST/STM32_USB_Host_Library/Class/AUDIO/Src/usbh_audio.c ****       
1713:Middlewares/ST/STM32_USB_Host_Library/Class/AUDIO/Src/usbh_audio.c ****       if(change_freq == TRUE)
1714:Middlewares/ST/STM32_USB_Host_Library/Class/AUDIO/Src/usbh_audio.c ****       {
1715:Middlewares/ST/STM32_USB_Host_Library/Class/AUDIO/Src/usbh_audio.c ****         AUDIO_Handle->headphone.frequency = SampleRate;
1716:Middlewares/ST/STM32_USB_Host_Library/Class/AUDIO/Src/usbh_audio.c ****         AUDIO_Handle->headphone.frame_length    = (SampleRate * BitPerSample * NbrChannels) / 8000;
1717:Middlewares/ST/STM32_USB_Host_Library/Class/AUDIO/Src/usbh_audio.c ****         AUDIO_Handle->play_state = AUDIO_PLAYBACK_SET_EP;
1718:Middlewares/ST/STM32_USB_Host_Library/Class/AUDIO/Src/usbh_audio.c ****         Status = USBH_OK;  
1719:Middlewares/ST/STM32_USB_Host_Library/Class/AUDIO/Src/usbh_audio.c ****         
1720:Middlewares/ST/STM32_USB_Host_Library/Class/AUDIO/Src/usbh_audio.c ****       }
1721:Middlewares/ST/STM32_USB_Host_Library/Class/AUDIO/Src/usbh_audio.c ****     }
1722:Middlewares/ST/STM32_USB_Host_Library/Class/AUDIO/Src/usbh_audio.c ****   }
1723:Middlewares/ST/STM32_USB_Host_Library/Class/AUDIO/Src/usbh_audio.c ****    return Status;  
1724:Middlewares/ST/STM32_USB_Host_Library/Class/AUDIO/Src/usbh_audio.c **** }
1725:Middlewares/ST/STM32_USB_Host_Library/Class/AUDIO/Src/usbh_audio.c **** 
1726:Middlewares/ST/STM32_USB_Host_Library/Class/AUDIO/Src/usbh_audio.c **** /**
1727:Middlewares/ST/STM32_USB_Host_Library/Class/AUDIO/Src/usbh_audio.c ****   * @brief  USBH_AUDIO_Play 
1728:Middlewares/ST/STM32_USB_Host_Library/Class/AUDIO/Src/usbh_audio.c ****   *         Start playback process
1729:Middlewares/ST/STM32_USB_Host_Library/Class/AUDIO/Src/usbh_audio.c ****   * @param  phost: Host handle
1730:Middlewares/ST/STM32_USB_Host_Library/Class/AUDIO/Src/usbh_audio.c ****   * @param  buf: pointer to raw audio data
1731:Middlewares/ST/STM32_USB_Host_Library/Class/AUDIO/Src/usbh_audio.c ****   * @param  length: total length of the audio data
1732:Middlewares/ST/STM32_USB_Host_Library/Class/AUDIO/Src/usbh_audio.c ****   * @retval USBH Status
1733:Middlewares/ST/STM32_USB_Host_Library/Class/AUDIO/Src/usbh_audio.c ****   */
1734:Middlewares/ST/STM32_USB_Host_Library/Class/AUDIO/Src/usbh_audio.c **** USBH_StatusTypeDef USBH_AUDIO_Play (USBH_HandleTypeDef *phost, uint8_t *buf, uint32_t length)
1735:Middlewares/ST/STM32_USB_Host_Library/Class/AUDIO/Src/usbh_audio.c **** {
ARM GAS  /tmp/cc7hx4Eu.s 			page 50


1736:Middlewares/ST/STM32_USB_Host_Library/Class/AUDIO/Src/usbh_audio.c ****   USBH_StatusTypeDef Status = USBH_FAIL;
1737:Middlewares/ST/STM32_USB_Host_Library/Class/AUDIO/Src/usbh_audio.c ****   AUDIO_HandleTypeDef *AUDIO_Handle; 
1738:Middlewares/ST/STM32_USB_Host_Library/Class/AUDIO/Src/usbh_audio.c ****   
1739:Middlewares/ST/STM32_USB_Host_Library/Class/AUDIO/Src/usbh_audio.c ****   if(phost->gState == HOST_CLASS)
1740:Middlewares/ST/STM32_USB_Host_Library/Class/AUDIO/Src/usbh_audio.c ****   {
1741:Middlewares/ST/STM32_USB_Host_Library/Class/AUDIO/Src/usbh_audio.c ****     AUDIO_Handle =  (AUDIO_HandleTypeDef*) phost->pActiveClass->pData;
1742:Middlewares/ST/STM32_USB_Host_Library/Class/AUDIO/Src/usbh_audio.c ****     if(AUDIO_Handle->play_state == AUDIO_PLAYBACK_IDLE)
1743:Middlewares/ST/STM32_USB_Host_Library/Class/AUDIO/Src/usbh_audio.c ****     {
1744:Middlewares/ST/STM32_USB_Host_Library/Class/AUDIO/Src/usbh_audio.c ****       AUDIO_Handle->headphone.buf = buf;
1745:Middlewares/ST/STM32_USB_Host_Library/Class/AUDIO/Src/usbh_audio.c ****       AUDIO_Handle->headphone.total_length = length;
1746:Middlewares/ST/STM32_USB_Host_Library/Class/AUDIO/Src/usbh_audio.c ****       AUDIO_Handle->play_state = AUDIO_PLAYBACK_PLAY;
1747:Middlewares/ST/STM32_USB_Host_Library/Class/AUDIO/Src/usbh_audio.c ****       AUDIO_Handle->control_state = AUDIO_CONTROL_INIT;
1748:Middlewares/ST/STM32_USB_Host_Library/Class/AUDIO/Src/usbh_audio.c ****       AUDIO_Handle->processing_state = AUDIO_DATA_START_OUT;
1749:Middlewares/ST/STM32_USB_Host_Library/Class/AUDIO/Src/usbh_audio.c ****       Status = USBH_OK;
1750:Middlewares/ST/STM32_USB_Host_Library/Class/AUDIO/Src/usbh_audio.c **** #if (USBH_USE_OS == 1)
1751:Middlewares/ST/STM32_USB_Host_Library/Class/AUDIO/Src/usbh_audio.c ****       osMessagePut ( phost->os_event, USBH_CLASS_EVENT, 0);
1752:Middlewares/ST/STM32_USB_Host_Library/Class/AUDIO/Src/usbh_audio.c **** #endif        
1753:Middlewares/ST/STM32_USB_Host_Library/Class/AUDIO/Src/usbh_audio.c ****     }
1754:Middlewares/ST/STM32_USB_Host_Library/Class/AUDIO/Src/usbh_audio.c ****   }
1755:Middlewares/ST/STM32_USB_Host_Library/Class/AUDIO/Src/usbh_audio.c ****   return Status;  
1756:Middlewares/ST/STM32_USB_Host_Library/Class/AUDIO/Src/usbh_audio.c **** }
1757:Middlewares/ST/STM32_USB_Host_Library/Class/AUDIO/Src/usbh_audio.c **** 
1758:Middlewares/ST/STM32_USB_Host_Library/Class/AUDIO/Src/usbh_audio.c **** /**
1759:Middlewares/ST/STM32_USB_Host_Library/Class/AUDIO/Src/usbh_audio.c ****   * @brief  USBH_AUDIO_Pause 
1760:Middlewares/ST/STM32_USB_Host_Library/Class/AUDIO/Src/usbh_audio.c ****   *         Stop the playback process
1761:Middlewares/ST/STM32_USB_Host_Library/Class/AUDIO/Src/usbh_audio.c ****   * @param  phost: Host handle
1762:Middlewares/ST/STM32_USB_Host_Library/Class/AUDIO/Src/usbh_audio.c ****   * @retval USBH Status
1763:Middlewares/ST/STM32_USB_Host_Library/Class/AUDIO/Src/usbh_audio.c ****   */
1764:Middlewares/ST/STM32_USB_Host_Library/Class/AUDIO/Src/usbh_audio.c **** USBH_StatusTypeDef USBH_AUDIO_Stop (USBH_HandleTypeDef *phost)
1765:Middlewares/ST/STM32_USB_Host_Library/Class/AUDIO/Src/usbh_audio.c **** {
1766:Middlewares/ST/STM32_USB_Host_Library/Class/AUDIO/Src/usbh_audio.c ****   USBH_StatusTypeDef Status = USBH_FAIL;
1767:Middlewares/ST/STM32_USB_Host_Library/Class/AUDIO/Src/usbh_audio.c ****   Status = USBH_AUDIO_Suspend(phost);
1768:Middlewares/ST/STM32_USB_Host_Library/Class/AUDIO/Src/usbh_audio.c ****   return Status;  
1769:Middlewares/ST/STM32_USB_Host_Library/Class/AUDIO/Src/usbh_audio.c **** }
1770:Middlewares/ST/STM32_USB_Host_Library/Class/AUDIO/Src/usbh_audio.c **** 
1771:Middlewares/ST/STM32_USB_Host_Library/Class/AUDIO/Src/usbh_audio.c **** /**
1772:Middlewares/ST/STM32_USB_Host_Library/Class/AUDIO/Src/usbh_audio.c ****   * @brief  USBH_AUDIO_Suspend 
1773:Middlewares/ST/STM32_USB_Host_Library/Class/AUDIO/Src/usbh_audio.c ****   *         Suspend the playback process
1774:Middlewares/ST/STM32_USB_Host_Library/Class/AUDIO/Src/usbh_audio.c ****   * @param  phost: Host handle
1775:Middlewares/ST/STM32_USB_Host_Library/Class/AUDIO/Src/usbh_audio.c ****   * @retval USBH Status
1776:Middlewares/ST/STM32_USB_Host_Library/Class/AUDIO/Src/usbh_audio.c ****   */
1777:Middlewares/ST/STM32_USB_Host_Library/Class/AUDIO/Src/usbh_audio.c **** USBH_StatusTypeDef USBH_AUDIO_Suspend (USBH_HandleTypeDef *phost)
1778:Middlewares/ST/STM32_USB_Host_Library/Class/AUDIO/Src/usbh_audio.c **** {
1779:Middlewares/ST/STM32_USB_Host_Library/Class/AUDIO/Src/usbh_audio.c ****   USBH_StatusTypeDef Status = USBH_FAIL;
1780:Middlewares/ST/STM32_USB_Host_Library/Class/AUDIO/Src/usbh_audio.c ****   AUDIO_HandleTypeDef *AUDIO_Handle; 
1781:Middlewares/ST/STM32_USB_Host_Library/Class/AUDIO/Src/usbh_audio.c ****   
1782:Middlewares/ST/STM32_USB_Host_Library/Class/AUDIO/Src/usbh_audio.c ****   if(phost->gState == HOST_CLASS)
1783:Middlewares/ST/STM32_USB_Host_Library/Class/AUDIO/Src/usbh_audio.c ****   {
1784:Middlewares/ST/STM32_USB_Host_Library/Class/AUDIO/Src/usbh_audio.c ****     AUDIO_Handle =  (AUDIO_HandleTypeDef*) phost->pActiveClass->pData;
1785:Middlewares/ST/STM32_USB_Host_Library/Class/AUDIO/Src/usbh_audio.c ****     if(AUDIO_Handle->play_state == AUDIO_PLAYBACK_PLAY)
1786:Middlewares/ST/STM32_USB_Host_Library/Class/AUDIO/Src/usbh_audio.c ****     {
1787:Middlewares/ST/STM32_USB_Host_Library/Class/AUDIO/Src/usbh_audio.c ****       AUDIO_Handle->control_state = AUDIO_CONTROL_IDLE;
1788:Middlewares/ST/STM32_USB_Host_Library/Class/AUDIO/Src/usbh_audio.c ****       AUDIO_Handle->play_state = AUDIO_PLAYBACK_IDLE;
1789:Middlewares/ST/STM32_USB_Host_Library/Class/AUDIO/Src/usbh_audio.c ****       Status = USBH_OK;      
1790:Middlewares/ST/STM32_USB_Host_Library/Class/AUDIO/Src/usbh_audio.c ****     }
1791:Middlewares/ST/STM32_USB_Host_Library/Class/AUDIO/Src/usbh_audio.c ****   }
1792:Middlewares/ST/STM32_USB_Host_Library/Class/AUDIO/Src/usbh_audio.c ****   return Status;  
ARM GAS  /tmp/cc7hx4Eu.s 			page 51


1793:Middlewares/ST/STM32_USB_Host_Library/Class/AUDIO/Src/usbh_audio.c **** }
1794:Middlewares/ST/STM32_USB_Host_Library/Class/AUDIO/Src/usbh_audio.c **** /**
1795:Middlewares/ST/STM32_USB_Host_Library/Class/AUDIO/Src/usbh_audio.c ****   * @brief  USBH_AUDIO_Resume 
1796:Middlewares/ST/STM32_USB_Host_Library/Class/AUDIO/Src/usbh_audio.c ****   *         Resume the playback process
1797:Middlewares/ST/STM32_USB_Host_Library/Class/AUDIO/Src/usbh_audio.c ****   * @param  phost: Host handle
1798:Middlewares/ST/STM32_USB_Host_Library/Class/AUDIO/Src/usbh_audio.c ****   * @retval USBH Status
1799:Middlewares/ST/STM32_USB_Host_Library/Class/AUDIO/Src/usbh_audio.c ****   */
1800:Middlewares/ST/STM32_USB_Host_Library/Class/AUDIO/Src/usbh_audio.c **** USBH_StatusTypeDef USBH_AUDIO_Resume (USBH_HandleTypeDef *phost)
1801:Middlewares/ST/STM32_USB_Host_Library/Class/AUDIO/Src/usbh_audio.c **** {
1802:Middlewares/ST/STM32_USB_Host_Library/Class/AUDIO/Src/usbh_audio.c ****   USBH_StatusTypeDef Status = USBH_FAIL;
1803:Middlewares/ST/STM32_USB_Host_Library/Class/AUDIO/Src/usbh_audio.c ****   AUDIO_HandleTypeDef *AUDIO_Handle; 
1804:Middlewares/ST/STM32_USB_Host_Library/Class/AUDIO/Src/usbh_audio.c ****   
1805:Middlewares/ST/STM32_USB_Host_Library/Class/AUDIO/Src/usbh_audio.c ****   if(phost->gState == HOST_CLASS)
1806:Middlewares/ST/STM32_USB_Host_Library/Class/AUDIO/Src/usbh_audio.c ****   {
1807:Middlewares/ST/STM32_USB_Host_Library/Class/AUDIO/Src/usbh_audio.c ****     AUDIO_Handle =  (AUDIO_HandleTypeDef*) phost->pActiveClass->pData;
1808:Middlewares/ST/STM32_USB_Host_Library/Class/AUDIO/Src/usbh_audio.c ****     if(AUDIO_Handle->play_state == AUDIO_PLAYBACK_IDLE)
1809:Middlewares/ST/STM32_USB_Host_Library/Class/AUDIO/Src/usbh_audio.c ****     {
1810:Middlewares/ST/STM32_USB_Host_Library/Class/AUDIO/Src/usbh_audio.c ****       AUDIO_Handle->control_state = AUDIO_CONTROL_INIT;
1811:Middlewares/ST/STM32_USB_Host_Library/Class/AUDIO/Src/usbh_audio.c ****       AUDIO_Handle->play_state = AUDIO_PLAYBACK_PLAY;
1812:Middlewares/ST/STM32_USB_Host_Library/Class/AUDIO/Src/usbh_audio.c ****     }
1813:Middlewares/ST/STM32_USB_Host_Library/Class/AUDIO/Src/usbh_audio.c ****   }
1814:Middlewares/ST/STM32_USB_Host_Library/Class/AUDIO/Src/usbh_audio.c ****   return Status;  
1815:Middlewares/ST/STM32_USB_Host_Library/Class/AUDIO/Src/usbh_audio.c **** }
1816:Middlewares/ST/STM32_USB_Host_Library/Class/AUDIO/Src/usbh_audio.c **** /**
1817:Middlewares/ST/STM32_USB_Host_Library/Class/AUDIO/Src/usbh_audio.c ****   * @brief  USBH_AUDIO_GetOutOffset 
1818:Middlewares/ST/STM32_USB_Host_Library/Class/AUDIO/Src/usbh_audio.c ****   *         return the current buffer pointer for OUT process
1819:Middlewares/ST/STM32_USB_Host_Library/Class/AUDIO/Src/usbh_audio.c ****   * @param  phost: Host handle
1820:Middlewares/ST/STM32_USB_Host_Library/Class/AUDIO/Src/usbh_audio.c ****   * @retval USBH Status
1821:Middlewares/ST/STM32_USB_Host_Library/Class/AUDIO/Src/usbh_audio.c ****   */
1822:Middlewares/ST/STM32_USB_Host_Library/Class/AUDIO/Src/usbh_audio.c **** int32_t USBH_AUDIO_GetOutOffset (USBH_HandleTypeDef *phost)
1823:Middlewares/ST/STM32_USB_Host_Library/Class/AUDIO/Src/usbh_audio.c **** {
1824:Middlewares/ST/STM32_USB_Host_Library/Class/AUDIO/Src/usbh_audio.c ****   AUDIO_HandleTypeDef *AUDIO_Handle; 
1825:Middlewares/ST/STM32_USB_Host_Library/Class/AUDIO/Src/usbh_audio.c ****   
1826:Middlewares/ST/STM32_USB_Host_Library/Class/AUDIO/Src/usbh_audio.c ****   if(phost->gState == HOST_CLASS)
1827:Middlewares/ST/STM32_USB_Host_Library/Class/AUDIO/Src/usbh_audio.c ****   {
1828:Middlewares/ST/STM32_USB_Host_Library/Class/AUDIO/Src/usbh_audio.c ****     AUDIO_Handle =  (AUDIO_HandleTypeDef*) phost->pActiveClass->pData;
1829:Middlewares/ST/STM32_USB_Host_Library/Class/AUDIO/Src/usbh_audio.c ****     if(AUDIO_Handle->play_state == AUDIO_PLAYBACK_PLAY)
1830:Middlewares/ST/STM32_USB_Host_Library/Class/AUDIO/Src/usbh_audio.c ****     {
1831:Middlewares/ST/STM32_USB_Host_Library/Class/AUDIO/Src/usbh_audio.c ****       return AUDIO_Handle->headphone.partial_ptr;
1832:Middlewares/ST/STM32_USB_Host_Library/Class/AUDIO/Src/usbh_audio.c ****     }
1833:Middlewares/ST/STM32_USB_Host_Library/Class/AUDIO/Src/usbh_audio.c ****   }
1834:Middlewares/ST/STM32_USB_Host_Library/Class/AUDIO/Src/usbh_audio.c ****   return -1;  
1835:Middlewares/ST/STM32_USB_Host_Library/Class/AUDIO/Src/usbh_audio.c **** }
1836:Middlewares/ST/STM32_USB_Host_Library/Class/AUDIO/Src/usbh_audio.c **** 
1837:Middlewares/ST/STM32_USB_Host_Library/Class/AUDIO/Src/usbh_audio.c **** /**
1838:Middlewares/ST/STM32_USB_Host_Library/Class/AUDIO/Src/usbh_audio.c ****   * @brief  USBH_AUDIO_ChangeOutBuffer 
1839:Middlewares/ST/STM32_USB_Host_Library/Class/AUDIO/Src/usbh_audio.c ****   *         Change audio data buffer address
1840:Middlewares/ST/STM32_USB_Host_Library/Class/AUDIO/Src/usbh_audio.c ****   * @param  phost: Host handle
1841:Middlewares/ST/STM32_USB_Host_Library/Class/AUDIO/Src/usbh_audio.c ****   * @param  buf: buffer address
1842:Middlewares/ST/STM32_USB_Host_Library/Class/AUDIO/Src/usbh_audio.c ****   * @retval USBH Status
1843:Middlewares/ST/STM32_USB_Host_Library/Class/AUDIO/Src/usbh_audio.c ****   */
1844:Middlewares/ST/STM32_USB_Host_Library/Class/AUDIO/Src/usbh_audio.c **** USBH_StatusTypeDef USBH_AUDIO_ChangeOutBuffer (USBH_HandleTypeDef *phost, uint8_t *buf)
1845:Middlewares/ST/STM32_USB_Host_Library/Class/AUDIO/Src/usbh_audio.c **** {
1846:Middlewares/ST/STM32_USB_Host_Library/Class/AUDIO/Src/usbh_audio.c ****   USBH_StatusTypeDef Status = USBH_FAIL;
1847:Middlewares/ST/STM32_USB_Host_Library/Class/AUDIO/Src/usbh_audio.c ****   AUDIO_HandleTypeDef *AUDIO_Handle; 
1848:Middlewares/ST/STM32_USB_Host_Library/Class/AUDIO/Src/usbh_audio.c ****   
1849:Middlewares/ST/STM32_USB_Host_Library/Class/AUDIO/Src/usbh_audio.c ****   if(phost->gState == HOST_CLASS)
ARM GAS  /tmp/cc7hx4Eu.s 			page 52


1850:Middlewares/ST/STM32_USB_Host_Library/Class/AUDIO/Src/usbh_audio.c ****   {
1851:Middlewares/ST/STM32_USB_Host_Library/Class/AUDIO/Src/usbh_audio.c ****     AUDIO_Handle =  (AUDIO_HandleTypeDef*) phost->pActiveClass->pData;
1852:Middlewares/ST/STM32_USB_Host_Library/Class/AUDIO/Src/usbh_audio.c ****     if(AUDIO_Handle->play_state == AUDIO_PLAYBACK_PLAY)
1853:Middlewares/ST/STM32_USB_Host_Library/Class/AUDIO/Src/usbh_audio.c ****     {
1854:Middlewares/ST/STM32_USB_Host_Library/Class/AUDIO/Src/usbh_audio.c ****       if(AUDIO_Handle->headphone.buf <= buf)
1855:Middlewares/ST/STM32_USB_Host_Library/Class/AUDIO/Src/usbh_audio.c ****       {
1856:Middlewares/ST/STM32_USB_Host_Library/Class/AUDIO/Src/usbh_audio.c ****         AUDIO_Handle->headphone.cbuf = buf;
1857:Middlewares/ST/STM32_USB_Host_Library/Class/AUDIO/Src/usbh_audio.c ****         if ( AUDIO_Handle->headphone.buf == buf)
1858:Middlewares/ST/STM32_USB_Host_Library/Class/AUDIO/Src/usbh_audio.c ****         {
1859:Middlewares/ST/STM32_USB_Host_Library/Class/AUDIO/Src/usbh_audio.c ****           AUDIO_Handle->headphone.partial_ptr = 0;
1860:Middlewares/ST/STM32_USB_Host_Library/Class/AUDIO/Src/usbh_audio.c ****         }
1861:Middlewares/ST/STM32_USB_Host_Library/Class/AUDIO/Src/usbh_audio.c ****         Status = USBH_OK;  
1862:Middlewares/ST/STM32_USB_Host_Library/Class/AUDIO/Src/usbh_audio.c ****       }    
1863:Middlewares/ST/STM32_USB_Host_Library/Class/AUDIO/Src/usbh_audio.c ****     }
1864:Middlewares/ST/STM32_USB_Host_Library/Class/AUDIO/Src/usbh_audio.c ****   }
1865:Middlewares/ST/STM32_USB_Host_Library/Class/AUDIO/Src/usbh_audio.c ****   return Status;  
1866:Middlewares/ST/STM32_USB_Host_Library/Class/AUDIO/Src/usbh_audio.c **** }
1867:Middlewares/ST/STM32_USB_Host_Library/Class/AUDIO/Src/usbh_audio.c **** 
1868:Middlewares/ST/STM32_USB_Host_Library/Class/AUDIO/Src/usbh_audio.c **** /**
1869:Middlewares/ST/STM32_USB_Host_Library/Class/AUDIO/Src/usbh_audio.c ****   * @brief  USBH_AUDIO_SetControlAttribute 
1870:Middlewares/ST/STM32_USB_Host_Library/Class/AUDIO/Src/usbh_audio.c ****   *         Set Control Attribute
1871:Middlewares/ST/STM32_USB_Host_Library/Class/AUDIO/Src/usbh_audio.c ****   * @param  phost: Host handle
1872:Middlewares/ST/STM32_USB_Host_Library/Class/AUDIO/Src/usbh_audio.c ****   * @param  attrib: control attribute
1873:Middlewares/ST/STM32_USB_Host_Library/Class/AUDIO/Src/usbh_audio.c ****   * @retval USBH Status
1874:Middlewares/ST/STM32_USB_Host_Library/Class/AUDIO/Src/usbh_audio.c ****   */
1875:Middlewares/ST/STM32_USB_Host_Library/Class/AUDIO/Src/usbh_audio.c **** static USBH_StatusTypeDef USBH_AUDIO_SetControlAttribute (USBH_HandleTypeDef *phost, uint8_t attrib
1876:Middlewares/ST/STM32_USB_Host_Library/Class/AUDIO/Src/usbh_audio.c **** {
1877:Middlewares/ST/STM32_USB_Host_Library/Class/AUDIO/Src/usbh_audio.c ****   USBH_StatusTypeDef status = USBH_BUSY ;
1878:Middlewares/ST/STM32_USB_Host_Library/Class/AUDIO/Src/usbh_audio.c ****   AUDIO_HandleTypeDef *AUDIO_Handle; 
1879:Middlewares/ST/STM32_USB_Host_Library/Class/AUDIO/Src/usbh_audio.c **** 
1880:Middlewares/ST/STM32_USB_Host_Library/Class/AUDIO/Src/usbh_audio.c ****   
1881:Middlewares/ST/STM32_USB_Host_Library/Class/AUDIO/Src/usbh_audio.c ****   AUDIO_Handle = (AUDIO_HandleTypeDef*) phost->pActiveClass->pData;
1882:Middlewares/ST/STM32_USB_Host_Library/Class/AUDIO/Src/usbh_audio.c ****   
1883:Middlewares/ST/STM32_USB_Host_Library/Class/AUDIO/Src/usbh_audio.c ****   switch (attrib)
1884:Middlewares/ST/STM32_USB_Host_Library/Class/AUDIO/Src/usbh_audio.c ****   {
1885:Middlewares/ST/STM32_USB_Host_Library/Class/AUDIO/Src/usbh_audio.c ****   case 0x01:
1886:Middlewares/ST/STM32_USB_Host_Library/Class/AUDIO/Src/usbh_audio.c ****     AUDIO_Handle->headphone.attribute.volume += AUDIO_Handle->headphone.attribute.resolution;
1887:Middlewares/ST/STM32_USB_Host_Library/Class/AUDIO/Src/usbh_audio.c ****     break;
1888:Middlewares/ST/STM32_USB_Host_Library/Class/AUDIO/Src/usbh_audio.c ****     
1889:Middlewares/ST/STM32_USB_Host_Library/Class/AUDIO/Src/usbh_audio.c ****   case 0x02:
1890:Middlewares/ST/STM32_USB_Host_Library/Class/AUDIO/Src/usbh_audio.c ****     AUDIO_Handle->headphone.attribute.volume -= AUDIO_Handle->headphone.attribute.resolution; 
1891:Middlewares/ST/STM32_USB_Host_Library/Class/AUDIO/Src/usbh_audio.c ****     break;
1892:Middlewares/ST/STM32_USB_Host_Library/Class/AUDIO/Src/usbh_audio.c ****     
