ARM GAS  /tmp/cc7hx4Eu.s 			page 1


   1              		.syntax unified
   2              		.cpu cortex-m4
   3              		.eabi_attribute 27, 1
   4              		.eabi_attribute 28, 1
   5              		.fpu fpv4-sp-d16
   6              		.eabi_attribute 20, 1
   7              		.eabi_attribute 21, 1
   8              		.eabi_attribute 23, 3
   9              		.eabi_attribute 24, 1
  10              		.eabi_attribute 25, 1
  11              		.eabi_attribute 26, 1
  12              		.eabi_attribute 30, 1
  13              		.eabi_attribute 34, 1
  14              		.eabi_attribute 18, 4
  15              		.thumb
  16              		.syntax unified
  17              		.file	"usbh_audio.c"
  18              		.text
  19              	.Ltext0:
  20              		.cfi_sections	.debug_frame
  21              		.section	.text.USBH_AUDIO_SOFProcess,"ax",%progbits
  22              		.align	2
  23              		.thumb
  24              		.thumb_func
  26              	USBH_AUDIO_SOFProcess:
  27              	.LFB130:
  28              		.file 1 "Middlewares/ST/STM32_USB_Host_Library/Class/AUDIO/Src/usbh_audio.c"
   1:Middlewares/ST/STM32_USB_Host_Library/Class/AUDIO/Src/usbh_audio.c **** /**
   2:Middlewares/ST/STM32_USB_Host_Library/Class/AUDIO/Src/usbh_audio.c ****   ******************************************************************************
   3:Middlewares/ST/STM32_USB_Host_Library/Class/AUDIO/Src/usbh_audio.c ****   * @file    usbh_audio.c
   4:Middlewares/ST/STM32_USB_Host_Library/Class/AUDIO/Src/usbh_audio.c ****   * @author  MCD Application Team
   5:Middlewares/ST/STM32_USB_Host_Library/Class/AUDIO/Src/usbh_audio.c ****   * @version V3.2.2
   6:Middlewares/ST/STM32_USB_Host_Library/Class/AUDIO/Src/usbh_audio.c ****   * @date    07-July-2015
   7:Middlewares/ST/STM32_USB_Host_Library/Class/AUDIO/Src/usbh_audio.c ****   * @brief   This file is the AC Layer Handlers for USB Host AC class. 
   8:Middlewares/ST/STM32_USB_Host_Library/Class/AUDIO/Src/usbh_audio.c ****   *
   9:Middlewares/ST/STM32_USB_Host_Library/Class/AUDIO/Src/usbh_audio.c ****   * @verbatim
  10:Middlewares/ST/STM32_USB_Host_Library/Class/AUDIO/Src/usbh_audio.c ****   *      
  11:Middlewares/ST/STM32_USB_Host_Library/Class/AUDIO/Src/usbh_audio.c ****   *          ===================================================================      
  12:Middlewares/ST/STM32_USB_Host_Library/Class/AUDIO/Src/usbh_audio.c ****   *                                AUDIO Class  Description
  13:Middlewares/ST/STM32_USB_Host_Library/Class/AUDIO/Src/usbh_audio.c ****   *          ===================================================================
  14:Middlewares/ST/STM32_USB_Host_Library/Class/AUDIO/Src/usbh_audio.c ****   *           This driver manages the Audio Class 1.0 following the "USB Device 
  15:Middlewares/ST/STM32_USB_Host_Library/Class/AUDIO/Src/usbh_audio.c ****   *           Class Definition for Audio Devices V1.0 Mar 18, 98".
  16:Middlewares/ST/STM32_USB_Host_Library/Class/AUDIO/Src/usbh_audio.c ****   *   
  17:Middlewares/ST/STM32_USB_Host_Library/Class/AUDIO/Src/usbh_audio.c ****   *  @endverbatim
  18:Middlewares/ST/STM32_USB_Host_Library/Class/AUDIO/Src/usbh_audio.c ****   *
  19:Middlewares/ST/STM32_USB_Host_Library/Class/AUDIO/Src/usbh_audio.c ****   ******************************************************************************
  20:Middlewares/ST/STM32_USB_Host_Library/Class/AUDIO/Src/usbh_audio.c ****   * @attention
  21:Middlewares/ST/STM32_USB_Host_Library/Class/AUDIO/Src/usbh_audio.c ****   *
  22:Middlewares/ST/STM32_USB_Host_Library/Class/AUDIO/Src/usbh_audio.c ****   * <h2><center>&copy; COPYRIGHT 2015 STMicroelectronics</center></h2>
  23:Middlewares/ST/STM32_USB_Host_Library/Class/AUDIO/Src/usbh_audio.c ****   *
  24:Middlewares/ST/STM32_USB_Host_Library/Class/AUDIO/Src/usbh_audio.c ****   * Licensed under MCD-ST Liberty SW License Agreement V2, (the "License");
  25:Middlewares/ST/STM32_USB_Host_Library/Class/AUDIO/Src/usbh_audio.c ****   * You may not use this file except in compliance with the License.
  26:Middlewares/ST/STM32_USB_Host_Library/Class/AUDIO/Src/usbh_audio.c ****   * You may obtain a copy of the License at:
  27:Middlewares/ST/STM32_USB_Host_Library/Class/AUDIO/Src/usbh_audio.c ****   *
  28:Middlewares/ST/STM32_USB_Host_Library/Class/AUDIO/Src/usbh_audio.c ****   *        http://www.st.com/software_license_agreement_liberty_v2
  29:Middlewares/ST/STM32_USB_Host_Library/Class/AUDIO/Src/usbh_audio.c ****   *
  30:Middlewares/ST/STM32_USB_Host_Library/Class/AUDIO/Src/usbh_audio.c ****   * Unless required by applicable law or agreed to in writing, software 
ARM GAS  /tmp/cc7hx4Eu.s 			page 2


  31:Middlewares/ST/STM32_USB_Host_Library/Class/AUDIO/Src/usbh_audio.c ****   * distributed under the License is distributed on an "AS IS" BASIS, 
  32:Middlewares/ST/STM32_USB_Host_Library/Class/AUDIO/Src/usbh_audio.c ****   * WITHOUT WARRANTIES OR CONDITIONS OF ANY KIND, either express or implied.
  33:Middlewares/ST/STM32_USB_Host_Library/Class/AUDIO/Src/usbh_audio.c ****   * See the License for the specific language governing permissions and
  34:Middlewares/ST/STM32_USB_Host_Library/Class/AUDIO/Src/usbh_audio.c ****   * limitations under the License.
  35:Middlewares/ST/STM32_USB_Host_Library/Class/AUDIO/Src/usbh_audio.c ****   *
  36:Middlewares/ST/STM32_USB_Host_Library/Class/AUDIO/Src/usbh_audio.c ****   ******************************************************************************
  37:Middlewares/ST/STM32_USB_Host_Library/Class/AUDIO/Src/usbh_audio.c ****   */ 
  38:Middlewares/ST/STM32_USB_Host_Library/Class/AUDIO/Src/usbh_audio.c **** 
  39:Middlewares/ST/STM32_USB_Host_Library/Class/AUDIO/Src/usbh_audio.c **** /* Includes ------------------------------------------------------------------*/
  40:Middlewares/ST/STM32_USB_Host_Library/Class/AUDIO/Src/usbh_audio.c **** #include "usbh_audio.h"
  41:Middlewares/ST/STM32_USB_Host_Library/Class/AUDIO/Src/usbh_audio.c **** 
  42:Middlewares/ST/STM32_USB_Host_Library/Class/AUDIO/Src/usbh_audio.c **** /** @addtogroup USBH_LIB
  43:Middlewares/ST/STM32_USB_Host_Library/Class/AUDIO/Src/usbh_audio.c ****   * @{
  44:Middlewares/ST/STM32_USB_Host_Library/Class/AUDIO/Src/usbh_audio.c ****   */
  45:Middlewares/ST/STM32_USB_Host_Library/Class/AUDIO/Src/usbh_audio.c **** 
  46:Middlewares/ST/STM32_USB_Host_Library/Class/AUDIO/Src/usbh_audio.c **** /** @addtogroup USBH_CLASS
  47:Middlewares/ST/STM32_USB_Host_Library/Class/AUDIO/Src/usbh_audio.c ****   * @{
  48:Middlewares/ST/STM32_USB_Host_Library/Class/AUDIO/Src/usbh_audio.c ****   */
  49:Middlewares/ST/STM32_USB_Host_Library/Class/AUDIO/Src/usbh_audio.c **** 
  50:Middlewares/ST/STM32_USB_Host_Library/Class/AUDIO/Src/usbh_audio.c **** /** @addtogroup USBH_AUDIO_CLASS
  51:Middlewares/ST/STM32_USB_Host_Library/Class/AUDIO/Src/usbh_audio.c ****   * @{
  52:Middlewares/ST/STM32_USB_Host_Library/Class/AUDIO/Src/usbh_audio.c ****   */
  53:Middlewares/ST/STM32_USB_Host_Library/Class/AUDIO/Src/usbh_audio.c **** 
  54:Middlewares/ST/STM32_USB_Host_Library/Class/AUDIO/Src/usbh_audio.c **** /** @defgroup USBH_AUDIO_CORE 
  55:Middlewares/ST/STM32_USB_Host_Library/Class/AUDIO/Src/usbh_audio.c ****   * @brief    This file includes HID Layer Handlers for USB Host HID class.
  56:Middlewares/ST/STM32_USB_Host_Library/Class/AUDIO/Src/usbh_audio.c ****   * @{
  57:Middlewares/ST/STM32_USB_Host_Library/Class/AUDIO/Src/usbh_audio.c ****   */ 
  58:Middlewares/ST/STM32_USB_Host_Library/Class/AUDIO/Src/usbh_audio.c **** 
  59:Middlewares/ST/STM32_USB_Host_Library/Class/AUDIO/Src/usbh_audio.c **** /** @defgroup USBH_AUDIO_CORE_Private_TypesDefinitions
  60:Middlewares/ST/STM32_USB_Host_Library/Class/AUDIO/Src/usbh_audio.c ****   * @{
  61:Middlewares/ST/STM32_USB_Host_Library/Class/AUDIO/Src/usbh_audio.c ****   */ 
  62:Middlewares/ST/STM32_USB_Host_Library/Class/AUDIO/Src/usbh_audio.c **** /**
  63:Middlewares/ST/STM32_USB_Host_Library/Class/AUDIO/Src/usbh_audio.c ****   * @}
  64:Middlewares/ST/STM32_USB_Host_Library/Class/AUDIO/Src/usbh_audio.c ****   */ 
  65:Middlewares/ST/STM32_USB_Host_Library/Class/AUDIO/Src/usbh_audio.c **** 
  66:Middlewares/ST/STM32_USB_Host_Library/Class/AUDIO/Src/usbh_audio.c **** 
  67:Middlewares/ST/STM32_USB_Host_Library/Class/AUDIO/Src/usbh_audio.c **** /** @defgroup USBH_AUDIO_CORE_Private_Defines
  68:Middlewares/ST/STM32_USB_Host_Library/Class/AUDIO/Src/usbh_audio.c ****   * @{
  69:Middlewares/ST/STM32_USB_Host_Library/Class/AUDIO/Src/usbh_audio.c ****   */ 
  70:Middlewares/ST/STM32_USB_Host_Library/Class/AUDIO/Src/usbh_audio.c **** 
  71:Middlewares/ST/STM32_USB_Host_Library/Class/AUDIO/Src/usbh_audio.c **** /**
  72:Middlewares/ST/STM32_USB_Host_Library/Class/AUDIO/Src/usbh_audio.c ****   * @}
  73:Middlewares/ST/STM32_USB_Host_Library/Class/AUDIO/Src/usbh_audio.c ****   */ 
  74:Middlewares/ST/STM32_USB_Host_Library/Class/AUDIO/Src/usbh_audio.c **** 
  75:Middlewares/ST/STM32_USB_Host_Library/Class/AUDIO/Src/usbh_audio.c **** 
  76:Middlewares/ST/STM32_USB_Host_Library/Class/AUDIO/Src/usbh_audio.c **** /** @defgroup USBH_AUDIO_CORE_Private_Macros
  77:Middlewares/ST/STM32_USB_Host_Library/Class/AUDIO/Src/usbh_audio.c ****   * @{
  78:Middlewares/ST/STM32_USB_Host_Library/Class/AUDIO/Src/usbh_audio.c ****   */ 
  79:Middlewares/ST/STM32_USB_Host_Library/Class/AUDIO/Src/usbh_audio.c **** /**
  80:Middlewares/ST/STM32_USB_Host_Library/Class/AUDIO/Src/usbh_audio.c ****   * @}
  81:Middlewares/ST/STM32_USB_Host_Library/Class/AUDIO/Src/usbh_audio.c ****   */ 
  82:Middlewares/ST/STM32_USB_Host_Library/Class/AUDIO/Src/usbh_audio.c **** 
  83:Middlewares/ST/STM32_USB_Host_Library/Class/AUDIO/Src/usbh_audio.c **** 
  84:Middlewares/ST/STM32_USB_Host_Library/Class/AUDIO/Src/usbh_audio.c **** /** @defgroup USBH_AUDIO_CORE_Private_Variables
  85:Middlewares/ST/STM32_USB_Host_Library/Class/AUDIO/Src/usbh_audio.c ****   * @{
  86:Middlewares/ST/STM32_USB_Host_Library/Class/AUDIO/Src/usbh_audio.c ****   */
  87:Middlewares/ST/STM32_USB_Host_Library/Class/AUDIO/Src/usbh_audio.c **** 
ARM GAS  /tmp/cc7hx4Eu.s 			page 3


  88:Middlewares/ST/STM32_USB_Host_Library/Class/AUDIO/Src/usbh_audio.c **** /**
  89:Middlewares/ST/STM32_USB_Host_Library/Class/AUDIO/Src/usbh_audio.c ****   * @}
  90:Middlewares/ST/STM32_USB_Host_Library/Class/AUDIO/Src/usbh_audio.c ****   */ 
  91:Middlewares/ST/STM32_USB_Host_Library/Class/AUDIO/Src/usbh_audio.c **** 
  92:Middlewares/ST/STM32_USB_Host_Library/Class/AUDIO/Src/usbh_audio.c **** 
  93:Middlewares/ST/STM32_USB_Host_Library/Class/AUDIO/Src/usbh_audio.c **** /** @defgroup USBH_AUDIO_CORE_Private_FunctionPrototypes
  94:Middlewares/ST/STM32_USB_Host_Library/Class/AUDIO/Src/usbh_audio.c ****   * @{
  95:Middlewares/ST/STM32_USB_Host_Library/Class/AUDIO/Src/usbh_audio.c ****   */ 
  96:Middlewares/ST/STM32_USB_Host_Library/Class/AUDIO/Src/usbh_audio.c **** 
  97:Middlewares/ST/STM32_USB_Host_Library/Class/AUDIO/Src/usbh_audio.c **** static USBH_StatusTypeDef USBH_AUDIO_InterfaceInit  (USBH_HandleTypeDef *phost);
  98:Middlewares/ST/STM32_USB_Host_Library/Class/AUDIO/Src/usbh_audio.c **** static USBH_StatusTypeDef USBH_AUDIO_InterfaceDeInit  (USBH_HandleTypeDef *phost);
  99:Middlewares/ST/STM32_USB_Host_Library/Class/AUDIO/Src/usbh_audio.c **** static USBH_StatusTypeDef USBH_AUDIO_Process(USBH_HandleTypeDef *phost);
 100:Middlewares/ST/STM32_USB_Host_Library/Class/AUDIO/Src/usbh_audio.c **** static USBH_StatusTypeDef USBH_AUDIO_SOFProcess(USBH_HandleTypeDef *phost);
 101:Middlewares/ST/STM32_USB_Host_Library/Class/AUDIO/Src/usbh_audio.c **** static USBH_StatusTypeDef USBH_AUDIO_ClassRequest(USBH_HandleTypeDef *phost);
 102:Middlewares/ST/STM32_USB_Host_Library/Class/AUDIO/Src/usbh_audio.c **** static USBH_StatusTypeDef USBH_AUDIO_CSRequest(USBH_HandleTypeDef *phost, 
 103:Middlewares/ST/STM32_USB_Host_Library/Class/AUDIO/Src/usbh_audio.c ****                                                uint8_t feature, 
 104:Middlewares/ST/STM32_USB_Host_Library/Class/AUDIO/Src/usbh_audio.c ****                                                uint8_t channel);
 105:Middlewares/ST/STM32_USB_Host_Library/Class/AUDIO/Src/usbh_audio.c **** 
 106:Middlewares/ST/STM32_USB_Host_Library/Class/AUDIO/Src/usbh_audio.c **** static USBH_StatusTypeDef USBH_AUDIO_HandleCSRequest(USBH_HandleTypeDef *phost);
 107:Middlewares/ST/STM32_USB_Host_Library/Class/AUDIO/Src/usbh_audio.c **** 
 108:Middlewares/ST/STM32_USB_Host_Library/Class/AUDIO/Src/usbh_audio.c **** static USBH_StatusTypeDef USBH_AUDIO_FindAudioStreamingIN(USBH_HandleTypeDef *phost);
 109:Middlewares/ST/STM32_USB_Host_Library/Class/AUDIO/Src/usbh_audio.c **** static USBH_StatusTypeDef USBH_AUDIO_FindAudioStreamingOUT(USBH_HandleTypeDef *phost);
 110:Middlewares/ST/STM32_USB_Host_Library/Class/AUDIO/Src/usbh_audio.c **** static USBH_StatusTypeDef USBH_AUDIO_FindHIDControl(USBH_HandleTypeDef *phost);
 111:Middlewares/ST/STM32_USB_Host_Library/Class/AUDIO/Src/usbh_audio.c **** static USBH_StatusTypeDef USBH_AUDIO_ParseCSDescriptors(USBH_HandleTypeDef *phost);
 112:Middlewares/ST/STM32_USB_Host_Library/Class/AUDIO/Src/usbh_audio.c **** 
 113:Middlewares/ST/STM32_USB_Host_Library/Class/AUDIO/Src/usbh_audio.c **** static USBH_StatusTypeDef USBH_AUDIO_BuildHeadphonePath(USBH_HandleTypeDef *phost);
 114:Middlewares/ST/STM32_USB_Host_Library/Class/AUDIO/Src/usbh_audio.c **** static USBH_StatusTypeDef USBH_AUDIO_BuildMicrophonePath(USBH_HandleTypeDef *phost);
 115:Middlewares/ST/STM32_USB_Host_Library/Class/AUDIO/Src/usbh_audio.c **** int32_t USBH_AUDIO_FindLinkedUnitIN(USBH_HandleTypeDef *phost, uint8_t UnitID);
 116:Middlewares/ST/STM32_USB_Host_Library/Class/AUDIO/Src/usbh_audio.c **** int32_t USBH_AUDIO_FindLinkedUnitOUT(USBH_HandleTypeDef *phost, uint8_t UnitID);
 117:Middlewares/ST/STM32_USB_Host_Library/Class/AUDIO/Src/usbh_audio.c **** 
 118:Middlewares/ST/STM32_USB_Host_Library/Class/AUDIO/Src/usbh_audio.c **** 
 119:Middlewares/ST/STM32_USB_Host_Library/Class/AUDIO/Src/usbh_audio.c **** 
 120:Middlewares/ST/STM32_USB_Host_Library/Class/AUDIO/Src/usbh_audio.c **** static USBH_StatusTypeDef ParseCSDescriptors(AUDIO_ClassSpecificDescTypedef *class_desc, 
 121:Middlewares/ST/STM32_USB_Host_Library/Class/AUDIO/Src/usbh_audio.c ****                                       uint8_t ac_subclass, 
 122:Middlewares/ST/STM32_USB_Host_Library/Class/AUDIO/Src/usbh_audio.c ****                                       uint8_t *pdesc);
 123:Middlewares/ST/STM32_USB_Host_Library/Class/AUDIO/Src/usbh_audio.c **** 
 124:Middlewares/ST/STM32_USB_Host_Library/Class/AUDIO/Src/usbh_audio.c **** 
 125:Middlewares/ST/STM32_USB_Host_Library/Class/AUDIO/Src/usbh_audio.c **** static USBH_StatusTypeDef USBH_AUDIO_Transmit (USBH_HandleTypeDef *phost);
 126:Middlewares/ST/STM32_USB_Host_Library/Class/AUDIO/Src/usbh_audio.c **** 
 127:Middlewares/ST/STM32_USB_Host_Library/Class/AUDIO/Src/usbh_audio.c **** 
 128:Middlewares/ST/STM32_USB_Host_Library/Class/AUDIO/Src/usbh_audio.c **** static USBH_StatusTypeDef USBH_AC_SetCur(USBH_HandleTypeDef *phost, 
 129:Middlewares/ST/STM32_USB_Host_Library/Class/AUDIO/Src/usbh_audio.c ****                                          uint8_t subtype, 
 130:Middlewares/ST/STM32_USB_Host_Library/Class/AUDIO/Src/usbh_audio.c ****                                          uint8_t feature,
 131:Middlewares/ST/STM32_USB_Host_Library/Class/AUDIO/Src/usbh_audio.c ****                                          uint8_t controlSelector,
 132:Middlewares/ST/STM32_USB_Host_Library/Class/AUDIO/Src/usbh_audio.c ****                                          uint8_t channel,
 133:Middlewares/ST/STM32_USB_Host_Library/Class/AUDIO/Src/usbh_audio.c ****                                          uint16_t length);
 134:Middlewares/ST/STM32_USB_Host_Library/Class/AUDIO/Src/usbh_audio.c **** 
 135:Middlewares/ST/STM32_USB_Host_Library/Class/AUDIO/Src/usbh_audio.c **** static USBH_StatusTypeDef USBH_AC_GetCur(USBH_HandleTypeDef *phost, 
 136:Middlewares/ST/STM32_USB_Host_Library/Class/AUDIO/Src/usbh_audio.c ****                                          uint8_t subtype, 
 137:Middlewares/ST/STM32_USB_Host_Library/Class/AUDIO/Src/usbh_audio.c ****                                          uint8_t feature,
 138:Middlewares/ST/STM32_USB_Host_Library/Class/AUDIO/Src/usbh_audio.c ****                                          uint8_t controlSelector,
 139:Middlewares/ST/STM32_USB_Host_Library/Class/AUDIO/Src/usbh_audio.c ****                                          uint8_t channel,
 140:Middlewares/ST/STM32_USB_Host_Library/Class/AUDIO/Src/usbh_audio.c ****                                          uint16_t length);
 141:Middlewares/ST/STM32_USB_Host_Library/Class/AUDIO/Src/usbh_audio.c **** 
 142:Middlewares/ST/STM32_USB_Host_Library/Class/AUDIO/Src/usbh_audio.c **** static USBH_StatusTypeDef USBH_AC_GetMin(USBH_HandleTypeDef *phost, 
 143:Middlewares/ST/STM32_USB_Host_Library/Class/AUDIO/Src/usbh_audio.c ****                                          uint8_t subtype, 
 144:Middlewares/ST/STM32_USB_Host_Library/Class/AUDIO/Src/usbh_audio.c ****                                          uint8_t feature,
ARM GAS  /tmp/cc7hx4Eu.s 			page 4


 145:Middlewares/ST/STM32_USB_Host_Library/Class/AUDIO/Src/usbh_audio.c ****                                          uint8_t controlSelector,
 146:Middlewares/ST/STM32_USB_Host_Library/Class/AUDIO/Src/usbh_audio.c ****                                          uint8_t channel,
 147:Middlewares/ST/STM32_USB_Host_Library/Class/AUDIO/Src/usbh_audio.c ****                                          uint16_t length);
 148:Middlewares/ST/STM32_USB_Host_Library/Class/AUDIO/Src/usbh_audio.c **** 
 149:Middlewares/ST/STM32_USB_Host_Library/Class/AUDIO/Src/usbh_audio.c **** static USBH_StatusTypeDef USBH_AC_GetMax(USBH_HandleTypeDef *phost, 
 150:Middlewares/ST/STM32_USB_Host_Library/Class/AUDIO/Src/usbh_audio.c ****                                          uint8_t subtype, 
 151:Middlewares/ST/STM32_USB_Host_Library/Class/AUDIO/Src/usbh_audio.c ****                                          uint8_t feature,
 152:Middlewares/ST/STM32_USB_Host_Library/Class/AUDIO/Src/usbh_audio.c ****                                          uint8_t controlSelector,
 153:Middlewares/ST/STM32_USB_Host_Library/Class/AUDIO/Src/usbh_audio.c ****                                          uint8_t channel,
 154:Middlewares/ST/STM32_USB_Host_Library/Class/AUDIO/Src/usbh_audio.c ****                                          uint16_t length);
 155:Middlewares/ST/STM32_USB_Host_Library/Class/AUDIO/Src/usbh_audio.c **** 
 156:Middlewares/ST/STM32_USB_Host_Library/Class/AUDIO/Src/usbh_audio.c **** static USBH_StatusTypeDef USBH_AC_GetRes(USBH_HandleTypeDef *phost, 
 157:Middlewares/ST/STM32_USB_Host_Library/Class/AUDIO/Src/usbh_audio.c ****                                          uint8_t subtype, 
 158:Middlewares/ST/STM32_USB_Host_Library/Class/AUDIO/Src/usbh_audio.c ****                                          uint8_t feature,
 159:Middlewares/ST/STM32_USB_Host_Library/Class/AUDIO/Src/usbh_audio.c ****                                          uint8_t controlSelector,
 160:Middlewares/ST/STM32_USB_Host_Library/Class/AUDIO/Src/usbh_audio.c ****                                          uint8_t channel,
 161:Middlewares/ST/STM32_USB_Host_Library/Class/AUDIO/Src/usbh_audio.c ****                                          uint16_t length);
 162:Middlewares/ST/STM32_USB_Host_Library/Class/AUDIO/Src/usbh_audio.c **** 
 163:Middlewares/ST/STM32_USB_Host_Library/Class/AUDIO/Src/usbh_audio.c **** static USBH_StatusTypeDef USBH_AUDIO_SetEndpointControls(USBH_HandleTypeDef *phost,
 164:Middlewares/ST/STM32_USB_Host_Library/Class/AUDIO/Src/usbh_audio.c ****                                                uint8_t  Ep,
 165:Middlewares/ST/STM32_USB_Host_Library/Class/AUDIO/Src/usbh_audio.c ****                                                uint8_t *buff);
 166:Middlewares/ST/STM32_USB_Host_Library/Class/AUDIO/Src/usbh_audio.c **** 
 167:Middlewares/ST/STM32_USB_Host_Library/Class/AUDIO/Src/usbh_audio.c **** static USBH_StatusTypeDef AUDIO_SetVolume (USBH_HandleTypeDef *phost, uint8_t feature, uint8_t chan
 168:Middlewares/ST/STM32_USB_Host_Library/Class/AUDIO/Src/usbh_audio.c **** 
 169:Middlewares/ST/STM32_USB_Host_Library/Class/AUDIO/Src/usbh_audio.c **** static USBH_StatusTypeDef USBH_AUDIO_InputStream (USBH_HandleTypeDef *phost);
 170:Middlewares/ST/STM32_USB_Host_Library/Class/AUDIO/Src/usbh_audio.c **** static USBH_StatusTypeDef USBH_AUDIO_OutputStream (USBH_HandleTypeDef *phost);
 171:Middlewares/ST/STM32_USB_Host_Library/Class/AUDIO/Src/usbh_audio.c **** static USBH_StatusTypeDef USBH_AUDIO_Control (USBH_HandleTypeDef *phost);
 172:Middlewares/ST/STM32_USB_Host_Library/Class/AUDIO/Src/usbh_audio.c **** static USBH_StatusTypeDef USBH_AUDIO_SetControlAttribute (USBH_HandleTypeDef *phost, uint8_t attrib
 173:Middlewares/ST/STM32_USB_Host_Library/Class/AUDIO/Src/usbh_audio.c **** static int32_t USBH_AUDIO_FindLinkedUnit(USBH_HandleTypeDef *phost, uint8_t UnitID);
 174:Middlewares/ST/STM32_USB_Host_Library/Class/AUDIO/Src/usbh_audio.c **** 
 175:Middlewares/ST/STM32_USB_Host_Library/Class/AUDIO/Src/usbh_audio.c **** USBH_ClassTypeDef  AUDIO_Class = 
 176:Middlewares/ST/STM32_USB_Host_Library/Class/AUDIO/Src/usbh_audio.c **** {
 177:Middlewares/ST/STM32_USB_Host_Library/Class/AUDIO/Src/usbh_audio.c ****   "AUDIO",
 178:Middlewares/ST/STM32_USB_Host_Library/Class/AUDIO/Src/usbh_audio.c ****   AC_CLASS,  
 179:Middlewares/ST/STM32_USB_Host_Library/Class/AUDIO/Src/usbh_audio.c ****   USBH_AUDIO_InterfaceInit,
 180:Middlewares/ST/STM32_USB_Host_Library/Class/AUDIO/Src/usbh_audio.c ****   USBH_AUDIO_InterfaceDeInit,
 181:Middlewares/ST/STM32_USB_Host_Library/Class/AUDIO/Src/usbh_audio.c ****   USBH_AUDIO_ClassRequest,
 182:Middlewares/ST/STM32_USB_Host_Library/Class/AUDIO/Src/usbh_audio.c ****   USBH_AUDIO_Process,
 183:Middlewares/ST/STM32_USB_Host_Library/Class/AUDIO/Src/usbh_audio.c ****   USBH_AUDIO_SOFProcess,
 184:Middlewares/ST/STM32_USB_Host_Library/Class/AUDIO/Src/usbh_audio.c ****   NULL,
 185:Middlewares/ST/STM32_USB_Host_Library/Class/AUDIO/Src/usbh_audio.c **** };
 186:Middlewares/ST/STM32_USB_Host_Library/Class/AUDIO/Src/usbh_audio.c **** 
 187:Middlewares/ST/STM32_USB_Host_Library/Class/AUDIO/Src/usbh_audio.c **** /**
 188:Middlewares/ST/STM32_USB_Host_Library/Class/AUDIO/Src/usbh_audio.c ****   * @}
 189:Middlewares/ST/STM32_USB_Host_Library/Class/AUDIO/Src/usbh_audio.c ****   */ 
 190:Middlewares/ST/STM32_USB_Host_Library/Class/AUDIO/Src/usbh_audio.c **** 
 191:Middlewares/ST/STM32_USB_Host_Library/Class/AUDIO/Src/usbh_audio.c **** /** @defgroup USBH_AUDIO_CORE_Private_Functions
 192:Middlewares/ST/STM32_USB_Host_Library/Class/AUDIO/Src/usbh_audio.c ****   * @{
 193:Middlewares/ST/STM32_USB_Host_Library/Class/AUDIO/Src/usbh_audio.c ****   */ 
 194:Middlewares/ST/STM32_USB_Host_Library/Class/AUDIO/Src/usbh_audio.c **** 
 195:Middlewares/ST/STM32_USB_Host_Library/Class/AUDIO/Src/usbh_audio.c **** /**
 196:Middlewares/ST/STM32_USB_Host_Library/Class/AUDIO/Src/usbh_audio.c ****   * @brief  USBH_AUDIO_InterfaceInit 
 197:Middlewares/ST/STM32_USB_Host_Library/Class/AUDIO/Src/usbh_audio.c ****   *         The function init the Audio class.
 198:Middlewares/ST/STM32_USB_Host_Library/Class/AUDIO/Src/usbh_audio.c ****   * @param  phost: Host handle
 199:Middlewares/ST/STM32_USB_Host_Library/Class/AUDIO/Src/usbh_audio.c ****   * @retval USBH Status
 200:Middlewares/ST/STM32_USB_Host_Library/Class/AUDIO/Src/usbh_audio.c ****   */
 201:Middlewares/ST/STM32_USB_Host_Library/Class/AUDIO/Src/usbh_audio.c **** static USBH_StatusTypeDef USBH_AUDIO_InterfaceInit (USBH_HandleTypeDef *phost)
ARM GAS  /tmp/cc7hx4Eu.s 			page 5


 202:Middlewares/ST/STM32_USB_Host_Library/Class/AUDIO/Src/usbh_audio.c **** {
 203:Middlewares/ST/STM32_USB_Host_Library/Class/AUDIO/Src/usbh_audio.c ****   USBH_StatusTypeDef status = USBH_FAIL ;
 204:Middlewares/ST/STM32_USB_Host_Library/Class/AUDIO/Src/usbh_audio.c ****   USBH_StatusTypeDef out_status, in_status ;    
 205:Middlewares/ST/STM32_USB_Host_Library/Class/AUDIO/Src/usbh_audio.c ****   AUDIO_HandleTypeDef *AUDIO_Handle;
 206:Middlewares/ST/STM32_USB_Host_Library/Class/AUDIO/Src/usbh_audio.c ****   uint8_t  interface, index;
 207:Middlewares/ST/STM32_USB_Host_Library/Class/AUDIO/Src/usbh_audio.c ****   uint16_t ep_size_out = 0;
 208:Middlewares/ST/STM32_USB_Host_Library/Class/AUDIO/Src/usbh_audio.c ****   uint16_t ep_size_in = 0;  
 209:Middlewares/ST/STM32_USB_Host_Library/Class/AUDIO/Src/usbh_audio.c ****   
 210:Middlewares/ST/STM32_USB_Host_Library/Class/AUDIO/Src/usbh_audio.c ****   interface = USBH_FindInterface(phost, AC_CLASS, USB_SUBCLASS_AUDIOCONTROL, 0x00);
 211:Middlewares/ST/STM32_USB_Host_Library/Class/AUDIO/Src/usbh_audio.c ****   
 212:Middlewares/ST/STM32_USB_Host_Library/Class/AUDIO/Src/usbh_audio.c ****   if(interface == 0xFF) /* Not Valid Interface */
 213:Middlewares/ST/STM32_USB_Host_Library/Class/AUDIO/Src/usbh_audio.c ****   {
 214:Middlewares/ST/STM32_USB_Host_Library/Class/AUDIO/Src/usbh_audio.c ****     USBH_DbgLog ("Cannot Find the interface for %s class.", phost->pActiveClass->Name);
 215:Middlewares/ST/STM32_USB_Host_Library/Class/AUDIO/Src/usbh_audio.c ****     status = USBH_FAIL;      
 216:Middlewares/ST/STM32_USB_Host_Library/Class/AUDIO/Src/usbh_audio.c ****   }
 217:Middlewares/ST/STM32_USB_Host_Library/Class/AUDIO/Src/usbh_audio.c ****   else
 218:Middlewares/ST/STM32_USB_Host_Library/Class/AUDIO/Src/usbh_audio.c ****   {
 219:Middlewares/ST/STM32_USB_Host_Library/Class/AUDIO/Src/usbh_audio.c ****     
 220:Middlewares/ST/STM32_USB_Host_Library/Class/AUDIO/Src/usbh_audio.c ****     
 221:Middlewares/ST/STM32_USB_Host_Library/Class/AUDIO/Src/usbh_audio.c ****     phost->pActiveClass->pData = (AUDIO_HandleTypeDef *)USBH_malloc (sizeof(AUDIO_HandleTypeDef));
 222:Middlewares/ST/STM32_USB_Host_Library/Class/AUDIO/Src/usbh_audio.c ****     AUDIO_Handle =  (AUDIO_HandleTypeDef *) phost->pActiveClass->pData; 
 223:Middlewares/ST/STM32_USB_Host_Library/Class/AUDIO/Src/usbh_audio.c ****     USBH_memset(AUDIO_Handle, 0, sizeof(AUDIO_HandleTypeDef));
 224:Middlewares/ST/STM32_USB_Host_Library/Class/AUDIO/Src/usbh_audio.c ****     
 225:Middlewares/ST/STM32_USB_Host_Library/Class/AUDIO/Src/usbh_audio.c ****     
 226:Middlewares/ST/STM32_USB_Host_Library/Class/AUDIO/Src/usbh_audio.c ****     /* 1st Step:  Find Audio Interfaces */
 227:Middlewares/ST/STM32_USB_Host_Library/Class/AUDIO/Src/usbh_audio.c ****     out_status = USBH_AUDIO_FindAudioStreamingIN (phost);
 228:Middlewares/ST/STM32_USB_Host_Library/Class/AUDIO/Src/usbh_audio.c ****     
 229:Middlewares/ST/STM32_USB_Host_Library/Class/AUDIO/Src/usbh_audio.c ****     in_status = USBH_AUDIO_FindAudioStreamingOUT(phost);
 230:Middlewares/ST/STM32_USB_Host_Library/Class/AUDIO/Src/usbh_audio.c ****     
 231:Middlewares/ST/STM32_USB_Host_Library/Class/AUDIO/Src/usbh_audio.c ****     if((out_status == USBH_FAIL) && (in_status == USBH_FAIL))
 232:Middlewares/ST/STM32_USB_Host_Library/Class/AUDIO/Src/usbh_audio.c ****     {
 233:Middlewares/ST/STM32_USB_Host_Library/Class/AUDIO/Src/usbh_audio.c ****       USBH_DbgLog ("%s class configuration not supported.", phost->pActiveClass->Name);
 234:Middlewares/ST/STM32_USB_Host_Library/Class/AUDIO/Src/usbh_audio.c ****     }
 235:Middlewares/ST/STM32_USB_Host_Library/Class/AUDIO/Src/usbh_audio.c ****     else
 236:Middlewares/ST/STM32_USB_Host_Library/Class/AUDIO/Src/usbh_audio.c ****     {
 237:Middlewares/ST/STM32_USB_Host_Library/Class/AUDIO/Src/usbh_audio.c ****       /* 2nd Step:  Select Audio Streaming Interfaces with largest endpoint size : default behavior
 238:Middlewares/ST/STM32_USB_Host_Library/Class/AUDIO/Src/usbh_audio.c ****       for (index = 0; index < AUDIO_MAX_AUDIO_STD_INTERFACE; index ++)
 239:Middlewares/ST/STM32_USB_Host_Library/Class/AUDIO/Src/usbh_audio.c ****       {
 240:Middlewares/ST/STM32_USB_Host_Library/Class/AUDIO/Src/usbh_audio.c ****         if( AUDIO_Handle->stream_out[index].valid == 1)
 241:Middlewares/ST/STM32_USB_Host_Library/Class/AUDIO/Src/usbh_audio.c ****         {
 242:Middlewares/ST/STM32_USB_Host_Library/Class/AUDIO/Src/usbh_audio.c ****           if(ep_size_out < AUDIO_Handle->stream_out[index].EpSize)
 243:Middlewares/ST/STM32_USB_Host_Library/Class/AUDIO/Src/usbh_audio.c ****           {
 244:Middlewares/ST/STM32_USB_Host_Library/Class/AUDIO/Src/usbh_audio.c ****             ep_size_out = AUDIO_Handle->stream_out[index].EpSize;
 245:Middlewares/ST/STM32_USB_Host_Library/Class/AUDIO/Src/usbh_audio.c ****             AUDIO_Handle->headphone.interface = AUDIO_Handle->stream_out[index].interface;
 246:Middlewares/ST/STM32_USB_Host_Library/Class/AUDIO/Src/usbh_audio.c ****             AUDIO_Handle->headphone.AltSettings = AUDIO_Handle->stream_out[index].AltSettings;     
 247:Middlewares/ST/STM32_USB_Host_Library/Class/AUDIO/Src/usbh_audio.c ****             AUDIO_Handle->headphone.Ep = AUDIO_Handle->stream_out[index].Ep;
 248:Middlewares/ST/STM32_USB_Host_Library/Class/AUDIO/Src/usbh_audio.c ****             AUDIO_Handle->headphone.EpSize = AUDIO_Handle->stream_out[index].EpSize; 
 249:Middlewares/ST/STM32_USB_Host_Library/Class/AUDIO/Src/usbh_audio.c ****             AUDIO_Handle->headphone.Poll = AUDIO_Handle->stream_out[index].Poll;
 250:Middlewares/ST/STM32_USB_Host_Library/Class/AUDIO/Src/usbh_audio.c ****             AUDIO_Handle->headphone.supported = 1;  
 251:Middlewares/ST/STM32_USB_Host_Library/Class/AUDIO/Src/usbh_audio.c ****           }
 252:Middlewares/ST/STM32_USB_Host_Library/Class/AUDIO/Src/usbh_audio.c ****         }
 253:Middlewares/ST/STM32_USB_Host_Library/Class/AUDIO/Src/usbh_audio.c ****         
 254:Middlewares/ST/STM32_USB_Host_Library/Class/AUDIO/Src/usbh_audio.c ****         if( AUDIO_Handle->stream_in[index].valid == 1)
 255:Middlewares/ST/STM32_USB_Host_Library/Class/AUDIO/Src/usbh_audio.c ****         {
 256:Middlewares/ST/STM32_USB_Host_Library/Class/AUDIO/Src/usbh_audio.c ****           if(ep_size_in < AUDIO_Handle->stream_in[index].EpSize)
 257:Middlewares/ST/STM32_USB_Host_Library/Class/AUDIO/Src/usbh_audio.c ****           {
 258:Middlewares/ST/STM32_USB_Host_Library/Class/AUDIO/Src/usbh_audio.c ****             ep_size_in = AUDIO_Handle->stream_in[index].EpSize;
ARM GAS  /tmp/cc7hx4Eu.s 			page 6


 259:Middlewares/ST/STM32_USB_Host_Library/Class/AUDIO/Src/usbh_audio.c ****             AUDIO_Handle->microphone.interface = AUDIO_Handle->stream_in[index].interface;
 260:Middlewares/ST/STM32_USB_Host_Library/Class/AUDIO/Src/usbh_audio.c ****             AUDIO_Handle->microphone.AltSettings = AUDIO_Handle->stream_in[index].AltSettings;     
 261:Middlewares/ST/STM32_USB_Host_Library/Class/AUDIO/Src/usbh_audio.c ****             AUDIO_Handle->microphone.Ep = AUDIO_Handle->stream_in[index].Ep;
 262:Middlewares/ST/STM32_USB_Host_Library/Class/AUDIO/Src/usbh_audio.c ****             AUDIO_Handle->microphone.EpSize = AUDIO_Handle->stream_in[index].EpSize;
 263:Middlewares/ST/STM32_USB_Host_Library/Class/AUDIO/Src/usbh_audio.c ****             AUDIO_Handle->microphone.Poll = AUDIO_Handle->stream_out[index].Poll;         
 264:Middlewares/ST/STM32_USB_Host_Library/Class/AUDIO/Src/usbh_audio.c ****             AUDIO_Handle->microphone.supported = 1;       
 265:Middlewares/ST/STM32_USB_Host_Library/Class/AUDIO/Src/usbh_audio.c ****           }
 266:Middlewares/ST/STM32_USB_Host_Library/Class/AUDIO/Src/usbh_audio.c ****         }
 267:Middlewares/ST/STM32_USB_Host_Library/Class/AUDIO/Src/usbh_audio.c ****       }
 268:Middlewares/ST/STM32_USB_Host_Library/Class/AUDIO/Src/usbh_audio.c ****       
 269:Middlewares/ST/STM32_USB_Host_Library/Class/AUDIO/Src/usbh_audio.c ****       if(USBH_AUDIO_FindHIDControl(phost) == USBH_OK)
 270:Middlewares/ST/STM32_USB_Host_Library/Class/AUDIO/Src/usbh_audio.c ****       {
 271:Middlewares/ST/STM32_USB_Host_Library/Class/AUDIO/Src/usbh_audio.c ****         AUDIO_Handle->control.supported = 1;
 272:Middlewares/ST/STM32_USB_Host_Library/Class/AUDIO/Src/usbh_audio.c ****       }
 273:Middlewares/ST/STM32_USB_Host_Library/Class/AUDIO/Src/usbh_audio.c ****       
 274:Middlewares/ST/STM32_USB_Host_Library/Class/AUDIO/Src/usbh_audio.c ****       /* 3rd Step:  Find and Parse Audio interfaces */ 
 275:Middlewares/ST/STM32_USB_Host_Library/Class/AUDIO/Src/usbh_audio.c ****       USBH_AUDIO_ParseCSDescriptors (phost);
 276:Middlewares/ST/STM32_USB_Host_Library/Class/AUDIO/Src/usbh_audio.c ****      
 277:Middlewares/ST/STM32_USB_Host_Library/Class/AUDIO/Src/usbh_audio.c ****       
 278:Middlewares/ST/STM32_USB_Host_Library/Class/AUDIO/Src/usbh_audio.c ****       /* 4th Step:  Open the Audio streaming pipes*/ 
 279:Middlewares/ST/STM32_USB_Host_Library/Class/AUDIO/Src/usbh_audio.c ****       if(AUDIO_Handle->headphone.supported == 1)
 280:Middlewares/ST/STM32_USB_Host_Library/Class/AUDIO/Src/usbh_audio.c ****       {
 281:Middlewares/ST/STM32_USB_Host_Library/Class/AUDIO/Src/usbh_audio.c ****         USBH_AUDIO_BuildHeadphonePath (phost);
 282:Middlewares/ST/STM32_USB_Host_Library/Class/AUDIO/Src/usbh_audio.c ****          
 283:Middlewares/ST/STM32_USB_Host_Library/Class/AUDIO/Src/usbh_audio.c ****         AUDIO_Handle->headphone.Pipe  = USBH_AllocPipe(phost, AUDIO_Handle->headphone.Ep);
 284:Middlewares/ST/STM32_USB_Host_Library/Class/AUDIO/Src/usbh_audio.c ****         
 285:Middlewares/ST/STM32_USB_Host_Library/Class/AUDIO/Src/usbh_audio.c ****         /* Open pipe for IN endpoint */
 286:Middlewares/ST/STM32_USB_Host_Library/Class/AUDIO/Src/usbh_audio.c ****         USBH_OpenPipe  (phost,
 287:Middlewares/ST/STM32_USB_Host_Library/Class/AUDIO/Src/usbh_audio.c ****                         AUDIO_Handle->headphone.Pipe,
 288:Middlewares/ST/STM32_USB_Host_Library/Class/AUDIO/Src/usbh_audio.c ****                         AUDIO_Handle->headphone.Ep,
 289:Middlewares/ST/STM32_USB_Host_Library/Class/AUDIO/Src/usbh_audio.c ****                         phost->device.address,
 290:Middlewares/ST/STM32_USB_Host_Library/Class/AUDIO/Src/usbh_audio.c ****                         phost->device.speed,
 291:Middlewares/ST/STM32_USB_Host_Library/Class/AUDIO/Src/usbh_audio.c ****                         USB_EP_TYPE_ISOC,
 292:Middlewares/ST/STM32_USB_Host_Library/Class/AUDIO/Src/usbh_audio.c ****                         AUDIO_Handle->headphone.EpSize); 
 293:Middlewares/ST/STM32_USB_Host_Library/Class/AUDIO/Src/usbh_audio.c ****         
 294:Middlewares/ST/STM32_USB_Host_Library/Class/AUDIO/Src/usbh_audio.c ****         USBH_LL_SetToggle (phost,  AUDIO_Handle->headphone.Pipe, 0);          
 295:Middlewares/ST/STM32_USB_Host_Library/Class/AUDIO/Src/usbh_audio.c ****         
 296:Middlewares/ST/STM32_USB_Host_Library/Class/AUDIO/Src/usbh_audio.c ****       }
 297:Middlewares/ST/STM32_USB_Host_Library/Class/AUDIO/Src/usbh_audio.c ****       
 298:Middlewares/ST/STM32_USB_Host_Library/Class/AUDIO/Src/usbh_audio.c ****       if(AUDIO_Handle->microphone.supported == 1)
 299:Middlewares/ST/STM32_USB_Host_Library/Class/AUDIO/Src/usbh_audio.c ****       {
 300:Middlewares/ST/STM32_USB_Host_Library/Class/AUDIO/Src/usbh_audio.c ****         USBH_AUDIO_BuildMicrophonePath (phost);        
 301:Middlewares/ST/STM32_USB_Host_Library/Class/AUDIO/Src/usbh_audio.c ****         AUDIO_Handle->microphone.Pipe  = USBH_AllocPipe(phost, AUDIO_Handle->microphone.Ep);
 302:Middlewares/ST/STM32_USB_Host_Library/Class/AUDIO/Src/usbh_audio.c ****         
 303:Middlewares/ST/STM32_USB_Host_Library/Class/AUDIO/Src/usbh_audio.c ****         /* Open pipe for IN endpoint */
 304:Middlewares/ST/STM32_USB_Host_Library/Class/AUDIO/Src/usbh_audio.c ****         USBH_OpenPipe  (phost,
 305:Middlewares/ST/STM32_USB_Host_Library/Class/AUDIO/Src/usbh_audio.c ****                         AUDIO_Handle->microphone.Pipe,
 306:Middlewares/ST/STM32_USB_Host_Library/Class/AUDIO/Src/usbh_audio.c ****                         AUDIO_Handle->microphone.Ep,
 307:Middlewares/ST/STM32_USB_Host_Library/Class/AUDIO/Src/usbh_audio.c ****                         phost->device.address,
 308:Middlewares/ST/STM32_USB_Host_Library/Class/AUDIO/Src/usbh_audio.c ****                         phost->device.speed,
 309:Middlewares/ST/STM32_USB_Host_Library/Class/AUDIO/Src/usbh_audio.c ****                         USB_EP_TYPE_ISOC,
 310:Middlewares/ST/STM32_USB_Host_Library/Class/AUDIO/Src/usbh_audio.c ****                         AUDIO_Handle->microphone.EpSize); 
 311:Middlewares/ST/STM32_USB_Host_Library/Class/AUDIO/Src/usbh_audio.c ****         
 312:Middlewares/ST/STM32_USB_Host_Library/Class/AUDIO/Src/usbh_audio.c ****         USBH_LL_SetToggle (phost,  AUDIO_Handle->microphone.Pipe, 0);  
 313:Middlewares/ST/STM32_USB_Host_Library/Class/AUDIO/Src/usbh_audio.c ****       }
 314:Middlewares/ST/STM32_USB_Host_Library/Class/AUDIO/Src/usbh_audio.c ****       
 315:Middlewares/ST/STM32_USB_Host_Library/Class/AUDIO/Src/usbh_audio.c ****       if(AUDIO_Handle->control.supported == 1)
ARM GAS  /tmp/cc7hx4Eu.s 			page 7


 316:Middlewares/ST/STM32_USB_Host_Library/Class/AUDIO/Src/usbh_audio.c ****       {     
 317:Middlewares/ST/STM32_USB_Host_Library/Class/AUDIO/Src/usbh_audio.c ****         AUDIO_Handle->control.Pipe  = USBH_AllocPipe(phost, AUDIO_Handle->control.Ep);
 318:Middlewares/ST/STM32_USB_Host_Library/Class/AUDIO/Src/usbh_audio.c ****         
 319:Middlewares/ST/STM32_USB_Host_Library/Class/AUDIO/Src/usbh_audio.c ****         /* Open pipe for IN endpoint */
 320:Middlewares/ST/STM32_USB_Host_Library/Class/AUDIO/Src/usbh_audio.c ****         USBH_OpenPipe  (phost,
 321:Middlewares/ST/STM32_USB_Host_Library/Class/AUDIO/Src/usbh_audio.c ****                         AUDIO_Handle->control.Pipe,
 322:Middlewares/ST/STM32_USB_Host_Library/Class/AUDIO/Src/usbh_audio.c ****                         AUDIO_Handle->control.Ep,
 323:Middlewares/ST/STM32_USB_Host_Library/Class/AUDIO/Src/usbh_audio.c ****                         phost->device.address,
 324:Middlewares/ST/STM32_USB_Host_Library/Class/AUDIO/Src/usbh_audio.c ****                         phost->device.speed,
 325:Middlewares/ST/STM32_USB_Host_Library/Class/AUDIO/Src/usbh_audio.c ****                         USB_EP_TYPE_INTR,
 326:Middlewares/ST/STM32_USB_Host_Library/Class/AUDIO/Src/usbh_audio.c ****                         AUDIO_Handle->control.EpSize); 
 327:Middlewares/ST/STM32_USB_Host_Library/Class/AUDIO/Src/usbh_audio.c ****         
 328:Middlewares/ST/STM32_USB_Host_Library/Class/AUDIO/Src/usbh_audio.c ****         USBH_LL_SetToggle (phost,  AUDIO_Handle->control.Pipe, 0);          
 329:Middlewares/ST/STM32_USB_Host_Library/Class/AUDIO/Src/usbh_audio.c ****    
 330:Middlewares/ST/STM32_USB_Host_Library/Class/AUDIO/Src/usbh_audio.c ****       }
 331:Middlewares/ST/STM32_USB_Host_Library/Class/AUDIO/Src/usbh_audio.c ****       
 332:Middlewares/ST/STM32_USB_Host_Library/Class/AUDIO/Src/usbh_audio.c ****       AUDIO_Handle->req_state     = AUDIO_REQ_INIT;
 333:Middlewares/ST/STM32_USB_Host_Library/Class/AUDIO/Src/usbh_audio.c ****       AUDIO_Handle->control_state = AUDIO_CONTROL_INIT;
 334:Middlewares/ST/STM32_USB_Host_Library/Class/AUDIO/Src/usbh_audio.c ****       
 335:Middlewares/ST/STM32_USB_Host_Library/Class/AUDIO/Src/usbh_audio.c ****       status = USBH_OK;
 336:Middlewares/ST/STM32_USB_Host_Library/Class/AUDIO/Src/usbh_audio.c ****     }
 337:Middlewares/ST/STM32_USB_Host_Library/Class/AUDIO/Src/usbh_audio.c ****   }
 338:Middlewares/ST/STM32_USB_Host_Library/Class/AUDIO/Src/usbh_audio.c ****   return status;
 339:Middlewares/ST/STM32_USB_Host_Library/Class/AUDIO/Src/usbh_audio.c **** }
 340:Middlewares/ST/STM32_USB_Host_Library/Class/AUDIO/Src/usbh_audio.c **** 
 341:Middlewares/ST/STM32_USB_Host_Library/Class/AUDIO/Src/usbh_audio.c **** 
 342:Middlewares/ST/STM32_USB_Host_Library/Class/AUDIO/Src/usbh_audio.c **** 
 343:Middlewares/ST/STM32_USB_Host_Library/Class/AUDIO/Src/usbh_audio.c **** /**
 344:Middlewares/ST/STM32_USB_Host_Library/Class/AUDIO/Src/usbh_audio.c ****   * @brief  USBH_AUDIO_InterfaceDeInit 
 345:Middlewares/ST/STM32_USB_Host_Library/Class/AUDIO/Src/usbh_audio.c ****   *         The function DeInit the Pipes used for the Audio class.
 346:Middlewares/ST/STM32_USB_Host_Library/Class/AUDIO/Src/usbh_audio.c ****   * @param  phost: Host handle
 347:Middlewares/ST/STM32_USB_Host_Library/Class/AUDIO/Src/usbh_audio.c ****   * @retval USBH Status
 348:Middlewares/ST/STM32_USB_Host_Library/Class/AUDIO/Src/usbh_audio.c ****   */
 349:Middlewares/ST/STM32_USB_Host_Library/Class/AUDIO/Src/usbh_audio.c **** USBH_StatusTypeDef USBH_AUDIO_InterfaceDeInit (USBH_HandleTypeDef *phost)
 350:Middlewares/ST/STM32_USB_Host_Library/Class/AUDIO/Src/usbh_audio.c **** {
 351:Middlewares/ST/STM32_USB_Host_Library/Class/AUDIO/Src/usbh_audio.c ****   AUDIO_HandleTypeDef *AUDIO_Handle =  (AUDIO_HandleTypeDef *) phost->pActiveClass->pData; 
 352:Middlewares/ST/STM32_USB_Host_Library/Class/AUDIO/Src/usbh_audio.c ****   
 353:Middlewares/ST/STM32_USB_Host_Library/Class/AUDIO/Src/usbh_audio.c ****   if(AUDIO_Handle->microphone.Pipe != 0x00)
 354:Middlewares/ST/STM32_USB_Host_Library/Class/AUDIO/Src/usbh_audio.c ****   {   
 355:Middlewares/ST/STM32_USB_Host_Library/Class/AUDIO/Src/usbh_audio.c ****     USBH_ClosePipe  (phost, AUDIO_Handle->microphone.Pipe);
 356:Middlewares/ST/STM32_USB_Host_Library/Class/AUDIO/Src/usbh_audio.c ****     USBH_FreePipe  (phost, AUDIO_Handle->microphone.Pipe);
 357:Middlewares/ST/STM32_USB_Host_Library/Class/AUDIO/Src/usbh_audio.c ****     AUDIO_Handle->microphone.Pipe = 0;     /* Reset the pipe as Free */  
 358:Middlewares/ST/STM32_USB_Host_Library/Class/AUDIO/Src/usbh_audio.c ****   }
 359:Middlewares/ST/STM32_USB_Host_Library/Class/AUDIO/Src/usbh_audio.c ****   
 360:Middlewares/ST/STM32_USB_Host_Library/Class/AUDIO/Src/usbh_audio.c ****   if( AUDIO_Handle->headphone.Pipe != 0x00)
 361:Middlewares/ST/STM32_USB_Host_Library/Class/AUDIO/Src/usbh_audio.c ****   {   
 362:Middlewares/ST/STM32_USB_Host_Library/Class/AUDIO/Src/usbh_audio.c ****     USBH_ClosePipe(phost,  AUDIO_Handle->headphone.Pipe);
 363:Middlewares/ST/STM32_USB_Host_Library/Class/AUDIO/Src/usbh_audio.c ****     USBH_FreePipe  (phost,  AUDIO_Handle->headphone.Pipe);
 364:Middlewares/ST/STM32_USB_Host_Library/Class/AUDIO/Src/usbh_audio.c ****     AUDIO_Handle->headphone.Pipe = 0;     /* Reset the pipe as Free */  
 365:Middlewares/ST/STM32_USB_Host_Library/Class/AUDIO/Src/usbh_audio.c ****   }
 366:Middlewares/ST/STM32_USB_Host_Library/Class/AUDIO/Src/usbh_audio.c ****   
 367:Middlewares/ST/STM32_USB_Host_Library/Class/AUDIO/Src/usbh_audio.c ****   if( AUDIO_Handle->control.Pipe != 0x00)
 368:Middlewares/ST/STM32_USB_Host_Library/Class/AUDIO/Src/usbh_audio.c ****   {   
 369:Middlewares/ST/STM32_USB_Host_Library/Class/AUDIO/Src/usbh_audio.c ****     USBH_ClosePipe(phost,  AUDIO_Handle->control.Pipe);
 370:Middlewares/ST/STM32_USB_Host_Library/Class/AUDIO/Src/usbh_audio.c ****     USBH_FreePipe  (phost,  AUDIO_Handle->control.Pipe);
 371:Middlewares/ST/STM32_USB_Host_Library/Class/AUDIO/Src/usbh_audio.c ****     AUDIO_Handle->control.Pipe = 0;     /* Reset the pipe as Free */  
 372:Middlewares/ST/STM32_USB_Host_Library/Class/AUDIO/Src/usbh_audio.c ****   }
ARM GAS  /tmp/cc7hx4Eu.s 			page 8


 373:Middlewares/ST/STM32_USB_Host_Library/Class/AUDIO/Src/usbh_audio.c ****   
 374:Middlewares/ST/STM32_USB_Host_Library/Class/AUDIO/Src/usbh_audio.c ****   if(phost->pActiveClass->pData)
 375:Middlewares/ST/STM32_USB_Host_Library/Class/AUDIO/Src/usbh_audio.c ****   {
 376:Middlewares/ST/STM32_USB_Host_Library/Class/AUDIO/Src/usbh_audio.c ****     USBH_free (phost->pActiveClass->pData);
 377:Middlewares/ST/STM32_USB_Host_Library/Class/AUDIO/Src/usbh_audio.c ****     phost->pActiveClass->pData = 0;
 378:Middlewares/ST/STM32_USB_Host_Library/Class/AUDIO/Src/usbh_audio.c ****   }  
 379:Middlewares/ST/STM32_USB_Host_Library/Class/AUDIO/Src/usbh_audio.c ****   return USBH_OK ;
 380:Middlewares/ST/STM32_USB_Host_Library/Class/AUDIO/Src/usbh_audio.c **** }
 381:Middlewares/ST/STM32_USB_Host_Library/Class/AUDIO/Src/usbh_audio.c **** 
 382:Middlewares/ST/STM32_USB_Host_Library/Class/AUDIO/Src/usbh_audio.c **** /**
 383:Middlewares/ST/STM32_USB_Host_Library/Class/AUDIO/Src/usbh_audio.c ****   * @brief  USBH_AUDIO_ClassRequest 
 384:Middlewares/ST/STM32_USB_Host_Library/Class/AUDIO/Src/usbh_audio.c ****   *         The function is responsible for handling Standard requests
 385:Middlewares/ST/STM32_USB_Host_Library/Class/AUDIO/Src/usbh_audio.c ****   *         for Audio class.
 386:Middlewares/ST/STM32_USB_Host_Library/Class/AUDIO/Src/usbh_audio.c ****   * @param  phost: Host handle
 387:Middlewares/ST/STM32_USB_Host_Library/Class/AUDIO/Src/usbh_audio.c ****   * @retval USBH Status
 388:Middlewares/ST/STM32_USB_Host_Library/Class/AUDIO/Src/usbh_audio.c ****   */
 389:Middlewares/ST/STM32_USB_Host_Library/Class/AUDIO/Src/usbh_audio.c **** static USBH_StatusTypeDef USBH_AUDIO_ClassRequest(USBH_HandleTypeDef *phost)
 390:Middlewares/ST/STM32_USB_Host_Library/Class/AUDIO/Src/usbh_audio.c **** {   
 391:Middlewares/ST/STM32_USB_Host_Library/Class/AUDIO/Src/usbh_audio.c ****   AUDIO_HandleTypeDef *AUDIO_Handle =  (AUDIO_HandleTypeDef *) phost->pActiveClass->pData;  
 392:Middlewares/ST/STM32_USB_Host_Library/Class/AUDIO/Src/usbh_audio.c ****   USBH_StatusTypeDef status = USBH_BUSY;
 393:Middlewares/ST/STM32_USB_Host_Library/Class/AUDIO/Src/usbh_audio.c ****   USBH_StatusTypeDef req_status = USBH_BUSY;
 394:Middlewares/ST/STM32_USB_Host_Library/Class/AUDIO/Src/usbh_audio.c ****   
 395:Middlewares/ST/STM32_USB_Host_Library/Class/AUDIO/Src/usbh_audio.c ****   /* Switch AUDIO REQ state machine */
 396:Middlewares/ST/STM32_USB_Host_Library/Class/AUDIO/Src/usbh_audio.c ****   switch (AUDIO_Handle->req_state)
 397:Middlewares/ST/STM32_USB_Host_Library/Class/AUDIO/Src/usbh_audio.c ****   {
 398:Middlewares/ST/STM32_USB_Host_Library/Class/AUDIO/Src/usbh_audio.c ****   case AUDIO_REQ_INIT:
 399:Middlewares/ST/STM32_USB_Host_Library/Class/AUDIO/Src/usbh_audio.c ****   case AUDIO_REQ_SET_DEFAULT_IN_INTERFACE:
 400:Middlewares/ST/STM32_USB_Host_Library/Class/AUDIO/Src/usbh_audio.c ****     if(AUDIO_Handle->microphone.supported == 1)
 401:Middlewares/ST/STM32_USB_Host_Library/Class/AUDIO/Src/usbh_audio.c ****     {
 402:Middlewares/ST/STM32_USB_Host_Library/Class/AUDIO/Src/usbh_audio.c ****       req_status = USBH_SetInterface(phost, 
 403:Middlewares/ST/STM32_USB_Host_Library/Class/AUDIO/Src/usbh_audio.c ****                                      AUDIO_Handle->microphone.interface, 
 404:Middlewares/ST/STM32_USB_Host_Library/Class/AUDIO/Src/usbh_audio.c ****                                      0);
 405:Middlewares/ST/STM32_USB_Host_Library/Class/AUDIO/Src/usbh_audio.c ****       
 406:Middlewares/ST/STM32_USB_Host_Library/Class/AUDIO/Src/usbh_audio.c ****       if(req_status == USBH_OK)
 407:Middlewares/ST/STM32_USB_Host_Library/Class/AUDIO/Src/usbh_audio.c ****       {
 408:Middlewares/ST/STM32_USB_Host_Library/Class/AUDIO/Src/usbh_audio.c ****         AUDIO_Handle->req_state = AUDIO_REQ_SET_DEFAULT_OUT_INTERFACE;
 409:Middlewares/ST/STM32_USB_Host_Library/Class/AUDIO/Src/usbh_audio.c ****       }
 410:Middlewares/ST/STM32_USB_Host_Library/Class/AUDIO/Src/usbh_audio.c ****       
 411:Middlewares/ST/STM32_USB_Host_Library/Class/AUDIO/Src/usbh_audio.c ****     }
 412:Middlewares/ST/STM32_USB_Host_Library/Class/AUDIO/Src/usbh_audio.c ****     else
 413:Middlewares/ST/STM32_USB_Host_Library/Class/AUDIO/Src/usbh_audio.c ****     {
 414:Middlewares/ST/STM32_USB_Host_Library/Class/AUDIO/Src/usbh_audio.c ****       AUDIO_Handle->req_state = AUDIO_REQ_SET_DEFAULT_OUT_INTERFACE;
 415:Middlewares/ST/STM32_USB_Host_Library/Class/AUDIO/Src/usbh_audio.c **** #if (USBH_USE_OS == 1)
 416:Middlewares/ST/STM32_USB_Host_Library/Class/AUDIO/Src/usbh_audio.c ****       osMessagePut ( phost->os_event, USBH_URB_EVENT, 0);
 417:Middlewares/ST/STM32_USB_Host_Library/Class/AUDIO/Src/usbh_audio.c **** #endif       
 418:Middlewares/ST/STM32_USB_Host_Library/Class/AUDIO/Src/usbh_audio.c ****     }
 419:Middlewares/ST/STM32_USB_Host_Library/Class/AUDIO/Src/usbh_audio.c ****     break;
 420:Middlewares/ST/STM32_USB_Host_Library/Class/AUDIO/Src/usbh_audio.c ****     
 421:Middlewares/ST/STM32_USB_Host_Library/Class/AUDIO/Src/usbh_audio.c ****   case AUDIO_REQ_SET_DEFAULT_OUT_INTERFACE:
 422:Middlewares/ST/STM32_USB_Host_Library/Class/AUDIO/Src/usbh_audio.c ****     if(AUDIO_Handle->headphone.supported == 1)
 423:Middlewares/ST/STM32_USB_Host_Library/Class/AUDIO/Src/usbh_audio.c ****     {
 424:Middlewares/ST/STM32_USB_Host_Library/Class/AUDIO/Src/usbh_audio.c ****       req_status = USBH_SetInterface(phost, 
 425:Middlewares/ST/STM32_USB_Host_Library/Class/AUDIO/Src/usbh_audio.c ****                                      AUDIO_Handle->headphone.interface, 
 426:Middlewares/ST/STM32_USB_Host_Library/Class/AUDIO/Src/usbh_audio.c ****                                      0);
 427:Middlewares/ST/STM32_USB_Host_Library/Class/AUDIO/Src/usbh_audio.c ****       
 428:Middlewares/ST/STM32_USB_Host_Library/Class/AUDIO/Src/usbh_audio.c ****       if(req_status == USBH_OK)
 429:Middlewares/ST/STM32_USB_Host_Library/Class/AUDIO/Src/usbh_audio.c ****       {
ARM GAS  /tmp/cc7hx4Eu.s 			page 9


 430:Middlewares/ST/STM32_USB_Host_Library/Class/AUDIO/Src/usbh_audio.c ****         AUDIO_Handle->req_state = AUDIO_REQ_CS_REQUESTS;
 431:Middlewares/ST/STM32_USB_Host_Library/Class/AUDIO/Src/usbh_audio.c ****         AUDIO_Handle->cs_req_state = AUDIO_REQ_GET_VOLUME;
 432:Middlewares/ST/STM32_USB_Host_Library/Class/AUDIO/Src/usbh_audio.c ****         
 433:Middlewares/ST/STM32_USB_Host_Library/Class/AUDIO/Src/usbh_audio.c ****         AUDIO_Handle->temp_feature  = AUDIO_Handle->headphone.asociated_feature;
 434:Middlewares/ST/STM32_USB_Host_Library/Class/AUDIO/Src/usbh_audio.c ****         AUDIO_Handle->temp_channels = AUDIO_Handle->headphone.asociated_channels;
 435:Middlewares/ST/STM32_USB_Host_Library/Class/AUDIO/Src/usbh_audio.c ****       }
 436:Middlewares/ST/STM32_USB_Host_Library/Class/AUDIO/Src/usbh_audio.c ****     }
 437:Middlewares/ST/STM32_USB_Host_Library/Class/AUDIO/Src/usbh_audio.c ****     else
 438:Middlewares/ST/STM32_USB_Host_Library/Class/AUDIO/Src/usbh_audio.c ****     {
 439:Middlewares/ST/STM32_USB_Host_Library/Class/AUDIO/Src/usbh_audio.c ****         AUDIO_Handle->req_state = AUDIO_REQ_CS_REQUESTS;
 440:Middlewares/ST/STM32_USB_Host_Library/Class/AUDIO/Src/usbh_audio.c ****         AUDIO_Handle->cs_req_state = AUDIO_REQ_GET_VOLUME;
 441:Middlewares/ST/STM32_USB_Host_Library/Class/AUDIO/Src/usbh_audio.c **** #if (USBH_USE_OS == 1)
 442:Middlewares/ST/STM32_USB_Host_Library/Class/AUDIO/Src/usbh_audio.c ****       osMessagePut ( phost->os_event, USBH_URB_EVENT, 0);
 443:Middlewares/ST/STM32_USB_Host_Library/Class/AUDIO/Src/usbh_audio.c **** #endif         
 444:Middlewares/ST/STM32_USB_Host_Library/Class/AUDIO/Src/usbh_audio.c ****     }
 445:Middlewares/ST/STM32_USB_Host_Library/Class/AUDIO/Src/usbh_audio.c ****     break;
 446:Middlewares/ST/STM32_USB_Host_Library/Class/AUDIO/Src/usbh_audio.c ****     
 447:Middlewares/ST/STM32_USB_Host_Library/Class/AUDIO/Src/usbh_audio.c ****   case AUDIO_REQ_CS_REQUESTS:
 448:Middlewares/ST/STM32_USB_Host_Library/Class/AUDIO/Src/usbh_audio.c ****     if(USBH_AUDIO_HandleCSRequest (phost) == USBH_OK)
 449:Middlewares/ST/STM32_USB_Host_Library/Class/AUDIO/Src/usbh_audio.c ****     {
 450:Middlewares/ST/STM32_USB_Host_Library/Class/AUDIO/Src/usbh_audio.c ****       AUDIO_Handle->req_state = AUDIO_REQ_SET_IN_INTERFACE;
 451:Middlewares/ST/STM32_USB_Host_Library/Class/AUDIO/Src/usbh_audio.c ****     }
 452:Middlewares/ST/STM32_USB_Host_Library/Class/AUDIO/Src/usbh_audio.c ****     break;
 453:Middlewares/ST/STM32_USB_Host_Library/Class/AUDIO/Src/usbh_audio.c ****    
 454:Middlewares/ST/STM32_USB_Host_Library/Class/AUDIO/Src/usbh_audio.c ****   case AUDIO_REQ_SET_IN_INTERFACE:
 455:Middlewares/ST/STM32_USB_Host_Library/Class/AUDIO/Src/usbh_audio.c ****     if(AUDIO_Handle->microphone.supported == 1)
 456:Middlewares/ST/STM32_USB_Host_Library/Class/AUDIO/Src/usbh_audio.c ****     {
 457:Middlewares/ST/STM32_USB_Host_Library/Class/AUDIO/Src/usbh_audio.c ****       req_status = USBH_SetInterface(phost, 
 458:Middlewares/ST/STM32_USB_Host_Library/Class/AUDIO/Src/usbh_audio.c ****                                      AUDIO_Handle->microphone.interface, 
 459:Middlewares/ST/STM32_USB_Host_Library/Class/AUDIO/Src/usbh_audio.c ****                                      AUDIO_Handle->microphone.AltSettings);
 460:Middlewares/ST/STM32_USB_Host_Library/Class/AUDIO/Src/usbh_audio.c ****       
 461:Middlewares/ST/STM32_USB_Host_Library/Class/AUDIO/Src/usbh_audio.c ****       if(req_status == USBH_OK)
 462:Middlewares/ST/STM32_USB_Host_Library/Class/AUDIO/Src/usbh_audio.c ****       {
 463:Middlewares/ST/STM32_USB_Host_Library/Class/AUDIO/Src/usbh_audio.c ****         AUDIO_Handle->req_state = AUDIO_REQ_SET_OUT_INTERFACE;
 464:Middlewares/ST/STM32_USB_Host_Library/Class/AUDIO/Src/usbh_audio.c ****       }
 465:Middlewares/ST/STM32_USB_Host_Library/Class/AUDIO/Src/usbh_audio.c ****     }
 466:Middlewares/ST/STM32_USB_Host_Library/Class/AUDIO/Src/usbh_audio.c ****     else
 467:Middlewares/ST/STM32_USB_Host_Library/Class/AUDIO/Src/usbh_audio.c ****     {
 468:Middlewares/ST/STM32_USB_Host_Library/Class/AUDIO/Src/usbh_audio.c ****       AUDIO_Handle->req_state = AUDIO_REQ_SET_OUT_INTERFACE;
 469:Middlewares/ST/STM32_USB_Host_Library/Class/AUDIO/Src/usbh_audio.c **** #if (USBH_USE_OS == 1)
 470:Middlewares/ST/STM32_USB_Host_Library/Class/AUDIO/Src/usbh_audio.c ****       osMessagePut ( phost->os_event, USBH_URB_EVENT, 0);
 471:Middlewares/ST/STM32_USB_Host_Library/Class/AUDIO/Src/usbh_audio.c **** #endif       
 472:Middlewares/ST/STM32_USB_Host_Library/Class/AUDIO/Src/usbh_audio.c ****     }
 473:Middlewares/ST/STM32_USB_Host_Library/Class/AUDIO/Src/usbh_audio.c ****     break;
 474:Middlewares/ST/STM32_USB_Host_Library/Class/AUDIO/Src/usbh_audio.c ****   case AUDIO_REQ_SET_OUT_INTERFACE:
 475:Middlewares/ST/STM32_USB_Host_Library/Class/AUDIO/Src/usbh_audio.c ****    if(AUDIO_Handle->headphone.supported == 1)
 476:Middlewares/ST/STM32_USB_Host_Library/Class/AUDIO/Src/usbh_audio.c ****     {
 477:Middlewares/ST/STM32_USB_Host_Library/Class/AUDIO/Src/usbh_audio.c ****       req_status = USBH_SetInterface(phost, 
 478:Middlewares/ST/STM32_USB_Host_Library/Class/AUDIO/Src/usbh_audio.c ****                                      AUDIO_Handle->headphone.interface, 
 479:Middlewares/ST/STM32_USB_Host_Library/Class/AUDIO/Src/usbh_audio.c ****                                      AUDIO_Handle->headphone.AltSettings);
 480:Middlewares/ST/STM32_USB_Host_Library/Class/AUDIO/Src/usbh_audio.c ****       
 481:Middlewares/ST/STM32_USB_Host_Library/Class/AUDIO/Src/usbh_audio.c ****       if(req_status == USBH_OK)
 482:Middlewares/ST/STM32_USB_Host_Library/Class/AUDIO/Src/usbh_audio.c ****       {
 483:Middlewares/ST/STM32_USB_Host_Library/Class/AUDIO/Src/usbh_audio.c ****         AUDIO_Handle->req_state = AUDIO_REQ_IDLE;
 484:Middlewares/ST/STM32_USB_Host_Library/Class/AUDIO/Src/usbh_audio.c ****       }
 485:Middlewares/ST/STM32_USB_Host_Library/Class/AUDIO/Src/usbh_audio.c ****       
 486:Middlewares/ST/STM32_USB_Host_Library/Class/AUDIO/Src/usbh_audio.c ****     }
ARM GAS  /tmp/cc7hx4Eu.s 			page 10


 487:Middlewares/ST/STM32_USB_Host_Library/Class/AUDIO/Src/usbh_audio.c ****    else
 488:Middlewares/ST/STM32_USB_Host_Library/Class/AUDIO/Src/usbh_audio.c ****    {
 489:Middlewares/ST/STM32_USB_Host_Library/Class/AUDIO/Src/usbh_audio.c ****      AUDIO_Handle->req_state = AUDIO_REQ_IDLE;
 490:Middlewares/ST/STM32_USB_Host_Library/Class/AUDIO/Src/usbh_audio.c **** #if (USBH_USE_OS == 1)
 491:Middlewares/ST/STM32_USB_Host_Library/Class/AUDIO/Src/usbh_audio.c ****       osMessagePut ( phost->os_event, USBH_URB_EVENT, 0);
 492:Middlewares/ST/STM32_USB_Host_Library/Class/AUDIO/Src/usbh_audio.c **** #endif      
 493:Middlewares/ST/STM32_USB_Host_Library/Class/AUDIO/Src/usbh_audio.c ****    }
 494:Middlewares/ST/STM32_USB_Host_Library/Class/AUDIO/Src/usbh_audio.c ****    break;
 495:Middlewares/ST/STM32_USB_Host_Library/Class/AUDIO/Src/usbh_audio.c ****   case AUDIO_REQ_IDLE:
 496:Middlewares/ST/STM32_USB_Host_Library/Class/AUDIO/Src/usbh_audio.c ****     AUDIO_Handle->play_state = AUDIO_PLAYBACK_INIT;
 497:Middlewares/ST/STM32_USB_Host_Library/Class/AUDIO/Src/usbh_audio.c ****     phost->pUser(phost, HOST_USER_CLASS_ACTIVE); 
 498:Middlewares/ST/STM32_USB_Host_Library/Class/AUDIO/Src/usbh_audio.c ****     status  = USBH_OK;    
 499:Middlewares/ST/STM32_USB_Host_Library/Class/AUDIO/Src/usbh_audio.c **** #if (USBH_USE_OS == 1)
 500:Middlewares/ST/STM32_USB_Host_Library/Class/AUDIO/Src/usbh_audio.c ****       osMessagePut ( phost->os_event, USBH_CLASS_EVENT, 0);
 501:Middlewares/ST/STM32_USB_Host_Library/Class/AUDIO/Src/usbh_audio.c **** #endif
 502:Middlewares/ST/STM32_USB_Host_Library/Class/AUDIO/Src/usbh_audio.c ****   default:
 503:Middlewares/ST/STM32_USB_Host_Library/Class/AUDIO/Src/usbh_audio.c ****     break;
 504:Middlewares/ST/STM32_USB_Host_Library/Class/AUDIO/Src/usbh_audio.c ****   }
 505:Middlewares/ST/STM32_USB_Host_Library/Class/AUDIO/Src/usbh_audio.c ****   return status; 
 506:Middlewares/ST/STM32_USB_Host_Library/Class/AUDIO/Src/usbh_audio.c **** }
 507:Middlewares/ST/STM32_USB_Host_Library/Class/AUDIO/Src/usbh_audio.c **** 
 508:Middlewares/ST/STM32_USB_Host_Library/Class/AUDIO/Src/usbh_audio.c **** /**
 509:Middlewares/ST/STM32_USB_Host_Library/Class/AUDIO/Src/usbh_audio.c ****   * @brief  USBH_AUDIO_CSRequest 
 510:Middlewares/ST/STM32_USB_Host_Library/Class/AUDIO/Src/usbh_audio.c ****   *         The function is responsible for handling AC Specific requests for a specific feature an
 511:Middlewares/ST/STM32_USB_Host_Library/Class/AUDIO/Src/usbh_audio.c ****   *         for Audio class.
 512:Middlewares/ST/STM32_USB_Host_Library/Class/AUDIO/Src/usbh_audio.c ****   * @param  phost: Host handle
 513:Middlewares/ST/STM32_USB_Host_Library/Class/AUDIO/Src/usbh_audio.c ****   * @retval USBH Status
 514:Middlewares/ST/STM32_USB_Host_Library/Class/AUDIO/Src/usbh_audio.c ****   */
 515:Middlewares/ST/STM32_USB_Host_Library/Class/AUDIO/Src/usbh_audio.c **** static USBH_StatusTypeDef USBH_AUDIO_CSRequest(USBH_HandleTypeDef *phost, uint8_t feature, uint8_t 
 516:Middlewares/ST/STM32_USB_Host_Library/Class/AUDIO/Src/usbh_audio.c **** {   
 517:Middlewares/ST/STM32_USB_Host_Library/Class/AUDIO/Src/usbh_audio.c ****   AUDIO_HandleTypeDef *AUDIO_Handle =  (AUDIO_HandleTypeDef *) phost->pActiveClass->pData;  
 518:Middlewares/ST/STM32_USB_Host_Library/Class/AUDIO/Src/usbh_audio.c ****   USBH_StatusTypeDef status = USBH_BUSY;
 519:Middlewares/ST/STM32_USB_Host_Library/Class/AUDIO/Src/usbh_audio.c ****   USBH_StatusTypeDef req_status = USBH_BUSY;
 520:Middlewares/ST/STM32_USB_Host_Library/Class/AUDIO/Src/usbh_audio.c ****   
 521:Middlewares/ST/STM32_USB_Host_Library/Class/AUDIO/Src/usbh_audio.c ****   /* Switch AUDIO REQ state machine */
 522:Middlewares/ST/STM32_USB_Host_Library/Class/AUDIO/Src/usbh_audio.c ****   switch (AUDIO_Handle->cs_req_state)
 523:Middlewares/ST/STM32_USB_Host_Library/Class/AUDIO/Src/usbh_audio.c ****   {
 524:Middlewares/ST/STM32_USB_Host_Library/Class/AUDIO/Src/usbh_audio.c ****   case AUDIO_REQ_GET_VOLUME:
 525:Middlewares/ST/STM32_USB_Host_Library/Class/AUDIO/Src/usbh_audio.c ****     req_status = USBH_AC_GetCur(phost,                 
 526:Middlewares/ST/STM32_USB_Host_Library/Class/AUDIO/Src/usbh_audio.c ****                                 UAC_FEATURE_UNIT,     /* subtype  */
 527:Middlewares/ST/STM32_USB_Host_Library/Class/AUDIO/Src/usbh_audio.c ****                                 feature,              /* feature  */
 528:Middlewares/ST/STM32_USB_Host_Library/Class/AUDIO/Src/usbh_audio.c ****                                 VOLUME_CONTROL,       /* Selector */
 529:Middlewares/ST/STM32_USB_Host_Library/Class/AUDIO/Src/usbh_audio.c ****                                 channel,              /* channel  */
 530:Middlewares/ST/STM32_USB_Host_Library/Class/AUDIO/Src/usbh_audio.c ****                                 0x02);                /* length   */
 531:Middlewares/ST/STM32_USB_Host_Library/Class/AUDIO/Src/usbh_audio.c ****     if(req_status != USBH_BUSY)
 532:Middlewares/ST/STM32_USB_Host_Library/Class/AUDIO/Src/usbh_audio.c ****     {
 533:Middlewares/ST/STM32_USB_Host_Library/Class/AUDIO/Src/usbh_audio.c ****       AUDIO_Handle->cs_req_state = AUDIO_REQ_GET_MIN_VOLUME;
 534:Middlewares/ST/STM32_USB_Host_Library/Class/AUDIO/Src/usbh_audio.c ****       AUDIO_Handle->headphone.attribute.volume = LE16(&(AUDIO_Handle->mem[0]));
 535:Middlewares/ST/STM32_USB_Host_Library/Class/AUDIO/Src/usbh_audio.c ****     }
 536:Middlewares/ST/STM32_USB_Host_Library/Class/AUDIO/Src/usbh_audio.c ****     break;
 537:Middlewares/ST/STM32_USB_Host_Library/Class/AUDIO/Src/usbh_audio.c ****     
 538:Middlewares/ST/STM32_USB_Host_Library/Class/AUDIO/Src/usbh_audio.c ****   case AUDIO_REQ_GET_MIN_VOLUME:
 539:Middlewares/ST/STM32_USB_Host_Library/Class/AUDIO/Src/usbh_audio.c ****     req_status = USBH_AC_GetMin(phost,                 
 540:Middlewares/ST/STM32_USB_Host_Library/Class/AUDIO/Src/usbh_audio.c ****                                 UAC_FEATURE_UNIT,     /* subtype  */
 541:Middlewares/ST/STM32_USB_Host_Library/Class/AUDIO/Src/usbh_audio.c ****                                 feature,              /* feature  */
 542:Middlewares/ST/STM32_USB_Host_Library/Class/AUDIO/Src/usbh_audio.c ****                                 VOLUME_CONTROL,       /* Selector */
 543:Middlewares/ST/STM32_USB_Host_Library/Class/AUDIO/Src/usbh_audio.c ****                                 channel,              /* channel  */
ARM GAS  /tmp/cc7hx4Eu.s 			page 11


 544:Middlewares/ST/STM32_USB_Host_Library/Class/AUDIO/Src/usbh_audio.c ****                                 0x02);                /* length   */
 545:Middlewares/ST/STM32_USB_Host_Library/Class/AUDIO/Src/usbh_audio.c ****     if(req_status != USBH_BUSY)
 546:Middlewares/ST/STM32_USB_Host_Library/Class/AUDIO/Src/usbh_audio.c ****     {
 547:Middlewares/ST/STM32_USB_Host_Library/Class/AUDIO/Src/usbh_audio.c ****       AUDIO_Handle->cs_req_state = AUDIO_REQ_GET_MAX_VOLUME;
 548:Middlewares/ST/STM32_USB_Host_Library/Class/AUDIO/Src/usbh_audio.c ****       AUDIO_Handle->headphone.attribute.volumeMin = LE16(&AUDIO_Handle->mem[0]);
 549:Middlewares/ST/STM32_USB_Host_Library/Class/AUDIO/Src/usbh_audio.c ****     }
 550:Middlewares/ST/STM32_USB_Host_Library/Class/AUDIO/Src/usbh_audio.c ****     break;
 551:Middlewares/ST/STM32_USB_Host_Library/Class/AUDIO/Src/usbh_audio.c **** 
 552:Middlewares/ST/STM32_USB_Host_Library/Class/AUDIO/Src/usbh_audio.c ****   case AUDIO_REQ_GET_MAX_VOLUME:
 553:Middlewares/ST/STM32_USB_Host_Library/Class/AUDIO/Src/usbh_audio.c ****     req_status = USBH_AC_GetMax(phost,                 
 554:Middlewares/ST/STM32_USB_Host_Library/Class/AUDIO/Src/usbh_audio.c ****                                 UAC_FEATURE_UNIT,     /* subtype  */
 555:Middlewares/ST/STM32_USB_Host_Library/Class/AUDIO/Src/usbh_audio.c ****                                 feature,              /* feature  */
 556:Middlewares/ST/STM32_USB_Host_Library/Class/AUDIO/Src/usbh_audio.c ****                                 VOLUME_CONTROL,       /* Selector */
 557:Middlewares/ST/STM32_USB_Host_Library/Class/AUDIO/Src/usbh_audio.c ****                                 channel,              /* channel  */
 558:Middlewares/ST/STM32_USB_Host_Library/Class/AUDIO/Src/usbh_audio.c ****                                 0x02);                /* length   */
 559:Middlewares/ST/STM32_USB_Host_Library/Class/AUDIO/Src/usbh_audio.c ****     if(req_status != USBH_BUSY)
 560:Middlewares/ST/STM32_USB_Host_Library/Class/AUDIO/Src/usbh_audio.c ****     {
 561:Middlewares/ST/STM32_USB_Host_Library/Class/AUDIO/Src/usbh_audio.c ****       AUDIO_Handle->cs_req_state = AUDIO_REQ_GET_RESOLUTION;
 562:Middlewares/ST/STM32_USB_Host_Library/Class/AUDIO/Src/usbh_audio.c ****       AUDIO_Handle->headphone.attribute.volumeMax = LE16(&AUDIO_Handle->mem[0]);   
 563:Middlewares/ST/STM32_USB_Host_Library/Class/AUDIO/Src/usbh_audio.c ****       
 564:Middlewares/ST/STM32_USB_Host_Library/Class/AUDIO/Src/usbh_audio.c ****       if (AUDIO_Handle->headphone.attribute.volumeMax < AUDIO_Handle->headphone.attribute.volumeMin
 565:Middlewares/ST/STM32_USB_Host_Library/Class/AUDIO/Src/usbh_audio.c ****       {
 566:Middlewares/ST/STM32_USB_Host_Library/Class/AUDIO/Src/usbh_audio.c ****         AUDIO_Handle->headphone.attribute.volumeMax = 0xFF00; 
 567:Middlewares/ST/STM32_USB_Host_Library/Class/AUDIO/Src/usbh_audio.c ****       }
 568:Middlewares/ST/STM32_USB_Host_Library/Class/AUDIO/Src/usbh_audio.c ****     }
 569:Middlewares/ST/STM32_USB_Host_Library/Class/AUDIO/Src/usbh_audio.c ****     break;
 570:Middlewares/ST/STM32_USB_Host_Library/Class/AUDIO/Src/usbh_audio.c ****     
 571:Middlewares/ST/STM32_USB_Host_Library/Class/AUDIO/Src/usbh_audio.c ****   case AUDIO_REQ_GET_RESOLUTION:
 572:Middlewares/ST/STM32_USB_Host_Library/Class/AUDIO/Src/usbh_audio.c ****     req_status = USBH_AC_GetRes(phost,                 
 573:Middlewares/ST/STM32_USB_Host_Library/Class/AUDIO/Src/usbh_audio.c ****                                 UAC_FEATURE_UNIT,     /* subtype  */
 574:Middlewares/ST/STM32_USB_Host_Library/Class/AUDIO/Src/usbh_audio.c ****                                 feature,              /* feature  */
 575:Middlewares/ST/STM32_USB_Host_Library/Class/AUDIO/Src/usbh_audio.c ****                                 VOLUME_CONTROL,       /* Selector */
 576:Middlewares/ST/STM32_USB_Host_Library/Class/AUDIO/Src/usbh_audio.c ****                                 channel,              /* channel  */
 577:Middlewares/ST/STM32_USB_Host_Library/Class/AUDIO/Src/usbh_audio.c ****                                 0x02);                /* length   */
 578:Middlewares/ST/STM32_USB_Host_Library/Class/AUDIO/Src/usbh_audio.c ****     if(req_status != USBH_BUSY)
 579:Middlewares/ST/STM32_USB_Host_Library/Class/AUDIO/Src/usbh_audio.c ****     {
 580:Middlewares/ST/STM32_USB_Host_Library/Class/AUDIO/Src/usbh_audio.c ****       AUDIO_Handle->cs_req_state = AUDIO_REQ_CS_IDLE;
 581:Middlewares/ST/STM32_USB_Host_Library/Class/AUDIO/Src/usbh_audio.c ****       AUDIO_Handle->headphone.attribute.resolution = LE16(&AUDIO_Handle->mem[0]);    
 582:Middlewares/ST/STM32_USB_Host_Library/Class/AUDIO/Src/usbh_audio.c ****     }
 583:Middlewares/ST/STM32_USB_Host_Library/Class/AUDIO/Src/usbh_audio.c ****     break;
 584:Middlewares/ST/STM32_USB_Host_Library/Class/AUDIO/Src/usbh_audio.c ****     
 585:Middlewares/ST/STM32_USB_Host_Library/Class/AUDIO/Src/usbh_audio.c ****  
 586:Middlewares/ST/STM32_USB_Host_Library/Class/AUDIO/Src/usbh_audio.c ****   case AUDIO_REQ_CS_IDLE:
 587:Middlewares/ST/STM32_USB_Host_Library/Class/AUDIO/Src/usbh_audio.c ****     status = USBH_OK;
 588:Middlewares/ST/STM32_USB_Host_Library/Class/AUDIO/Src/usbh_audio.c ****   default:
 589:Middlewares/ST/STM32_USB_Host_Library/Class/AUDIO/Src/usbh_audio.c ****     break;
 590:Middlewares/ST/STM32_USB_Host_Library/Class/AUDIO/Src/usbh_audio.c ****   }
 591:Middlewares/ST/STM32_USB_Host_Library/Class/AUDIO/Src/usbh_audio.c ****   return status; 
 592:Middlewares/ST/STM32_USB_Host_Library/Class/AUDIO/Src/usbh_audio.c **** }
 593:Middlewares/ST/STM32_USB_Host_Library/Class/AUDIO/Src/usbh_audio.c **** 
 594:Middlewares/ST/STM32_USB_Host_Library/Class/AUDIO/Src/usbh_audio.c **** /**
 595:Middlewares/ST/STM32_USB_Host_Library/Class/AUDIO/Src/usbh_audio.c ****   * @brief  USBH_AUDIO_HandleCSRequest 
 596:Middlewares/ST/STM32_USB_Host_Library/Class/AUDIO/Src/usbh_audio.c ****   *         The function is responsible for handling AC Specific requests for a all features 
 597:Middlewares/ST/STM32_USB_Host_Library/Class/AUDIO/Src/usbh_audio.c ****   *         and associated channels for Audio class.
 598:Middlewares/ST/STM32_USB_Host_Library/Class/AUDIO/Src/usbh_audio.c ****   * @param  phost: Host handle
 599:Middlewares/ST/STM32_USB_Host_Library/Class/AUDIO/Src/usbh_audio.c ****   * @retval USBH Status
 600:Middlewares/ST/STM32_USB_Host_Library/Class/AUDIO/Src/usbh_audio.c ****   */
ARM GAS  /tmp/cc7hx4Eu.s 			page 12


 601:Middlewares/ST/STM32_USB_Host_Library/Class/AUDIO/Src/usbh_audio.c **** static USBH_StatusTypeDef USBH_AUDIO_HandleCSRequest(USBH_HandleTypeDef *phost)
 602:Middlewares/ST/STM32_USB_Host_Library/Class/AUDIO/Src/usbh_audio.c **** { 
 603:Middlewares/ST/STM32_USB_Host_Library/Class/AUDIO/Src/usbh_audio.c **** 
 604:Middlewares/ST/STM32_USB_Host_Library/Class/AUDIO/Src/usbh_audio.c ****   USBH_StatusTypeDef status = USBH_BUSY;
 605:Middlewares/ST/STM32_USB_Host_Library/Class/AUDIO/Src/usbh_audio.c ****   USBH_StatusTypeDef cs_status = USBH_BUSY;
 606:Middlewares/ST/STM32_USB_Host_Library/Class/AUDIO/Src/usbh_audio.c ****   AUDIO_HandleTypeDef *AUDIO_Handle =  (AUDIO_HandleTypeDef *) phost->pActiveClass->pData;  
 607:Middlewares/ST/STM32_USB_Host_Library/Class/AUDIO/Src/usbh_audio.c ****         
 608:Middlewares/ST/STM32_USB_Host_Library/Class/AUDIO/Src/usbh_audio.c ****   cs_status = USBH_AUDIO_CSRequest(phost, 
 609:Middlewares/ST/STM32_USB_Host_Library/Class/AUDIO/Src/usbh_audio.c ****                                    AUDIO_Handle->temp_feature, 
 610:Middlewares/ST/STM32_USB_Host_Library/Class/AUDIO/Src/usbh_audio.c ****                                    AUDIO_Handle->temp_channels);
 611:Middlewares/ST/STM32_USB_Host_Library/Class/AUDIO/Src/usbh_audio.c ****   
 612:Middlewares/ST/STM32_USB_Host_Library/Class/AUDIO/Src/usbh_audio.c ****   if(cs_status != USBH_BUSY)
 613:Middlewares/ST/STM32_USB_Host_Library/Class/AUDIO/Src/usbh_audio.c ****   {
 614:Middlewares/ST/STM32_USB_Host_Library/Class/AUDIO/Src/usbh_audio.c ****     
 615:Middlewares/ST/STM32_USB_Host_Library/Class/AUDIO/Src/usbh_audio.c ****     if(AUDIO_Handle->temp_channels ==  1)
 616:Middlewares/ST/STM32_USB_Host_Library/Class/AUDIO/Src/usbh_audio.c ****     {
 617:Middlewares/ST/STM32_USB_Host_Library/Class/AUDIO/Src/usbh_audio.c ****         AUDIO_Handle->temp_feature = AUDIO_Handle->headphone.asociated_feature;
 618:Middlewares/ST/STM32_USB_Host_Library/Class/AUDIO/Src/usbh_audio.c ****         AUDIO_Handle->temp_channels = 0;
 619:Middlewares/ST/STM32_USB_Host_Library/Class/AUDIO/Src/usbh_audio.c ****         status = USBH_OK; 
 620:Middlewares/ST/STM32_USB_Host_Library/Class/AUDIO/Src/usbh_audio.c ****     }
 621:Middlewares/ST/STM32_USB_Host_Library/Class/AUDIO/Src/usbh_audio.c ****     else
 622:Middlewares/ST/STM32_USB_Host_Library/Class/AUDIO/Src/usbh_audio.c ****     {
 623:Middlewares/ST/STM32_USB_Host_Library/Class/AUDIO/Src/usbh_audio.c ****       AUDIO_Handle->temp_channels--;
 624:Middlewares/ST/STM32_USB_Host_Library/Class/AUDIO/Src/usbh_audio.c ****     }
 625:Middlewares/ST/STM32_USB_Host_Library/Class/AUDIO/Src/usbh_audio.c ****     AUDIO_Handle->cs_req_state = AUDIO_REQ_GET_VOLUME;
 626:Middlewares/ST/STM32_USB_Host_Library/Class/AUDIO/Src/usbh_audio.c **** #if (USBH_USE_OS == 1)
 627:Middlewares/ST/STM32_USB_Host_Library/Class/AUDIO/Src/usbh_audio.c ****       osMessagePut ( phost->os_event, USBH_URB_EVENT, 0);
 628:Middlewares/ST/STM32_USB_Host_Library/Class/AUDIO/Src/usbh_audio.c **** #endif     
 629:Middlewares/ST/STM32_USB_Host_Library/Class/AUDIO/Src/usbh_audio.c ****   }
 630:Middlewares/ST/STM32_USB_Host_Library/Class/AUDIO/Src/usbh_audio.c ****   
 631:Middlewares/ST/STM32_USB_Host_Library/Class/AUDIO/Src/usbh_audio.c ****   return status;
 632:Middlewares/ST/STM32_USB_Host_Library/Class/AUDIO/Src/usbh_audio.c **** }
 633:Middlewares/ST/STM32_USB_Host_Library/Class/AUDIO/Src/usbh_audio.c **** 
 634:Middlewares/ST/STM32_USB_Host_Library/Class/AUDIO/Src/usbh_audio.c **** /**
 635:Middlewares/ST/STM32_USB_Host_Library/Class/AUDIO/Src/usbh_audio.c ****   * @brief  USBH_AUDIO_Process 
 636:Middlewares/ST/STM32_USB_Host_Library/Class/AUDIO/Src/usbh_audio.c ****   *         The function is for managing state machine for Audio data transfers 
 637:Middlewares/ST/STM32_USB_Host_Library/Class/AUDIO/Src/usbh_audio.c ****   * @param  phost: Host handle
 638:Middlewares/ST/STM32_USB_Host_Library/Class/AUDIO/Src/usbh_audio.c ****   * @retval USBH Status
 639:Middlewares/ST/STM32_USB_Host_Library/Class/AUDIO/Src/usbh_audio.c ****   */
 640:Middlewares/ST/STM32_USB_Host_Library/Class/AUDIO/Src/usbh_audio.c **** static USBH_StatusTypeDef USBH_AUDIO_Process (USBH_HandleTypeDef *phost)
 641:Middlewares/ST/STM32_USB_Host_Library/Class/AUDIO/Src/usbh_audio.c **** {   
 642:Middlewares/ST/STM32_USB_Host_Library/Class/AUDIO/Src/usbh_audio.c ****   USBH_StatusTypeDef status = USBH_BUSY;
 643:Middlewares/ST/STM32_USB_Host_Library/Class/AUDIO/Src/usbh_audio.c ****   AUDIO_HandleTypeDef *AUDIO_Handle =  (AUDIO_HandleTypeDef *)  phost->pActiveClass->pData;  
 644:Middlewares/ST/STM32_USB_Host_Library/Class/AUDIO/Src/usbh_audio.c ****   
 645:Middlewares/ST/STM32_USB_Host_Library/Class/AUDIO/Src/usbh_audio.c ****   if(AUDIO_Handle->headphone.supported == 1)
 646:Middlewares/ST/STM32_USB_Host_Library/Class/AUDIO/Src/usbh_audio.c ****   {
 647:Middlewares/ST/STM32_USB_Host_Library/Class/AUDIO/Src/usbh_audio.c ****     USBH_AUDIO_OutputStream (phost);
 648:Middlewares/ST/STM32_USB_Host_Library/Class/AUDIO/Src/usbh_audio.c ****   }
 649:Middlewares/ST/STM32_USB_Host_Library/Class/AUDIO/Src/usbh_audio.c ****   
 650:Middlewares/ST/STM32_USB_Host_Library/Class/AUDIO/Src/usbh_audio.c ****   if(AUDIO_Handle->microphone.supported == 1)
 651:Middlewares/ST/STM32_USB_Host_Library/Class/AUDIO/Src/usbh_audio.c ****   {
 652:Middlewares/ST/STM32_USB_Host_Library/Class/AUDIO/Src/usbh_audio.c ****     USBH_AUDIO_InputStream (phost);
 653:Middlewares/ST/STM32_USB_Host_Library/Class/AUDIO/Src/usbh_audio.c ****   }
 654:Middlewares/ST/STM32_USB_Host_Library/Class/AUDIO/Src/usbh_audio.c ****  
 655:Middlewares/ST/STM32_USB_Host_Library/Class/AUDIO/Src/usbh_audio.c ****   return status;
 656:Middlewares/ST/STM32_USB_Host_Library/Class/AUDIO/Src/usbh_audio.c **** }
 657:Middlewares/ST/STM32_USB_Host_Library/Class/AUDIO/Src/usbh_audio.c **** 
ARM GAS  /tmp/cc7hx4Eu.s 			page 13


 658:Middlewares/ST/STM32_USB_Host_Library/Class/AUDIO/Src/usbh_audio.c **** /**
 659:Middlewares/ST/STM32_USB_Host_Library/Class/AUDIO/Src/usbh_audio.c ****   * @brief  USBH_AUDIO_SOFProcess 
 660:Middlewares/ST/STM32_USB_Host_Library/Class/AUDIO/Src/usbh_audio.c ****   *         The function is for managing the SOF callback
 661:Middlewares/ST/STM32_USB_Host_Library/Class/AUDIO/Src/usbh_audio.c ****   * @param  phost: Host handle
 662:Middlewares/ST/STM32_USB_Host_Library/Class/AUDIO/Src/usbh_audio.c ****   * @retval USBH Status
 663:Middlewares/ST/STM32_USB_Host_Library/Class/AUDIO/Src/usbh_audio.c ****   */
 664:Middlewares/ST/STM32_USB_Host_Library/Class/AUDIO/Src/usbh_audio.c **** static USBH_StatusTypeDef USBH_AUDIO_SOFProcess (USBH_HandleTypeDef *phost)
 665:Middlewares/ST/STM32_USB_Host_Library/Class/AUDIO/Src/usbh_audio.c **** {  
  29              		.loc 1 665 0
  30              		.cfi_startproc
  31              		@ args = 0, pretend = 0, frame = 0
  32              		@ frame_needed = 0, uses_anonymous_args = 0
  33              		@ link register save eliminated.
  34              	.LVL0:
 666:Middlewares/ST/STM32_USB_Host_Library/Class/AUDIO/Src/usbh_audio.c ****   return USBH_OK;
 667:Middlewares/ST/STM32_USB_Host_Library/Class/AUDIO/Src/usbh_audio.c **** }
  35              		.loc 1 667 0
  36 0000 0020     		movs	r0, #0
  37              	.LVL1:
  38 0002 7047     		bx	lr
  39              		.cfi_endproc
  40              	.LFE130:
  42              		.section	.text.USBH_AUDIO_FindAudioStreamingIN,"ax",%progbits
  43              		.align	2
  44              		.thumb
  45              		.thumb_func
  47              	USBH_AUDIO_FindAudioStreamingIN:
  48              	.LFB131:
 668:Middlewares/ST/STM32_USB_Host_Library/Class/AUDIO/Src/usbh_audio.c **** /**
 669:Middlewares/ST/STM32_USB_Host_Library/Class/AUDIO/Src/usbh_audio.c ****   * @brief  Find IN Audio Streaming interfaces
 670:Middlewares/ST/STM32_USB_Host_Library/Class/AUDIO/Src/usbh_audio.c ****   * @param  phost: Host handle
 671:Middlewares/ST/STM32_USB_Host_Library/Class/AUDIO/Src/usbh_audio.c ****   * @retval USBH Status
 672:Middlewares/ST/STM32_USB_Host_Library/Class/AUDIO/Src/usbh_audio.c ****   */
 673:Middlewares/ST/STM32_USB_Host_Library/Class/AUDIO/Src/usbh_audio.c **** static USBH_StatusTypeDef USBH_AUDIO_FindAudioStreamingIN(USBH_HandleTypeDef *phost)
 674:Middlewares/ST/STM32_USB_Host_Library/Class/AUDIO/Src/usbh_audio.c **** {
  49              		.loc 1 674 0
  50              		.cfi_startproc
  51              		@ args = 0, pretend = 0, frame = 0
  52              		@ frame_needed = 0, uses_anonymous_args = 0
  53              	.LVL2:
  54 0000 F0B5     		push	{r4, r5, r6, r7, lr}
  55              	.LCFI0:
  56              		.cfi_def_cfa_offset 20
  57              		.cfi_offset 4, -20
  58              		.cfi_offset 5, -16
  59              		.cfi_offset 6, -12
  60              		.cfi_offset 7, -8
  61              		.cfi_offset 14, -4
  62              	.LVL3:
 675:Middlewares/ST/STM32_USB_Host_Library/Class/AUDIO/Src/usbh_audio.c ****   uint8_t interface, alt_settings;
 676:Middlewares/ST/STM32_USB_Host_Library/Class/AUDIO/Src/usbh_audio.c ****   USBH_StatusTypeDef status = USBH_FAIL ;
 677:Middlewares/ST/STM32_USB_Host_Library/Class/AUDIO/Src/usbh_audio.c ****   AUDIO_HandleTypeDef *AUDIO_Handle;
 678:Middlewares/ST/STM32_USB_Host_Library/Class/AUDIO/Src/usbh_audio.c **** 
 679:Middlewares/ST/STM32_USB_Host_Library/Class/AUDIO/Src/usbh_audio.c ****   AUDIO_Handle = (AUDIO_HandleTypeDef *) phost->pActiveClass->pData; 
  63              		.loc 1 679 0
  64 0002 D0F84435 		ldr	r3, [r0, #1348]
  65 0006 DD69     		ldr	r5, [r3, #28]
ARM GAS  /tmp/cc7hx4Eu.s 			page 14


  66              	.LVL4:
 680:Middlewares/ST/STM32_USB_Host_Library/Class/AUDIO/Src/usbh_audio.c **** 
 681:Middlewares/ST/STM32_USB_Host_Library/Class/AUDIO/Src/usbh_audio.c ****   /* Look For AUDIOSTREAMING IN interface */
 682:Middlewares/ST/STM32_USB_Host_Library/Class/AUDIO/Src/usbh_audio.c ****   alt_settings = 0;
  67              		.loc 1 682 0
  68 0008 0024     		movs	r4, #0
 683:Middlewares/ST/STM32_USB_Host_Library/Class/AUDIO/Src/usbh_audio.c ****   for (interface = 0;  interface < USBH_MAX_NUM_INTERFACES ; interface ++ )
  69              		.loc 1 683 0
  70 000a 2346     		mov	r3, r4
  71 000c 38E0     		b	.L3
  72              	.LVL5:
  73              	.L5:
 684:Middlewares/ST/STM32_USB_Host_Library/Class/AUDIO/Src/usbh_audio.c ****   {
 685:Middlewares/ST/STM32_USB_Host_Library/Class/AUDIO/Src/usbh_audio.c ****     if((phost->device.CfgDesc.Itf_Desc[interface].bInterfaceClass == AC_CLASS)&&
  74              		.loc 1 685 0
  75 000e 3222     		movs	r2, #50
  76 0010 02FB0302 		mla	r2, r2, r3, r0
  77 0014 92F84123 		ldrb	r2, [r2, #833]	@ zero_extendqisi2
  78 0018 012A     		cmp	r2, #1
  79 001a 2FD1     		bne	.L4
 686:Middlewares/ST/STM32_USB_Host_Library/Class/AUDIO/Src/usbh_audio.c ****        (phost->device.CfgDesc.Itf_Desc[interface].bInterfaceSubClass == USB_SUBCLASS_AUDIOSTREAMING
  80              		.loc 1 686 0 discriminator 1
  81 001c 3222     		movs	r2, #50
  82 001e 02FB0302 		mla	r2, r2, r3, r0
  83 0022 92F84223 		ldrb	r2, [r2, #834]	@ zero_extendqisi2
 685:Middlewares/ST/STM32_USB_Host_Library/Class/AUDIO/Src/usbh_audio.c ****        (phost->device.CfgDesc.Itf_Desc[interface].bInterfaceSubClass == USB_SUBCLASS_AUDIOSTREAMING
  84              		.loc 1 685 0 discriminator 1
  85 0026 022A     		cmp	r2, #2
  86 0028 28D1     		bne	.L4
 687:Middlewares/ST/STM32_USB_Host_Library/Class/AUDIO/Src/usbh_audio.c ****     {
 688:Middlewares/ST/STM32_USB_Host_Library/Class/AUDIO/Src/usbh_audio.c ****       if((phost->device.CfgDesc.Itf_Desc[interface].Ep_Desc[0].bEndpointAddress & 0x80)&&
  87              		.loc 1 688 0
  88 002a 3222     		movs	r2, #50
  89 002c 02FB0302 		mla	r2, r2, r3, r0
  90 0030 92F84823 		ldrb	r2, [r2, #840]	@ zero_extendqisi2
  91 0034 12F0800F 		tst	r2, #128
  92 0038 20D0     		beq	.L4
 689:Middlewares/ST/STM32_USB_Host_Library/Class/AUDIO/Src/usbh_audio.c ****          (phost->device.CfgDesc.Itf_Desc[interface].Ep_Desc[0].wMaxPacketSize > 0))
  93              		.loc 1 689 0 discriminator 1
  94 003a 3226     		movs	r6, #50
  95 003c 06FB0306 		mla	r6, r6, r3, r0
  96 0040 B6F84A63 		ldrh	r6, [r6, #842]
 688:Middlewares/ST/STM32_USB_Host_Library/Class/AUDIO/Src/usbh_audio.c ****          (phost->device.CfgDesc.Itf_Desc[interface].Ep_Desc[0].wMaxPacketSize > 0))
  97              		.loc 1 688 0 discriminator 1
  98 0044 D6B1     		cbz	r6, .L4
 690:Middlewares/ST/STM32_USB_Host_Library/Class/AUDIO/Src/usbh_audio.c ****       {
 691:Middlewares/ST/STM32_USB_Host_Library/Class/AUDIO/Src/usbh_audio.c ****         AUDIO_Handle->stream_in[alt_settings].Ep = phost->device.CfgDesc.Itf_Desc[interface].Ep_Des
  99              		.loc 1 691 0
 100 0046 A700     		lsls	r7, r4, #2
 101 0048 07EB040E 		add	lr, r7, r4
 102 004c 4FEA4E06 		lsl	r6, lr, #1
 103 0050 B646     		mov	lr, r6
 104 0052 2E44     		add	r6, r6, r5
 105 0054 B271     		strb	r2, [r6, #6]
 692:Middlewares/ST/STM32_USB_Host_Library/Class/AUDIO/Src/usbh_audio.c ****         AUDIO_Handle->stream_in[alt_settings].EpSize = phost->device.CfgDesc.Itf_Desc[interface].Ep
 106              		.loc 1 692 0
 107 0056 3222     		movs	r2, #50
ARM GAS  /tmp/cc7hx4Eu.s 			page 15


 108 0058 02FB0301 		mla	r1, r2, r3, r0
 109 005c B1F84A23 		ldrh	r2, [r1, #842]
 110 0060 3281     		strh	r2, [r6, #8]	@ movhi
 693:Middlewares/ST/STM32_USB_Host_Library/Class/AUDIO/Src/usbh_audio.c ****         AUDIO_Handle->stream_in[alt_settings].interface = phost->device.CfgDesc.Itf_Desc[interface]
 111              		.loc 1 693 0
 112 0062 91F83E23 		ldrb	r2, [r1, #830]	@ zero_extendqisi2
 113 0066 F272     		strb	r2, [r6, #11]
 694:Middlewares/ST/STM32_USB_Host_Library/Class/AUDIO/Src/usbh_audio.c ****         AUDIO_Handle->stream_in[alt_settings].AltSettings = phost->device.CfgDesc.Itf_Desc[interfac
 114              		.loc 1 694 0
 115 0068 91F83F23 		ldrb	r2, [r1, #831]	@ zero_extendqisi2
 116 006c B272     		strb	r2, [r6, #10]
 695:Middlewares/ST/STM32_USB_Host_Library/Class/AUDIO/Src/usbh_audio.c ****         AUDIO_Handle->stream_in[alt_settings].Poll = phost->device.CfgDesc.Itf_Desc[interface].Ep_D
 117              		.loc 1 695 0
 118 006e 91F84C23 		ldrb	r2, [r1, #844]	@ zero_extendqisi2
 119 0072 F281     		strh	r2, [r6, #14]	@ movhi
 696:Middlewares/ST/STM32_USB_Host_Library/Class/AUDIO/Src/usbh_audio.c ****         AUDIO_Handle->stream_in[alt_settings].valid = 1; 
 120              		.loc 1 696 0
 121 0074 0122     		movs	r2, #1
 122 0076 3273     		strb	r2, [r6, #12]
 697:Middlewares/ST/STM32_USB_Host_Library/Class/AUDIO/Src/usbh_audio.c ****         alt_settings++;
 123              		.loc 1 697 0
 124 0078 1444     		add	r4, r4, r2
 125              	.LVL6:
 126 007a E4B2     		uxtb	r4, r4
 127              	.LVL7:
 128              	.L4:
 683:Middlewares/ST/STM32_USB_Host_Library/Class/AUDIO/Src/usbh_audio.c ****   {
 129              		.loc 1 683 0 discriminator 2
 130 007c 0133     		adds	r3, r3, #1
 131              	.LVL8:
 132 007e DBB2     		uxtb	r3, r3
 133              	.LVL9:
 134              	.L3:
 683:Middlewares/ST/STM32_USB_Host_Library/Class/AUDIO/Src/usbh_audio.c ****   {
 135              		.loc 1 683 0 is_stmt 0 discriminator 1
 136 0080 092B     		cmp	r3, #9
 137 0082 C4D9     		bls	.L5
 698:Middlewares/ST/STM32_USB_Host_Library/Class/AUDIO/Src/usbh_audio.c ****       }
 699:Middlewares/ST/STM32_USB_Host_Library/Class/AUDIO/Src/usbh_audio.c ****     }
 700:Middlewares/ST/STM32_USB_Host_Library/Class/AUDIO/Src/usbh_audio.c ****   } 
 701:Middlewares/ST/STM32_USB_Host_Library/Class/AUDIO/Src/usbh_audio.c ****   
 702:Middlewares/ST/STM32_USB_Host_Library/Class/AUDIO/Src/usbh_audio.c ****   if(alt_settings > 0)
 138              		.loc 1 702 0 is_stmt 1
 139 0084 0CB9     		cbnz	r4, .L7
 676:Middlewares/ST/STM32_USB_Host_Library/Class/AUDIO/Src/usbh_audio.c ****   AUDIO_HandleTypeDef *AUDIO_Handle;
 140              		.loc 1 676 0
 141 0086 0220     		movs	r0, #2
 142              	.LVL10:
 143 0088 F0BD     		pop	{r4, r5, r6, r7, pc}
 144              	.LVL11:
 145              	.L7:
 703:Middlewares/ST/STM32_USB_Host_Library/Class/AUDIO/Src/usbh_audio.c ****   {  
 704:Middlewares/ST/STM32_USB_Host_Library/Class/AUDIO/Src/usbh_audio.c ****      status = USBH_OK;
 146              		.loc 1 704 0
 147 008a 0020     		movs	r0, #0
 148              	.LVL12:
 705:Middlewares/ST/STM32_USB_Host_Library/Class/AUDIO/Src/usbh_audio.c ****   }
ARM GAS  /tmp/cc7hx4Eu.s 			page 16


 706:Middlewares/ST/STM32_USB_Host_Library/Class/AUDIO/Src/usbh_audio.c ****   
 707:Middlewares/ST/STM32_USB_Host_Library/Class/AUDIO/Src/usbh_audio.c ****   return status;
 708:Middlewares/ST/STM32_USB_Host_Library/Class/AUDIO/Src/usbh_audio.c **** }
 149              		.loc 1 708 0
 150 008c F0BD     		pop	{r4, r5, r6, r7, pc}
 151              		.cfi_endproc
 152              	.LFE131:
 154 008e 00BF     		.section	.text.USBH_AUDIO_FindAudioStreamingOUT,"ax",%progbits
 155              		.align	2
 156              		.thumb
 157              		.thumb_func
 159              	USBH_AUDIO_FindAudioStreamingOUT:
 160              	.LFB132:
 709:Middlewares/ST/STM32_USB_Host_Library/Class/AUDIO/Src/usbh_audio.c **** 
 710:Middlewares/ST/STM32_USB_Host_Library/Class/AUDIO/Src/usbh_audio.c **** /**
 711:Middlewares/ST/STM32_USB_Host_Library/Class/AUDIO/Src/usbh_audio.c ****   * @brief  Find OUT Audio Streaming interfaces
 712:Middlewares/ST/STM32_USB_Host_Library/Class/AUDIO/Src/usbh_audio.c ****   * @param  phost: Host handle
 713:Middlewares/ST/STM32_USB_Host_Library/Class/AUDIO/Src/usbh_audio.c ****   * @retval USBH Status
 714:Middlewares/ST/STM32_USB_Host_Library/Class/AUDIO/Src/usbh_audio.c ****   */
 715:Middlewares/ST/STM32_USB_Host_Library/Class/AUDIO/Src/usbh_audio.c **** static USBH_StatusTypeDef USBH_AUDIO_FindAudioStreamingOUT(USBH_HandleTypeDef *phost)
 716:Middlewares/ST/STM32_USB_Host_Library/Class/AUDIO/Src/usbh_audio.c **** {
 161              		.loc 1 716 0
 162              		.cfi_startproc
 163              		@ args = 0, pretend = 0, frame = 0
 164              		@ frame_needed = 0, uses_anonymous_args = 0
 165              	.LVL13:
 166 0000 F0B5     		push	{r4, r5, r6, r7, lr}
 167              	.LCFI1:
 168              		.cfi_def_cfa_offset 20
 169              		.cfi_offset 4, -20
 170              		.cfi_offset 5, -16
 171              		.cfi_offset 6, -12
 172              		.cfi_offset 7, -8
 173              		.cfi_offset 14, -4
 174              	.LVL14:
 717:Middlewares/ST/STM32_USB_Host_Library/Class/AUDIO/Src/usbh_audio.c ****   uint8_t interface, alt_settings;
 718:Middlewares/ST/STM32_USB_Host_Library/Class/AUDIO/Src/usbh_audio.c ****   USBH_StatusTypeDef status = USBH_FAIL ;
 719:Middlewares/ST/STM32_USB_Host_Library/Class/AUDIO/Src/usbh_audio.c ****   AUDIO_HandleTypeDef *AUDIO_Handle;
 720:Middlewares/ST/STM32_USB_Host_Library/Class/AUDIO/Src/usbh_audio.c **** 
 721:Middlewares/ST/STM32_USB_Host_Library/Class/AUDIO/Src/usbh_audio.c ****   AUDIO_Handle =  (AUDIO_HandleTypeDef *) phost->pActiveClass->pData; 
 175              		.loc 1 721 0
 176 0002 D0F84435 		ldr	r3, [r0, #1348]
 177 0006 DD69     		ldr	r5, [r3, #28]
 178              	.LVL15:
 722:Middlewares/ST/STM32_USB_Host_Library/Class/AUDIO/Src/usbh_audio.c **** 
 723:Middlewares/ST/STM32_USB_Host_Library/Class/AUDIO/Src/usbh_audio.c ****   /* Look For AUDIOSTREAMING IN interface */
 724:Middlewares/ST/STM32_USB_Host_Library/Class/AUDIO/Src/usbh_audio.c ****   alt_settings = 0;
 179              		.loc 1 724 0
 180 0008 0024     		movs	r4, #0
 725:Middlewares/ST/STM32_USB_Host_Library/Class/AUDIO/Src/usbh_audio.c ****   for (interface = 0;  interface < USBH_MAX_NUM_INTERFACES ; interface ++ )
 181              		.loc 1 725 0
 182 000a 2346     		mov	r3, r4
 183 000c 3FE0     		b	.L10
 184              	.LVL16:
 185              	.L12:
 726:Middlewares/ST/STM32_USB_Host_Library/Class/AUDIO/Src/usbh_audio.c ****   {
 727:Middlewares/ST/STM32_USB_Host_Library/Class/AUDIO/Src/usbh_audio.c ****     if((phost->device.CfgDesc.Itf_Desc[interface].bInterfaceClass == AC_CLASS)&&
ARM GAS  /tmp/cc7hx4Eu.s 			page 17


 186              		.loc 1 727 0
 187 000e 3222     		movs	r2, #50
 188 0010 02FB0302 		mla	r2, r2, r3, r0
 189 0014 92F84123 		ldrb	r2, [r2, #833]	@ zero_extendqisi2
 190 0018 012A     		cmp	r2, #1
 191 001a 36D1     		bne	.L11
 728:Middlewares/ST/STM32_USB_Host_Library/Class/AUDIO/Src/usbh_audio.c ****        (phost->device.CfgDesc.Itf_Desc[interface].bInterfaceSubClass == USB_SUBCLASS_AUDIOSTREAMING
 192              		.loc 1 728 0 discriminator 1
 193 001c 3222     		movs	r2, #50
 194 001e 02FB0302 		mla	r2, r2, r3, r0
 195 0022 92F84223 		ldrb	r2, [r2, #834]	@ zero_extendqisi2
 727:Middlewares/ST/STM32_USB_Host_Library/Class/AUDIO/Src/usbh_audio.c ****        (phost->device.CfgDesc.Itf_Desc[interface].bInterfaceSubClass == USB_SUBCLASS_AUDIOSTREAMING
 196              		.loc 1 727 0 discriminator 1
 197 0026 022A     		cmp	r2, #2
 198 0028 2FD1     		bne	.L11
 729:Middlewares/ST/STM32_USB_Host_Library/Class/AUDIO/Src/usbh_audio.c ****     {
 730:Middlewares/ST/STM32_USB_Host_Library/Class/AUDIO/Src/usbh_audio.c ****       if(((phost->device.CfgDesc.Itf_Desc[interface].Ep_Desc[0].bEndpointAddress & 0x80) == 0x00)&&
 199              		.loc 1 730 0
 200 002a 3222     		movs	r2, #50
 201 002c 02FB0302 		mla	r2, r2, r3, r0
 202 0030 92F84863 		ldrb	r6, [r2, #840]	@ zero_extendqisi2
 203 0034 16F0800F 		tst	r6, #128
 204 0038 27D1     		bne	.L11
 731:Middlewares/ST/STM32_USB_Host_Library/Class/AUDIO/Src/usbh_audio.c ****          (phost->device.CfgDesc.Itf_Desc[interface].Ep_Desc[0].wMaxPacketSize > 0))        
 205              		.loc 1 731 0 discriminator 1
 206 003a 3222     		movs	r2, #50
 207 003c 02FB0302 		mla	r2, r2, r3, r0
 208 0040 B2F84A23 		ldrh	r2, [r2, #842]
 730:Middlewares/ST/STM32_USB_Host_Library/Class/AUDIO/Src/usbh_audio.c ****          (phost->device.CfgDesc.Itf_Desc[interface].Ep_Desc[0].wMaxPacketSize > 0))        
 209              		.loc 1 730 0 discriminator 1
 210 0044 0AB3     		cbz	r2, .L11
 732:Middlewares/ST/STM32_USB_Host_Library/Class/AUDIO/Src/usbh_audio.c ****       {
 733:Middlewares/ST/STM32_USB_Host_Library/Class/AUDIO/Src/usbh_audio.c ****         AUDIO_Handle->stream_out[alt_settings].Ep = phost->device.CfgDesc.Itf_Desc[interface].Ep_De
 211              		.loc 1 733 0
 212 0046 A700     		lsls	r7, r4, #2
 213 0048 07EB040E 		add	lr, r7, r4
 214 004c 4FEA4E02 		lsl	r2, lr, #1
 215 0050 9646     		mov	lr, r2
 216 0052 2A44     		add	r2, r2, r5
 217 0054 82F83860 		strb	r6, [r2, #56]
 734:Middlewares/ST/STM32_USB_Host_Library/Class/AUDIO/Src/usbh_audio.c ****         AUDIO_Handle->stream_out[alt_settings].EpSize = phost->device.CfgDesc.Itf_Desc[interface].E
 218              		.loc 1 734 0
 219 0058 3226     		movs	r6, #50
 220 005a 06FB0301 		mla	r1, r6, r3, r0
 221 005e B1F84A63 		ldrh	r6, [r1, #842]
 222 0062 5687     		strh	r6, [r2, #58]	@ movhi
 735:Middlewares/ST/STM32_USB_Host_Library/Class/AUDIO/Src/usbh_audio.c ****         AUDIO_Handle->stream_out[alt_settings].interface = phost->device.CfgDesc.Itf_Desc[interface
 223              		.loc 1 735 0
 224 0064 91F83E63 		ldrb	r6, [r1, #830]	@ zero_extendqisi2
 225 0068 82F83D60 		strb	r6, [r2, #61]
 736:Middlewares/ST/STM32_USB_Host_Library/Class/AUDIO/Src/usbh_audio.c ****         AUDIO_Handle->stream_out[alt_settings].AltSettings = phost->device.CfgDesc.Itf_Desc[interfa
 226              		.loc 1 736 0
 227 006c 91F83F63 		ldrb	r6, [r1, #831]	@ zero_extendqisi2
 228 0070 82F83C60 		strb	r6, [r2, #60]
 737:Middlewares/ST/STM32_USB_Host_Library/Class/AUDIO/Src/usbh_audio.c ****         AUDIO_Handle->stream_out[alt_settings].Poll = phost->device.CfgDesc.Itf_Desc[interface].Ep_
 229              		.loc 1 737 0
 230 0074 91F84C13 		ldrb	r1, [r1, #844]	@ zero_extendqisi2
ARM GAS  /tmp/cc7hx4Eu.s 			page 18


 231 0078 A2F84010 		strh	r1, [r2, #64]	@ movhi
 738:Middlewares/ST/STM32_USB_Host_Library/Class/AUDIO/Src/usbh_audio.c ****         AUDIO_Handle->stream_out[alt_settings].valid = 1; 
 232              		.loc 1 738 0
 233 007c 7146     		mov	r1, lr
 234 007e 2944     		add	r1, r1, r5
 235 0080 0122     		movs	r2, #1
 236 0082 81F83E20 		strb	r2, [r1, #62]
 739:Middlewares/ST/STM32_USB_Host_Library/Class/AUDIO/Src/usbh_audio.c ****         alt_settings++;
 237              		.loc 1 739 0
 238 0086 1444     		add	r4, r4, r2
 239              	.LVL17:
 240 0088 E4B2     		uxtb	r4, r4
 241              	.LVL18:
 242              	.L11:
 725:Middlewares/ST/STM32_USB_Host_Library/Class/AUDIO/Src/usbh_audio.c ****   {
 243              		.loc 1 725 0 discriminator 2
 244 008a 0133     		adds	r3, r3, #1
 245              	.LVL19:
 246 008c DBB2     		uxtb	r3, r3
 247              	.LVL20:
 248              	.L10:
 725:Middlewares/ST/STM32_USB_Host_Library/Class/AUDIO/Src/usbh_audio.c ****   {
 249              		.loc 1 725 0 is_stmt 0 discriminator 1
 250 008e 092B     		cmp	r3, #9
 251 0090 BDD9     		bls	.L12
 740:Middlewares/ST/STM32_USB_Host_Library/Class/AUDIO/Src/usbh_audio.c ****       }
 741:Middlewares/ST/STM32_USB_Host_Library/Class/AUDIO/Src/usbh_audio.c ****     }
 742:Middlewares/ST/STM32_USB_Host_Library/Class/AUDIO/Src/usbh_audio.c ****   }
 743:Middlewares/ST/STM32_USB_Host_Library/Class/AUDIO/Src/usbh_audio.c ****   
 744:Middlewares/ST/STM32_USB_Host_Library/Class/AUDIO/Src/usbh_audio.c ****   if(alt_settings > 0)
 252              		.loc 1 744 0 is_stmt 1
 253 0092 0CB9     		cbnz	r4, .L14
 718:Middlewares/ST/STM32_USB_Host_Library/Class/AUDIO/Src/usbh_audio.c ****   AUDIO_HandleTypeDef *AUDIO_Handle;
 254              		.loc 1 718 0
 255 0094 0220     		movs	r0, #2
 256              	.LVL21:
 257 0096 F0BD     		pop	{r4, r5, r6, r7, pc}
 258              	.LVL22:
 259              	.L14:
 745:Middlewares/ST/STM32_USB_Host_Library/Class/AUDIO/Src/usbh_audio.c ****   {
 746:Middlewares/ST/STM32_USB_Host_Library/Class/AUDIO/Src/usbh_audio.c ****      status = USBH_OK;
 260              		.loc 1 746 0
 261 0098 0020     		movs	r0, #0
 262              	.LVL23:
 747:Middlewares/ST/STM32_USB_Host_Library/Class/AUDIO/Src/usbh_audio.c ****   }
 748:Middlewares/ST/STM32_USB_Host_Library/Class/AUDIO/Src/usbh_audio.c ****   
 749:Middlewares/ST/STM32_USB_Host_Library/Class/AUDIO/Src/usbh_audio.c ****   return status;  
 750:Middlewares/ST/STM32_USB_Host_Library/Class/AUDIO/Src/usbh_audio.c **** }
 263              		.loc 1 750 0
 264 009a F0BD     		pop	{r4, r5, r6, r7, pc}
 265              		.cfi_endproc
 266              	.LFE132:
 268              		.section	.text.ParseCSDescriptors,"ax",%progbits
 269              		.align	2
 270              		.thumb
 271              		.thumb_func
 273              	ParseCSDescriptors:
ARM GAS  /tmp/cc7hx4Eu.s 			page 19


 274              	.LFB135:
 751:Middlewares/ST/STM32_USB_Host_Library/Class/AUDIO/Src/usbh_audio.c **** 
 752:Middlewares/ST/STM32_USB_Host_Library/Class/AUDIO/Src/usbh_audio.c **** /**
 753:Middlewares/ST/STM32_USB_Host_Library/Class/AUDIO/Src/usbh_audio.c ****   * @brief  Find HID Control interfaces
 754:Middlewares/ST/STM32_USB_Host_Library/Class/AUDIO/Src/usbh_audio.c ****   * @param  phost: Host handle
 755:Middlewares/ST/STM32_USB_Host_Library/Class/AUDIO/Src/usbh_audio.c ****   * @retval USBH Status
 756:Middlewares/ST/STM32_USB_Host_Library/Class/AUDIO/Src/usbh_audio.c ****   */
 757:Middlewares/ST/STM32_USB_Host_Library/Class/AUDIO/Src/usbh_audio.c **** static USBH_StatusTypeDef USBH_AUDIO_FindHIDControl(USBH_HandleTypeDef *phost)
 758:Middlewares/ST/STM32_USB_Host_Library/Class/AUDIO/Src/usbh_audio.c **** {
 759:Middlewares/ST/STM32_USB_Host_Library/Class/AUDIO/Src/usbh_audio.c ****   uint8_t interface;
 760:Middlewares/ST/STM32_USB_Host_Library/Class/AUDIO/Src/usbh_audio.c ****   USBH_StatusTypeDef status = USBH_FAIL ;
 761:Middlewares/ST/STM32_USB_Host_Library/Class/AUDIO/Src/usbh_audio.c ****   AUDIO_HandleTypeDef *AUDIO_Handle;
 762:Middlewares/ST/STM32_USB_Host_Library/Class/AUDIO/Src/usbh_audio.c **** 
 763:Middlewares/ST/STM32_USB_Host_Library/Class/AUDIO/Src/usbh_audio.c ****   AUDIO_Handle =  (AUDIO_HandleTypeDef *) phost->pActiveClass->pData;   
 764:Middlewares/ST/STM32_USB_Host_Library/Class/AUDIO/Src/usbh_audio.c **** 
 765:Middlewares/ST/STM32_USB_Host_Library/Class/AUDIO/Src/usbh_audio.c ****   /* Look For AUDIOCONTROL  interface */
 766:Middlewares/ST/STM32_USB_Host_Library/Class/AUDIO/Src/usbh_audio.c ****   interface = USBH_FindInterface(phost, AC_CLASS, USB_SUBCLASS_AUDIOCONTROL, 0xFF);
 767:Middlewares/ST/STM32_USB_Host_Library/Class/AUDIO/Src/usbh_audio.c ****   if(interface != 0xFF)
 768:Middlewares/ST/STM32_USB_Host_Library/Class/AUDIO/Src/usbh_audio.c ****   {
 769:Middlewares/ST/STM32_USB_Host_Library/Class/AUDIO/Src/usbh_audio.c ****     for (interface = 0;  interface < USBH_MAX_NUM_INTERFACES ; interface ++ )
 770:Middlewares/ST/STM32_USB_Host_Library/Class/AUDIO/Src/usbh_audio.c ****     {
 771:Middlewares/ST/STM32_USB_Host_Library/Class/AUDIO/Src/usbh_audio.c ****       if((phost->device.CfgDesc.Itf_Desc[interface].bInterfaceClass == 0x03)&& /*HID*/
 772:Middlewares/ST/STM32_USB_Host_Library/Class/AUDIO/Src/usbh_audio.c ****         (phost->device.CfgDesc.Itf_Desc[interface].Ep_Desc[0].wMaxPacketSize > 0))
 773:Middlewares/ST/STM32_USB_Host_Library/Class/AUDIO/Src/usbh_audio.c ****       {
 774:Middlewares/ST/STM32_USB_Host_Library/Class/AUDIO/Src/usbh_audio.c ****         if((phost->device.CfgDesc.Itf_Desc[interface].Ep_Desc[0].bEndpointAddress & 0x80) == 0x80)
 775:Middlewares/ST/STM32_USB_Host_Library/Class/AUDIO/Src/usbh_audio.c ****         {
 776:Middlewares/ST/STM32_USB_Host_Library/Class/AUDIO/Src/usbh_audio.c ****           AUDIO_Handle->control.Ep = phost->device.CfgDesc.Itf_Desc[interface].Ep_Desc[0].bEndpoint
 777:Middlewares/ST/STM32_USB_Host_Library/Class/AUDIO/Src/usbh_audio.c ****           AUDIO_Handle->control.EpSize = phost->device.CfgDesc.Itf_Desc[interface].Ep_Desc[0].wMaxP
 778:Middlewares/ST/STM32_USB_Host_Library/Class/AUDIO/Src/usbh_audio.c ****           AUDIO_Handle->control.interface = phost->device.CfgDesc.Itf_Desc[interface].bInterfaceNum
 779:Middlewares/ST/STM32_USB_Host_Library/Class/AUDIO/Src/usbh_audio.c ****           AUDIO_Handle->control.Poll = phost->device.CfgDesc.Itf_Desc[interface].Ep_Desc[0].bInterv
 780:Middlewares/ST/STM32_USB_Host_Library/Class/AUDIO/Src/usbh_audio.c ****           AUDIO_Handle->control.supported = 1;
 781:Middlewares/ST/STM32_USB_Host_Library/Class/AUDIO/Src/usbh_audio.c ****           status = USBH_OK;
 782:Middlewares/ST/STM32_USB_Host_Library/Class/AUDIO/Src/usbh_audio.c ****           break;
 783:Middlewares/ST/STM32_USB_Host_Library/Class/AUDIO/Src/usbh_audio.c ****         }
 784:Middlewares/ST/STM32_USB_Host_Library/Class/AUDIO/Src/usbh_audio.c ****       }
 785:Middlewares/ST/STM32_USB_Host_Library/Class/AUDIO/Src/usbh_audio.c ****     } 
 786:Middlewares/ST/STM32_USB_Host_Library/Class/AUDIO/Src/usbh_audio.c ****   }
 787:Middlewares/ST/STM32_USB_Host_Library/Class/AUDIO/Src/usbh_audio.c ****   return status;
 788:Middlewares/ST/STM32_USB_Host_Library/Class/AUDIO/Src/usbh_audio.c **** }
 789:Middlewares/ST/STM32_USB_Host_Library/Class/AUDIO/Src/usbh_audio.c **** 
 790:Middlewares/ST/STM32_USB_Host_Library/Class/AUDIO/Src/usbh_audio.c **** /**
 791:Middlewares/ST/STM32_USB_Host_Library/Class/AUDIO/Src/usbh_audio.c ****   * @brief  Parse AC and interfaces Descriptors
 792:Middlewares/ST/STM32_USB_Host_Library/Class/AUDIO/Src/usbh_audio.c ****   * @param  phost: Host handle
 793:Middlewares/ST/STM32_USB_Host_Library/Class/AUDIO/Src/usbh_audio.c ****   * @retval USBH Status
 794:Middlewares/ST/STM32_USB_Host_Library/Class/AUDIO/Src/usbh_audio.c ****   */
 795:Middlewares/ST/STM32_USB_Host_Library/Class/AUDIO/Src/usbh_audio.c **** static USBH_StatusTypeDef USBH_AUDIO_ParseCSDescriptors(USBH_HandleTypeDef *phost)
 796:Middlewares/ST/STM32_USB_Host_Library/Class/AUDIO/Src/usbh_audio.c **** {
 797:Middlewares/ST/STM32_USB_Host_Library/Class/AUDIO/Src/usbh_audio.c ****   USBH_DescHeader_t            *pdesc ;
 798:Middlewares/ST/STM32_USB_Host_Library/Class/AUDIO/Src/usbh_audio.c ****   uint16_t                      ptr;
 799:Middlewares/ST/STM32_USB_Host_Library/Class/AUDIO/Src/usbh_audio.c ****   int8_t                        itf_index = 0;
 800:Middlewares/ST/STM32_USB_Host_Library/Class/AUDIO/Src/usbh_audio.c ****   int8_t                        itf_number = 0; 
 801:Middlewares/ST/STM32_USB_Host_Library/Class/AUDIO/Src/usbh_audio.c ****   int8_t                        alt_setting;   
 802:Middlewares/ST/STM32_USB_Host_Library/Class/AUDIO/Src/usbh_audio.c ****   AUDIO_HandleTypeDef           *AUDIO_Handle;
 803:Middlewares/ST/STM32_USB_Host_Library/Class/AUDIO/Src/usbh_audio.c ****   
 804:Middlewares/ST/STM32_USB_Host_Library/Class/AUDIO/Src/usbh_audio.c ****   AUDIO_Handle =  (AUDIO_HandleTypeDef *) phost->pActiveClass->pData;  
 805:Middlewares/ST/STM32_USB_Host_Library/Class/AUDIO/Src/usbh_audio.c ****   pdesc   = (USBH_DescHeader_t *)(phost->device.CfgDesc_Raw);
 806:Middlewares/ST/STM32_USB_Host_Library/Class/AUDIO/Src/usbh_audio.c ****   ptr = USB_LEN_CFG_DESC;
ARM GAS  /tmp/cc7hx4Eu.s 			page 20


 807:Middlewares/ST/STM32_USB_Host_Library/Class/AUDIO/Src/usbh_audio.c ****   
 808:Middlewares/ST/STM32_USB_Host_Library/Class/AUDIO/Src/usbh_audio.c ****   AUDIO_Handle->class_desc.FeatureUnitNum = 0;
 809:Middlewares/ST/STM32_USB_Host_Library/Class/AUDIO/Src/usbh_audio.c ****   AUDIO_Handle->class_desc.InputTerminalNum = 0;
 810:Middlewares/ST/STM32_USB_Host_Library/Class/AUDIO/Src/usbh_audio.c ****   AUDIO_Handle->class_desc.OutputTerminalNum = 0;  
 811:Middlewares/ST/STM32_USB_Host_Library/Class/AUDIO/Src/usbh_audio.c ****   AUDIO_Handle->class_desc.ASNum = 0;
 812:Middlewares/ST/STM32_USB_Host_Library/Class/AUDIO/Src/usbh_audio.c ****   
 813:Middlewares/ST/STM32_USB_Host_Library/Class/AUDIO/Src/usbh_audio.c ****   while(ptr < phost->device.CfgDesc.wTotalLength)
 814:Middlewares/ST/STM32_USB_Host_Library/Class/AUDIO/Src/usbh_audio.c ****   {
 815:Middlewares/ST/STM32_USB_Host_Library/Class/AUDIO/Src/usbh_audio.c ****     pdesc = USBH_GetNextDesc((uint8_t*) pdesc, &ptr);
 816:Middlewares/ST/STM32_USB_Host_Library/Class/AUDIO/Src/usbh_audio.c ****     
 817:Middlewares/ST/STM32_USB_Host_Library/Class/AUDIO/Src/usbh_audio.c ****     switch (pdesc->bDescriptorType)
 818:Middlewares/ST/STM32_USB_Host_Library/Class/AUDIO/Src/usbh_audio.c ****     {
 819:Middlewares/ST/STM32_USB_Host_Library/Class/AUDIO/Src/usbh_audio.c ****       
 820:Middlewares/ST/STM32_USB_Host_Library/Class/AUDIO/Src/usbh_audio.c ****     case USB_DESC_TYPE_INTERFACE:
 821:Middlewares/ST/STM32_USB_Host_Library/Class/AUDIO/Src/usbh_audio.c ****       itf_number = *((uint8_t *)pdesc + 2);
 822:Middlewares/ST/STM32_USB_Host_Library/Class/AUDIO/Src/usbh_audio.c ****       alt_setting = *((uint8_t *)pdesc + 3);
 823:Middlewares/ST/STM32_USB_Host_Library/Class/AUDIO/Src/usbh_audio.c ****       itf_index = USBH_FindInterfaceIndex (phost, itf_number, alt_setting);     
 824:Middlewares/ST/STM32_USB_Host_Library/Class/AUDIO/Src/usbh_audio.c ****       break;
 825:Middlewares/ST/STM32_USB_Host_Library/Class/AUDIO/Src/usbh_audio.c ****       
 826:Middlewares/ST/STM32_USB_Host_Library/Class/AUDIO/Src/usbh_audio.c ****     case USB_DESC_TYPE_CS_INTERFACE:
 827:Middlewares/ST/STM32_USB_Host_Library/Class/AUDIO/Src/usbh_audio.c ****       if(itf_number <= phost->device.CfgDesc.bNumInterfaces)
 828:Middlewares/ST/STM32_USB_Host_Library/Class/AUDIO/Src/usbh_audio.c ****       {
 829:Middlewares/ST/STM32_USB_Host_Library/Class/AUDIO/Src/usbh_audio.c ****         
 830:Middlewares/ST/STM32_USB_Host_Library/Class/AUDIO/Src/usbh_audio.c ****         ParseCSDescriptors(&AUDIO_Handle->class_desc,
 831:Middlewares/ST/STM32_USB_Host_Library/Class/AUDIO/Src/usbh_audio.c ****                            phost->device.CfgDesc.Itf_Desc[itf_index].bInterfaceSubClass, 
 832:Middlewares/ST/STM32_USB_Host_Library/Class/AUDIO/Src/usbh_audio.c ****                            (uint8_t *)pdesc);
 833:Middlewares/ST/STM32_USB_Host_Library/Class/AUDIO/Src/usbh_audio.c ****       }
 834:Middlewares/ST/STM32_USB_Host_Library/Class/AUDIO/Src/usbh_audio.c ****       break;
 835:Middlewares/ST/STM32_USB_Host_Library/Class/AUDIO/Src/usbh_audio.c ****       
 836:Middlewares/ST/STM32_USB_Host_Library/Class/AUDIO/Src/usbh_audio.c ****     default:
 837:Middlewares/ST/STM32_USB_Host_Library/Class/AUDIO/Src/usbh_audio.c ****       break; 
 838:Middlewares/ST/STM32_USB_Host_Library/Class/AUDIO/Src/usbh_audio.c ****     }
 839:Middlewares/ST/STM32_USB_Host_Library/Class/AUDIO/Src/usbh_audio.c ****   }
 840:Middlewares/ST/STM32_USB_Host_Library/Class/AUDIO/Src/usbh_audio.c ****   return USBH_OK;
 841:Middlewares/ST/STM32_USB_Host_Library/Class/AUDIO/Src/usbh_audio.c **** }
 842:Middlewares/ST/STM32_USB_Host_Library/Class/AUDIO/Src/usbh_audio.c **** 
 843:Middlewares/ST/STM32_USB_Host_Library/Class/AUDIO/Src/usbh_audio.c **** /**
 844:Middlewares/ST/STM32_USB_Host_Library/Class/AUDIO/Src/usbh_audio.c ****   * @brief  Parse AC interfaces
 845:Middlewares/ST/STM32_USB_Host_Library/Class/AUDIO/Src/usbh_audio.c ****   * @param  phost: Host handle
 846:Middlewares/ST/STM32_USB_Host_Library/Class/AUDIO/Src/usbh_audio.c ****   * @retval USBH Status
 847:Middlewares/ST/STM32_USB_Host_Library/Class/AUDIO/Src/usbh_audio.c ****   */
 848:Middlewares/ST/STM32_USB_Host_Library/Class/AUDIO/Src/usbh_audio.c **** static USBH_StatusTypeDef ParseCSDescriptors(AUDIO_ClassSpecificDescTypedef *class_desc, 
 849:Middlewares/ST/STM32_USB_Host_Library/Class/AUDIO/Src/usbh_audio.c ****                                       uint8_t ac_subclass, 
 850:Middlewares/ST/STM32_USB_Host_Library/Class/AUDIO/Src/usbh_audio.c ****                                       uint8_t *pdesc)
 851:Middlewares/ST/STM32_USB_Host_Library/Class/AUDIO/Src/usbh_audio.c **** {
 275              		.loc 1 851 0
 276              		.cfi_startproc
 277              		@ args = 0, pretend = 0, frame = 0
 278              		@ frame_needed = 0, uses_anonymous_args = 0
 279              		@ link register save eliminated.
 280              	.LVL24:
 852:Middlewares/ST/STM32_USB_Host_Library/Class/AUDIO/Src/usbh_audio.c ****   if(ac_subclass == USB_SUBCLASS_AUDIOCONTROL)
 281              		.loc 1 852 0
 282 0000 0129     		cmp	r1, #1
 283 0002 3BD1     		bne	.L17
 853:Middlewares/ST/STM32_USB_Host_Library/Class/AUDIO/Src/usbh_audio.c ****   {
 854:Middlewares/ST/STM32_USB_Host_Library/Class/AUDIO/Src/usbh_audio.c ****     switch(pdesc[2])
ARM GAS  /tmp/cc7hx4Eu.s 			page 21


 284              		.loc 1 854 0
 285 0004 9378     		ldrb	r3, [r2, #2]	@ zero_extendqisi2
 286 0006 013B     		subs	r3, r3, #1
 287 0008 052B     		cmp	r3, #5
 288 000a 4FD8     		bhi	.L18
 289 000c DFE803F0 		tbb	[pc, r3]
 290              	.LVL25:
 291              	.L20:
 292 0010 03       		.byte	(.L19-.L20)/2
 293 0011 05       		.byte	(.L21-.L20)/2
 294 0012 0E       		.byte	(.L22-.L20)/2
 295 0013 2C       		.byte	(.L23-.L20)/2
 296 0014 22       		.byte	(.L24-.L20)/2
 297 0015 18       		.byte	(.L25-.L20)/2
 298              		.p2align 1
 299              	.L19:
 855:Middlewares/ST/STM32_USB_Host_Library/Class/AUDIO/Src/usbh_audio.c ****     {
 856:Middlewares/ST/STM32_USB_Host_Library/Class/AUDIO/Src/usbh_audio.c ****     case UAC_HEADER: 
 857:Middlewares/ST/STM32_USB_Host_Library/Class/AUDIO/Src/usbh_audio.c ****       class_desc->cs_desc.HeaderDesc = (AUDIO_HeaderDescTypeDef *)pdesc;    
 300              		.loc 1 857 0
 301 0016 0260     		str	r2, [r0]
 858:Middlewares/ST/STM32_USB_Host_Library/Class/AUDIO/Src/usbh_audio.c ****       break;
 302              		.loc 1 858 0
 303 0018 48E0     		b	.L18
 304              	.L21:
 859:Middlewares/ST/STM32_USB_Host_Library/Class/AUDIO/Src/usbh_audio.c ****       
 860:Middlewares/ST/STM32_USB_Host_Library/Class/AUDIO/Src/usbh_audio.c ****     case UAC_INPUT_TERMINAL:
 861:Middlewares/ST/STM32_USB_Host_Library/Class/AUDIO/Src/usbh_audio.c ****       class_desc->cs_desc.InputTerminalDesc[class_desc->InputTerminalNum++] = (AUDIO_ITDescTypeDef*
 305              		.loc 1 861 0
 306 001a B0F87E30 		ldrh	r3, [r0, #126]
 307 001e 591C     		adds	r1, r3, #1
 308 0020 A0F87E10 		strh	r1, [r0, #126]	@ movhi
 309 0024 00EB8300 		add	r0, r0, r3, lsl #2
 310              	.LVL26:
 311 0028 4260     		str	r2, [r0, #4]
 862:Middlewares/ST/STM32_USB_Host_Library/Class/AUDIO/Src/usbh_audio.c ****       break;
 312              		.loc 1 862 0
 313 002a 3FE0     		b	.L18
 314              	.LVL27:
 315              	.L22:
 863:Middlewares/ST/STM32_USB_Host_Library/Class/AUDIO/Src/usbh_audio.c ****       
 864:Middlewares/ST/STM32_USB_Host_Library/Class/AUDIO/Src/usbh_audio.c ****     case UAC_OUTPUT_TERMINAL:
 865:Middlewares/ST/STM32_USB_Host_Library/Class/AUDIO/Src/usbh_audio.c ****       class_desc->cs_desc.OutputTerminalDesc[class_desc->OutputTerminalNum++] = (AUDIO_OTDescTypeDe
 316              		.loc 1 865 0
 317 002c B0F88030 		ldrh	r3, [r0, #128]
 318 0030 591C     		adds	r1, r3, #1
 319 0032 A0F88010 		strh	r1, [r0, #128]	@ movhi
 320 0036 0433     		adds	r3, r3, #4
 321 0038 00EB8300 		add	r0, r0, r3, lsl #2
 322              	.LVL28:
 323 003c 4260     		str	r2, [r0, #4]
 866:Middlewares/ST/STM32_USB_Host_Library/Class/AUDIO/Src/usbh_audio.c ****       break;
 324              		.loc 1 866 0
 325 003e 35E0     		b	.L18
 326              	.LVL29:
 327              	.L25:
 867:Middlewares/ST/STM32_USB_Host_Library/Class/AUDIO/Src/usbh_audio.c **** 
ARM GAS  /tmp/cc7hx4Eu.s 			page 22


 868:Middlewares/ST/STM32_USB_Host_Library/Class/AUDIO/Src/usbh_audio.c ****     case UAC_FEATURE_UNIT:
 869:Middlewares/ST/STM32_USB_Host_Library/Class/AUDIO/Src/usbh_audio.c ****       class_desc->cs_desc.FeatureUnitDesc[class_desc->FeatureUnitNum++] = (AUDIO_FeatureDescTypeDef
 328              		.loc 1 869 0
 329 0040 B0F88230 		ldrh	r3, [r0, #130]
 330 0044 591C     		adds	r1, r3, #1
 331 0046 A0F88210 		strh	r1, [r0, #130]	@ movhi
 332 004a 0833     		adds	r3, r3, #8
 333 004c 00EB8300 		add	r0, r0, r3, lsl #2
 334              	.LVL30:
 335 0050 4260     		str	r2, [r0, #4]
 870:Middlewares/ST/STM32_USB_Host_Library/Class/AUDIO/Src/usbh_audio.c ****       break;
 336              		.loc 1 870 0
 337 0052 2BE0     		b	.L18
 338              	.LVL31:
 339              	.L24:
 871:Middlewares/ST/STM32_USB_Host_Library/Class/AUDIO/Src/usbh_audio.c ****       
 872:Middlewares/ST/STM32_USB_Host_Library/Class/AUDIO/Src/usbh_audio.c ****     case UAC_SELECTOR_UNIT:
 873:Middlewares/ST/STM32_USB_Host_Library/Class/AUDIO/Src/usbh_audio.c ****       class_desc->cs_desc.SelectorUnitDesc[class_desc->SelectorUnitNum++] = (AUDIO_SelectorDescType
 340              		.loc 1 873 0
 341 0054 B0F88430 		ldrh	r3, [r0, #132]
 342 0058 591C     		adds	r1, r3, #1
 343 005a A0F88410 		strh	r1, [r0, #132]	@ movhi
 344 005e 1033     		adds	r3, r3, #16
 345 0060 00EB8300 		add	r0, r0, r3, lsl #2
 346              	.LVL32:
 347 0064 4260     		str	r2, [r0, #4]
 874:Middlewares/ST/STM32_USB_Host_Library/Class/AUDIO/Src/usbh_audio.c ****       break;
 348              		.loc 1 874 0
 349 0066 21E0     		b	.L18
 350              	.LVL33:
 351              	.L23:
 875:Middlewares/ST/STM32_USB_Host_Library/Class/AUDIO/Src/usbh_audio.c **** 
 876:Middlewares/ST/STM32_USB_Host_Library/Class/AUDIO/Src/usbh_audio.c ****     case UAC_MIXER_UNIT:
 877:Middlewares/ST/STM32_USB_Host_Library/Class/AUDIO/Src/usbh_audio.c ****       class_desc->cs_desc.MixerUnitDesc[class_desc->MixerUnitNum++] = (AUDIO_MixerDescTypeDef*) pde
 352              		.loc 1 877 0
 353 0068 B0F88630 		ldrh	r3, [r0, #134]
 354 006c 591C     		adds	r1, r3, #1
 355 006e A0F88610 		strh	r1, [r0, #134]	@ movhi
 356 0072 0C33     		adds	r3, r3, #12
 357 0074 00EB8300 		add	r0, r0, r3, lsl #2
 358              	.LVL34:
 359 0078 4260     		str	r2, [r0, #4]
 878:Middlewares/ST/STM32_USB_Host_Library/Class/AUDIO/Src/usbh_audio.c ****       break;      
 360              		.loc 1 878 0
 361 007a 17E0     		b	.L18
 362              	.LVL35:
 363              	.L17:
 879:Middlewares/ST/STM32_USB_Host_Library/Class/AUDIO/Src/usbh_audio.c **** 
 880:Middlewares/ST/STM32_USB_Host_Library/Class/AUDIO/Src/usbh_audio.c ****     default: 
 881:Middlewares/ST/STM32_USB_Host_Library/Class/AUDIO/Src/usbh_audio.c ****       break;
 882:Middlewares/ST/STM32_USB_Host_Library/Class/AUDIO/Src/usbh_audio.c ****     }
 883:Middlewares/ST/STM32_USB_Host_Library/Class/AUDIO/Src/usbh_audio.c ****   }
 884:Middlewares/ST/STM32_USB_Host_Library/Class/AUDIO/Src/usbh_audio.c ****   else if(ac_subclass == USB_SUBCLASS_AUDIOSTREAMING)
 364              		.loc 1 884 0
 365 007c 0229     		cmp	r1, #2
 366 007e 15D1     		bne	.L18
 885:Middlewares/ST/STM32_USB_Host_Library/Class/AUDIO/Src/usbh_audio.c ****   {
ARM GAS  /tmp/cc7hx4Eu.s 			page 23


 886:Middlewares/ST/STM32_USB_Host_Library/Class/AUDIO/Src/usbh_audio.c ****     switch(pdesc[2])
 367              		.loc 1 886 0
 368 0080 9378     		ldrb	r3, [r2, #2]	@ zero_extendqisi2
 369 0082 012B     		cmp	r3, #1
 370 0084 02D0     		beq	.L26
 371 0086 022B     		cmp	r3, #2
 372 0088 07D0     		beq	.L27
 373 008a 0FE0     		b	.L18
 374              	.L26:
 887:Middlewares/ST/STM32_USB_Host_Library/Class/AUDIO/Src/usbh_audio.c ****     {
 888:Middlewares/ST/STM32_USB_Host_Library/Class/AUDIO/Src/usbh_audio.c ****     case UAC_AS_GENERAL:
 889:Middlewares/ST/STM32_USB_Host_Library/Class/AUDIO/Src/usbh_audio.c ****       class_desc->as_desc[class_desc->ASNum].GeneralDesc = (AUDIO_ASGeneralDescTypeDef*) pdesc; 
 375              		.loc 1 889 0
 376 008c B0F87C30 		ldrh	r3, [r0, #124]
 377 0090 0A33     		adds	r3, r3, #10
 378 0092 00EBC300 		add	r0, r0, r3, lsl #3
 379              	.LVL36:
 380 0096 4260     		str	r2, [r0, #4]
 890:Middlewares/ST/STM32_USB_Host_Library/Class/AUDIO/Src/usbh_audio.c ****       break;
 381              		.loc 1 890 0
 382 0098 08E0     		b	.L18
 383              	.LVL37:
 384              	.L27:
 891:Middlewares/ST/STM32_USB_Host_Library/Class/AUDIO/Src/usbh_audio.c ****     case UAC_FORMAT_TYPE:      
 892:Middlewares/ST/STM32_USB_Host_Library/Class/AUDIO/Src/usbh_audio.c ****       class_desc->as_desc[class_desc->ASNum++].FormatTypeDesc = (AUDIO_ASFormatTypeDescTypeDef*) pd
 385              		.loc 1 892 0
 386 009a B0F87C30 		ldrh	r3, [r0, #124]
 387 009e 591C     		adds	r1, r3, #1
 388              	.LVL38:
 389 00a0 A0F87C10 		strh	r1, [r0, #124]	@ movhi
 390 00a4 0A33     		adds	r3, r3, #10
 391 00a6 00EBC300 		add	r0, r0, r3, lsl #3
 392              	.LVL39:
 393 00aa 8260     		str	r2, [r0, #8]
 394              	.L18:
 893:Middlewares/ST/STM32_USB_Host_Library/Class/AUDIO/Src/usbh_audio.c ****       break;
 894:Middlewares/ST/STM32_USB_Host_Library/Class/AUDIO/Src/usbh_audio.c ****     default:
 895:Middlewares/ST/STM32_USB_Host_Library/Class/AUDIO/Src/usbh_audio.c ****       break;
 896:Middlewares/ST/STM32_USB_Host_Library/Class/AUDIO/Src/usbh_audio.c ****     }
 897:Middlewares/ST/STM32_USB_Host_Library/Class/AUDIO/Src/usbh_audio.c ****   }
 898:Middlewares/ST/STM32_USB_Host_Library/Class/AUDIO/Src/usbh_audio.c ****  
 899:Middlewares/ST/STM32_USB_Host_Library/Class/AUDIO/Src/usbh_audio.c ****   return USBH_OK;
 900:Middlewares/ST/STM32_USB_Host_Library/Class/AUDIO/Src/usbh_audio.c **** }
 395              		.loc 1 900 0
 396 00ac 0020     		movs	r0, #0
 397 00ae 7047     		bx	lr
 398              		.cfi_endproc
 399              	.LFE135:
 401              		.section	.text.USBH_AUDIO_FindLinkedUnit,"ax",%progbits
 402              		.align	2
 403              		.thumb
 404              		.thumb_func
 406              	USBH_AUDIO_FindLinkedUnit:
 407              	.LFB136:
 901:Middlewares/ST/STM32_USB_Host_Library/Class/AUDIO/Src/usbh_audio.c **** 
 902:Middlewares/ST/STM32_USB_Host_Library/Class/AUDIO/Src/usbh_audio.c **** 
 903:Middlewares/ST/STM32_USB_Host_Library/Class/AUDIO/Src/usbh_audio.c **** /**
ARM GAS  /tmp/cc7hx4Eu.s 			page 24


 904:Middlewares/ST/STM32_USB_Host_Library/Class/AUDIO/Src/usbh_audio.c ****   * @brief  Link a Unit to next associated one
 905:Middlewares/ST/STM32_USB_Host_Library/Class/AUDIO/Src/usbh_audio.c ****   * @param  phost: Host handle
 906:Middlewares/ST/STM32_USB_Host_Library/Class/AUDIO/Src/usbh_audio.c ****   * @param  UnitID: Unit identifer
 907:Middlewares/ST/STM32_USB_Host_Library/Class/AUDIO/Src/usbh_audio.c ****   * @retval UnitID, Index and Type of the associated Unit 
 908:Middlewares/ST/STM32_USB_Host_Library/Class/AUDIO/Src/usbh_audio.c ****   */
 909:Middlewares/ST/STM32_USB_Host_Library/Class/AUDIO/Src/usbh_audio.c **** static int32_t USBH_AUDIO_FindLinkedUnit(USBH_HandleTypeDef *phost, uint8_t UnitID)
 910:Middlewares/ST/STM32_USB_Host_Library/Class/AUDIO/Src/usbh_audio.c **** {
 408              		.loc 1 910 0
 409              		.cfi_startproc
 410              		@ args = 0, pretend = 0, frame = 0
 411              		@ frame_needed = 0, uses_anonymous_args = 0
 412              		@ link register save eliminated.
 413              	.LVL40:
 414 0000 30B4     		push	{r4, r5}
 415              	.LCFI2:
 416              		.cfi_def_cfa_offset 8
 417              		.cfi_offset 4, -8
 418              		.cfi_offset 5, -4
 911:Middlewares/ST/STM32_USB_Host_Library/Class/AUDIO/Src/usbh_audio.c ****   uint8_t Index;  
 912:Middlewares/ST/STM32_USB_Host_Library/Class/AUDIO/Src/usbh_audio.c ****   AUDIO_HandleTypeDef *AUDIO_Handle;
 913:Middlewares/ST/STM32_USB_Host_Library/Class/AUDIO/Src/usbh_audio.c ****   
 914:Middlewares/ST/STM32_USB_Host_Library/Class/AUDIO/Src/usbh_audio.c ****   AUDIO_Handle =  (AUDIO_HandleTypeDef *) phost->pActiveClass->pData;    
 419              		.loc 1 914 0
 420 0002 D0F84435 		ldr	r3, [r0, #1348]
 421 0006 DC69     		ldr	r4, [r3, #28]
 422              	.LVL41:
 915:Middlewares/ST/STM32_USB_Host_Library/Class/AUDIO/Src/usbh_audio.c ****   
 916:Middlewares/ST/STM32_USB_Host_Library/Class/AUDIO/Src/usbh_audio.c ****   /* Find Feature Unit */
 917:Middlewares/ST/STM32_USB_Host_Library/Class/AUDIO/Src/usbh_audio.c ****   for(Index = 0; Index < AUDIO_Handle->class_desc.FeatureUnitNum; Index ++)
 423              		.loc 1 917 0
 424 0008 0023     		movs	r3, #0
 425 000a 10E0     		b	.L29
 426              	.LVL42:
 427              	.L32:
 918:Middlewares/ST/STM32_USB_Host_Library/Class/AUDIO/Src/usbh_audio.c ****   {
 919:Middlewares/ST/STM32_USB_Host_Library/Class/AUDIO/Src/usbh_audio.c ****     if(AUDIO_Handle->class_desc.cs_desc.FeatureUnitDesc[Index]->bSourceID == UnitID)
 428              		.loc 1 919 0
 429 000c 1846     		mov	r0, r3
 430 000e 03F12202 		add	r2, r3, #34
 431 0012 04EB8202 		add	r2, r4, r2, lsl #2
 432 0016 9268     		ldr	r2, [r2, #8]
 433 0018 1579     		ldrb	r5, [r2, #4]	@ zero_extendqisi2
 434 001a 8D42     		cmp	r5, r1
 435 001c 05D1     		bne	.L30
 920:Middlewares/ST/STM32_USB_Host_Library/Class/AUDIO/Src/usbh_audio.c ****     {
 921:Middlewares/ST/STM32_USB_Host_Library/Class/AUDIO/Src/usbh_audio.c ****       UnitID = AUDIO_Handle->class_desc.cs_desc.FeatureUnitDesc[Index]->bUnitID;
 436              		.loc 1 921 0
 437 001e D378     		ldrb	r3, [r2, #3]	@ zero_extendqisi2
 438              	.LVL43:
 922:Middlewares/ST/STM32_USB_Host_Library/Class/AUDIO/Src/usbh_audio.c ****       
 923:Middlewares/ST/STM32_USB_Host_Library/Class/AUDIO/Src/usbh_audio.c ****       return ((UnitID << 16) | (UAC_FEATURE_UNIT << 8) | Index);
 439              		.loc 1 923 0
 440 0020 1B04     		lsls	r3, r3, #16
 441              	.LVL44:
 442 0022 43F4C063 		orr	r3, r3, #1536
 443 0026 1843     		orrs	r0, r0, r3
 444 0028 53E0     		b	.L31
ARM GAS  /tmp/cc7hx4Eu.s 			page 25


 445              	.LVL45:
 446              	.L30:
 917:Middlewares/ST/STM32_USB_Host_Library/Class/AUDIO/Src/usbh_audio.c ****   {
 447              		.loc 1 917 0 discriminator 2
 448 002a 0133     		adds	r3, r3, #1
 449              	.LVL46:
 450 002c DBB2     		uxtb	r3, r3
 451              	.LVL47:
 452              	.L29:
 917:Middlewares/ST/STM32_USB_Host_Library/Class/AUDIO/Src/usbh_audio.c ****   {
 453              		.loc 1 917 0 is_stmt 0 discriminator 1
 454 002e 9AB2     		uxth	r2, r3
 455 0030 B4F8EE00 		ldrh	r0, [r4, #238]
 456 0034 8242     		cmp	r2, r0
 457 0036 E9D3     		bcc	.L32
 458 0038 0023     		movs	r3, #0
 459              	.LVL48:
 460 003a 13E0     		b	.L33
 461              	.LVL49:
 462              	.L36:
 924:Middlewares/ST/STM32_USB_Host_Library/Class/AUDIO/Src/usbh_audio.c ****     }
 925:Middlewares/ST/STM32_USB_Host_Library/Class/AUDIO/Src/usbh_audio.c ****   }
 926:Middlewares/ST/STM32_USB_Host_Library/Class/AUDIO/Src/usbh_audio.c ****   
 927:Middlewares/ST/STM32_USB_Host_Library/Class/AUDIO/Src/usbh_audio.c ****   /* Find Mixer Unit */
 928:Middlewares/ST/STM32_USB_Host_Library/Class/AUDIO/Src/usbh_audio.c ****   for(Index = 0; Index < AUDIO_Handle->class_desc.MixerUnitNum; Index ++)
 929:Middlewares/ST/STM32_USB_Host_Library/Class/AUDIO/Src/usbh_audio.c ****   {
 930:Middlewares/ST/STM32_USB_Host_Library/Class/AUDIO/Src/usbh_audio.c ****     if((AUDIO_Handle->class_desc.cs_desc.MixerUnitDesc[Index]->bSourceID0 == UnitID)||
 463              		.loc 1 930 0 is_stmt 1
 464 003c 1846     		mov	r0, r3
 465 003e 03F12602 		add	r2, r3, #38
 466 0042 04EB8202 		add	r2, r4, r2, lsl #2
 467 0046 9268     		ldr	r2, [r2, #8]
 468 0048 5579     		ldrb	r5, [r2, #5]	@ zero_extendqisi2
 469 004a A942     		cmp	r1, r5
 470 004c 02D0     		beq	.L34
 931:Middlewares/ST/STM32_USB_Host_Library/Class/AUDIO/Src/usbh_audio.c ****        (AUDIO_Handle->class_desc.cs_desc.MixerUnitDesc[Index]->bSourceID1 == UnitID))
 471              		.loc 1 931 0 discriminator 1
 472 004e 9579     		ldrb	r5, [r2, #6]	@ zero_extendqisi2
 930:Middlewares/ST/STM32_USB_Host_Library/Class/AUDIO/Src/usbh_audio.c ****        (AUDIO_Handle->class_desc.cs_desc.MixerUnitDesc[Index]->bSourceID1 == UnitID))
 473              		.loc 1 930 0 discriminator 1
 474 0050 A942     		cmp	r1, r5
 475 0052 05D1     		bne	.L35
 476              	.L34:
 932:Middlewares/ST/STM32_USB_Host_Library/Class/AUDIO/Src/usbh_audio.c ****     {
 933:Middlewares/ST/STM32_USB_Host_Library/Class/AUDIO/Src/usbh_audio.c ****       UnitID = AUDIO_Handle->class_desc.cs_desc.MixerUnitDesc[Index]->bUnitID;
 477              		.loc 1 933 0
 478 0054 D378     		ldrb	r3, [r2, #3]	@ zero_extendqisi2
 479              	.LVL50:
 934:Middlewares/ST/STM32_USB_Host_Library/Class/AUDIO/Src/usbh_audio.c ****       
 935:Middlewares/ST/STM32_USB_Host_Library/Class/AUDIO/Src/usbh_audio.c ****       return ((UnitID << 16) | (UAC_MIXER_UNIT << 8) | Index);
 480              		.loc 1 935 0
 481 0056 1B04     		lsls	r3, r3, #16
 482              	.LVL51:
 483 0058 43F48063 		orr	r3, r3, #1024
 484 005c 1843     		orrs	r0, r0, r3
 485 005e 38E0     		b	.L31
 486              	.LVL52:
ARM GAS  /tmp/cc7hx4Eu.s 			page 26


 487              	.L35:
 928:Middlewares/ST/STM32_USB_Host_Library/Class/AUDIO/Src/usbh_audio.c ****   {
 488              		.loc 1 928 0 discriminator 2
 489 0060 0133     		adds	r3, r3, #1
 490              	.LVL53:
 491 0062 DBB2     		uxtb	r3, r3
 492              	.LVL54:
 493              	.L33:
 928:Middlewares/ST/STM32_USB_Host_Library/Class/AUDIO/Src/usbh_audio.c ****   {
 494              		.loc 1 928 0 is_stmt 0 discriminator 1
 495 0064 9AB2     		uxth	r2, r3
 496 0066 B4F8F200 		ldrh	r0, [r4, #242]
 497 006a 8242     		cmp	r2, r0
 498 006c E6D3     		bcc	.L36
 499 006e 0023     		movs	r3, #0
 500              	.LVL55:
 501 0070 10E0     		b	.L37
 502              	.LVL56:
 503              	.L39:
 936:Middlewares/ST/STM32_USB_Host_Library/Class/AUDIO/Src/usbh_audio.c ****     }
 937:Middlewares/ST/STM32_USB_Host_Library/Class/AUDIO/Src/usbh_audio.c ****   }
 938:Middlewares/ST/STM32_USB_Host_Library/Class/AUDIO/Src/usbh_audio.c ****   
 939:Middlewares/ST/STM32_USB_Host_Library/Class/AUDIO/Src/usbh_audio.c ****   
 940:Middlewares/ST/STM32_USB_Host_Library/Class/AUDIO/Src/usbh_audio.c ****   /* Find Selector Unit */
 941:Middlewares/ST/STM32_USB_Host_Library/Class/AUDIO/Src/usbh_audio.c ****   for(Index = 0; Index < AUDIO_Handle->class_desc.SelectorUnitNum; Index ++)
 942:Middlewares/ST/STM32_USB_Host_Library/Class/AUDIO/Src/usbh_audio.c ****   {
 943:Middlewares/ST/STM32_USB_Host_Library/Class/AUDIO/Src/usbh_audio.c ****     if(AUDIO_Handle->class_desc.cs_desc.SelectorUnitDesc[Index]->bSourceID0 == UnitID)
 504              		.loc 1 943 0 is_stmt 1
 505 0072 1846     		mov	r0, r3
 506 0074 03F12A02 		add	r2, r3, #42
 507 0078 04EB8202 		add	r2, r4, r2, lsl #2
 508 007c 9268     		ldr	r2, [r2, #8]
 509 007e 5579     		ldrb	r5, [r2, #5]	@ zero_extendqisi2
 510 0080 A942     		cmp	r1, r5
 511 0082 05D1     		bne	.L38
 944:Middlewares/ST/STM32_USB_Host_Library/Class/AUDIO/Src/usbh_audio.c ****     {
 945:Middlewares/ST/STM32_USB_Host_Library/Class/AUDIO/Src/usbh_audio.c ****       UnitID = AUDIO_Handle->class_desc.cs_desc.SelectorUnitDesc[Index]->bUnitID;
 512              		.loc 1 945 0
 513 0084 D378     		ldrb	r3, [r2, #3]	@ zero_extendqisi2
 514              	.LVL57:
 946:Middlewares/ST/STM32_USB_Host_Library/Class/AUDIO/Src/usbh_audio.c ****       
 947:Middlewares/ST/STM32_USB_Host_Library/Class/AUDIO/Src/usbh_audio.c ****       return ((UnitID << 16) | (UAC_SELECTOR_UNIT << 8) | Index); 
 515              		.loc 1 947 0
 516 0086 1B04     		lsls	r3, r3, #16
 517              	.LVL58:
 518 0088 43F4A063 		orr	r3, r3, #1280
 519 008c 1843     		orrs	r0, r0, r3
 520 008e 20E0     		b	.L31
 521              	.LVL59:
 522              	.L38:
 941:Middlewares/ST/STM32_USB_Host_Library/Class/AUDIO/Src/usbh_audio.c ****   {
 523              		.loc 1 941 0 discriminator 2
 524 0090 0133     		adds	r3, r3, #1
 525              	.LVL60:
 526 0092 DBB2     		uxtb	r3, r3
 527              	.LVL61:
 528              	.L37:
ARM GAS  /tmp/cc7hx4Eu.s 			page 27


 941:Middlewares/ST/STM32_USB_Host_Library/Class/AUDIO/Src/usbh_audio.c ****   {
 529              		.loc 1 941 0 is_stmt 0 discriminator 1
 530 0094 9AB2     		uxth	r2, r3
 531 0096 B4F8F000 		ldrh	r0, [r4, #240]
 532 009a 8242     		cmp	r2, r0
 533 009c E9D3     		bcc	.L39
 534 009e 0023     		movs	r3, #0
 535              	.LVL62:
 536 00a0 10E0     		b	.L40
 537              	.LVL63:
 538              	.L42:
 948:Middlewares/ST/STM32_USB_Host_Library/Class/AUDIO/Src/usbh_audio.c ****     }
 949:Middlewares/ST/STM32_USB_Host_Library/Class/AUDIO/Src/usbh_audio.c ****   }  
 950:Middlewares/ST/STM32_USB_Host_Library/Class/AUDIO/Src/usbh_audio.c ****   
 951:Middlewares/ST/STM32_USB_Host_Library/Class/AUDIO/Src/usbh_audio.c ****   
 952:Middlewares/ST/STM32_USB_Host_Library/Class/AUDIO/Src/usbh_audio.c ****   /* Find OT Unit */  
 953:Middlewares/ST/STM32_USB_Host_Library/Class/AUDIO/Src/usbh_audio.c ****   for(Index = 0; Index < AUDIO_Handle->class_desc.OutputTerminalNum; Index ++)
 954:Middlewares/ST/STM32_USB_Host_Library/Class/AUDIO/Src/usbh_audio.c ****   {
 955:Middlewares/ST/STM32_USB_Host_Library/Class/AUDIO/Src/usbh_audio.c ****     if(AUDIO_Handle->class_desc.cs_desc.OutputTerminalDesc[Index]->bSourceID == UnitID)
 539              		.loc 1 955 0 is_stmt 1
 540 00a2 1846     		mov	r0, r3
 541 00a4 03F11E02 		add	r2, r3, #30
 542 00a8 04EB8202 		add	r2, r4, r2, lsl #2
 543 00ac 9268     		ldr	r2, [r2, #8]
 544 00ae D579     		ldrb	r5, [r2, #7]	@ zero_extendqisi2
 545 00b0 A942     		cmp	r1, r5
 546 00b2 05D1     		bne	.L41
 956:Middlewares/ST/STM32_USB_Host_Library/Class/AUDIO/Src/usbh_audio.c ****     {
 957:Middlewares/ST/STM32_USB_Host_Library/Class/AUDIO/Src/usbh_audio.c ****       UnitID = AUDIO_Handle->class_desc.cs_desc.OutputTerminalDesc[Index]->bTerminalID;
 547              		.loc 1 957 0
 548 00b4 D378     		ldrb	r3, [r2, #3]	@ zero_extendqisi2
 549              	.LVL64:
 958:Middlewares/ST/STM32_USB_Host_Library/Class/AUDIO/Src/usbh_audio.c ****       
 959:Middlewares/ST/STM32_USB_Host_Library/Class/AUDIO/Src/usbh_audio.c ****       return ((UnitID << 16) | (UAC_OUTPUT_TERMINAL << 8) | Index);
 550              		.loc 1 959 0
 551 00b6 1B04     		lsls	r3, r3, #16
 552              	.LVL65:
 553 00b8 43F44073 		orr	r3, r3, #768
 554 00bc 1843     		orrs	r0, r0, r3
 555 00be 08E0     		b	.L31
 556              	.LVL66:
 557              	.L41:
 953:Middlewares/ST/STM32_USB_Host_Library/Class/AUDIO/Src/usbh_audio.c ****   {
 558              		.loc 1 953 0 discriminator 2
 559 00c0 0133     		adds	r3, r3, #1
 560              	.LVL67:
 561 00c2 DBB2     		uxtb	r3, r3
 562              	.LVL68:
 563              	.L40:
 953:Middlewares/ST/STM32_USB_Host_Library/Class/AUDIO/Src/usbh_audio.c ****   {
 564              		.loc 1 953 0 is_stmt 0 discriminator 1
 565 00c4 9AB2     		uxth	r2, r3
 566 00c6 B4F8EC00 		ldrh	r0, [r4, #236]
 567 00ca 8242     		cmp	r2, r0
 568 00cc E9D3     		bcc	.L42
 960:Middlewares/ST/STM32_USB_Host_Library/Class/AUDIO/Src/usbh_audio.c ****     }
 961:Middlewares/ST/STM32_USB_Host_Library/Class/AUDIO/Src/usbh_audio.c ****   } 
ARM GAS  /tmp/cc7hx4Eu.s 			page 28


 962:Middlewares/ST/STM32_USB_Host_Library/Class/AUDIO/Src/usbh_audio.c ****   
 963:Middlewares/ST/STM32_USB_Host_Library/Class/AUDIO/Src/usbh_audio.c ****   /* No associated Unit found */
 964:Middlewares/ST/STM32_USB_Host_Library/Class/AUDIO/Src/usbh_audio.c ****   return -1;
 569              		.loc 1 964 0 is_stmt 1
 570 00ce 4FF0FF30 		mov	r0, #-1
 571              	.LVL69:
 572              	.L31:
 965:Middlewares/ST/STM32_USB_Host_Library/Class/AUDIO/Src/usbh_audio.c **** }
 573              		.loc 1 965 0
 574 00d2 30BC     		pop	{r4, r5}
 575              	.LCFI3:
 576              		.cfi_restore 5
 577              		.cfi_restore 4
 578              		.cfi_def_cfa_offset 0
 579              	.LVL70:
 580 00d4 7047     		bx	lr
 581              		.cfi_endproc
 582              	.LFE136:
 584              		.section	.text.USBH_AUDIO_BuildMicrophonePath,"ax",%progbits
 585              		.align	2
 586              		.thumb
 587              		.thumb_func
 589              	USBH_AUDIO_BuildMicrophonePath:
 590              	.LFB137:
 966:Middlewares/ST/STM32_USB_Host_Library/Class/AUDIO/Src/usbh_audio.c **** 
 967:Middlewares/ST/STM32_USB_Host_Library/Class/AUDIO/Src/usbh_audio.c **** /**
 968:Middlewares/ST/STM32_USB_Host_Library/Class/AUDIO/Src/usbh_audio.c ****   * @brief  Build full path for Microphone device
 969:Middlewares/ST/STM32_USB_Host_Library/Class/AUDIO/Src/usbh_audio.c ****   * @param  phost: Host handle
 970:Middlewares/ST/STM32_USB_Host_Library/Class/AUDIO/Src/usbh_audio.c ****   * @retval USBH Status
 971:Middlewares/ST/STM32_USB_Host_Library/Class/AUDIO/Src/usbh_audio.c ****   */
 972:Middlewares/ST/STM32_USB_Host_Library/Class/AUDIO/Src/usbh_audio.c **** USBH_StatusTypeDef USBH_AUDIO_BuildMicrophonePath(USBH_HandleTypeDef *phost)
 973:Middlewares/ST/STM32_USB_Host_Library/Class/AUDIO/Src/usbh_audio.c **** {
 591              		.loc 1 973 0
 592              		.cfi_startproc
 593              		@ args = 0, pretend = 0, frame = 0
 594              		@ frame_needed = 0, uses_anonymous_args = 0
 595              	.LVL71:
 596 0000 70B5     		push	{r4, r5, r6, lr}
 597              	.LCFI4:
 598              		.cfi_def_cfa_offset 16
 599              		.cfi_offset 4, -16
 600              		.cfi_offset 5, -12
 601              		.cfi_offset 6, -8
 602              		.cfi_offset 14, -4
 603 0002 0546     		mov	r5, r0
 604              	.LVL72:
 974:Middlewares/ST/STM32_USB_Host_Library/Class/AUDIO/Src/usbh_audio.c ****   uint8_t UnitID = 0, Type, Index;
 975:Middlewares/ST/STM32_USB_Host_Library/Class/AUDIO/Src/usbh_audio.c ****   uint32_t value;
 976:Middlewares/ST/STM32_USB_Host_Library/Class/AUDIO/Src/usbh_audio.c ****   uint8_t terminalIndex;  
 977:Middlewares/ST/STM32_USB_Host_Library/Class/AUDIO/Src/usbh_audio.c ****   AUDIO_HandleTypeDef *AUDIO_Handle;
 978:Middlewares/ST/STM32_USB_Host_Library/Class/AUDIO/Src/usbh_audio.c ****   
 979:Middlewares/ST/STM32_USB_Host_Library/Class/AUDIO/Src/usbh_audio.c ****   AUDIO_Handle = (AUDIO_HandleTypeDef*) phost->pActiveClass->pData;    
 605              		.loc 1 979 0
 606 0004 D0F84435 		ldr	r3, [r0, #1348]
 607 0008 DC69     		ldr	r4, [r3, #28]
 608              	.LVL73:
 980:Middlewares/ST/STM32_USB_Host_Library/Class/AUDIO/Src/usbh_audio.c ****   
ARM GAS  /tmp/cc7hx4Eu.s 			page 29


 981:Middlewares/ST/STM32_USB_Host_Library/Class/AUDIO/Src/usbh_audio.c ****   /*Find microphone IT*/
 982:Middlewares/ST/STM32_USB_Host_Library/Class/AUDIO/Src/usbh_audio.c ****   for(terminalIndex = 0; terminalIndex < AUDIO_Handle->class_desc.InputTerminalNum; terminalIndex++
 609              		.loc 1 982 0
 610 000a 0023     		movs	r3, #0
 611 000c 13E0     		b	.L45
 612              	.LVL74:
 613              	.L48:
 983:Middlewares/ST/STM32_USB_Host_Library/Class/AUDIO/Src/usbh_audio.c ****   {
 984:Middlewares/ST/STM32_USB_Host_Library/Class/AUDIO/Src/usbh_audio.c ****     if(LE16(AUDIO_Handle->class_desc.cs_desc.InputTerminalDesc[terminalIndex]->wTerminalType) == 0x
 614              		.loc 1 984 0
 615 000e 03F11A02 		add	r2, r3, #26
 616 0012 04EB8202 		add	r2, r4, r2, lsl #2
 617 0016 9068     		ldr	r0, [r2, #8]
 618 0018 0279     		ldrb	r2, [r0, #4]	@ zero_extendqisi2
 619 001a 4179     		ldrb	r1, [r0, #5]	@ zero_extendqisi2
 620 001c 02EB0122 		add	r2, r2, r1, lsl #8
 621 0020 40F20121 		movw	r1, #513
 622 0024 8A42     		cmp	r2, r1
 623 0026 04D1     		bne	.L46
 985:Middlewares/ST/STM32_USB_Host_Library/Class/AUDIO/Src/usbh_audio.c ****     {    
 986:Middlewares/ST/STM32_USB_Host_Library/Class/AUDIO/Src/usbh_audio.c ****       UnitID = AUDIO_Handle->class_desc.cs_desc.InputTerminalDesc[terminalIndex]->bTerminalID;
 624              		.loc 1 986 0
 625 0028 C178     		ldrb	r1, [r0, #3]	@ zero_extendqisi2
 626              	.LVL75:
 987:Middlewares/ST/STM32_USB_Host_Library/Class/AUDIO/Src/usbh_audio.c ****       AUDIO_Handle->microphone.asociated_channels =  AUDIO_Handle->class_desc.cs_desc.InputTerminal
 627              		.loc 1 987 0
 628 002a C379     		ldrb	r3, [r0, #7]	@ zero_extendqisi2
 629              	.LVL76:
 630 002c 84F85131 		strb	r3, [r4, #337]
 988:Middlewares/ST/STM32_USB_Host_Library/Class/AUDIO/Src/usbh_audio.c ****       break;
 631              		.loc 1 988 0
 632 0030 07E0     		b	.L56
 633              	.LVL77:
 634              	.L46:
 982:Middlewares/ST/STM32_USB_Host_Library/Class/AUDIO/Src/usbh_audio.c ****   {
 635              		.loc 1 982 0 discriminator 2
 636 0032 0133     		adds	r3, r3, #1
 637              	.LVL78:
 638 0034 DBB2     		uxtb	r3, r3
 639              	.LVL79:
 640              	.L45:
 982:Middlewares/ST/STM32_USB_Host_Library/Class/AUDIO/Src/usbh_audio.c ****   {
 641              		.loc 1 982 0 is_stmt 0 discriminator 1
 642 0036 9AB2     		uxth	r2, r3
 643 0038 B4F8EA10 		ldrh	r1, [r4, #234]
 644 003c 8A42     		cmp	r2, r1
 645 003e E6D3     		bcc	.L48
 974:Middlewares/ST/STM32_USB_Host_Library/Class/AUDIO/Src/usbh_audio.c ****   uint32_t value;
 646              		.loc 1 974 0 is_stmt 1
 647 0040 0021     		movs	r1, #0
 648              	.LVL80:
 649              	.L56:
 989:Middlewares/ST/STM32_USB_Host_Library/Class/AUDIO/Src/usbh_audio.c ****     }
 990:Middlewares/ST/STM32_USB_Host_Library/Class/AUDIO/Src/usbh_audio.c ****   }
 991:Middlewares/ST/STM32_USB_Host_Library/Class/AUDIO/Src/usbh_audio.c ****   
 992:Middlewares/ST/STM32_USB_Host_Library/Class/AUDIO/Src/usbh_audio.c ****   do
 993:Middlewares/ST/STM32_USB_Host_Library/Class/AUDIO/Src/usbh_audio.c ****   {
ARM GAS  /tmp/cc7hx4Eu.s 			page 30


 994:Middlewares/ST/STM32_USB_Host_Library/Class/AUDIO/Src/usbh_audio.c ****     value =  USBH_AUDIO_FindLinkedUnit(phost, UnitID);
 650              		.loc 1 994 0
 651 0042 2846     		mov	r0, r5
 652 0044 FFF7FEFF 		bl	USBH_AUDIO_FindLinkedUnit
 653              	.LVL81:
 995:Middlewares/ST/STM32_USB_Host_Library/Class/AUDIO/Src/usbh_audio.c ****     Index = value & 0xFF;
 654              		.loc 1 995 0
 655 0048 C6B2     		uxtb	r6, r0
 656              	.LVL82:
 996:Middlewares/ST/STM32_USB_Host_Library/Class/AUDIO/Src/usbh_audio.c ****     Type   = (value >> 8) & 0xFF;
 657              		.loc 1 996 0
 658 004a C0F30723 		ubfx	r3, r0, #8, #8
 659              	.LVL83:
 997:Middlewares/ST/STM32_USB_Host_Library/Class/AUDIO/Src/usbh_audio.c ****     UnitID   = (value >> 16) & 0xFF;
 660              		.loc 1 997 0
 661 004e C0F30741 		ubfx	r1, r0, #16, #8
 662              	.LVL84:
 998:Middlewares/ST/STM32_USB_Host_Library/Class/AUDIO/Src/usbh_audio.c ****     
 999:Middlewares/ST/STM32_USB_Host_Library/Class/AUDIO/Src/usbh_audio.c ****     switch (Type)
 663              		.loc 1 999 0
 664 0052 DA1E     		subs	r2, r3, #3
 665 0054 032A     		cmp	r2, #3
 666 0056 0ED8     		bhi	.L49
 667 0058 DFE802F0 		tbb	[pc, r2]
 668              	.L51:
 669 005c 0B       		.byte	(.L50-.L51)/2
 670 005d 05       		.byte	(.L52-.L51)/2
 671 005e 08       		.byte	(.L53-.L51)/2
 672 005f 02       		.byte	(.L54-.L51)/2
 673              		.p2align 1
 674              	.L54:
1000:Middlewares/ST/STM32_USB_Host_Library/Class/AUDIO/Src/usbh_audio.c ****     {
1001:Middlewares/ST/STM32_USB_Host_Library/Class/AUDIO/Src/usbh_audio.c ****     case UAC_FEATURE_UNIT:
1002:Middlewares/ST/STM32_USB_Host_Library/Class/AUDIO/Src/usbh_audio.c ****       AUDIO_Handle->microphone.asociated_feature = Index;
 675              		.loc 1 1002 0
 676 0060 84F84F61 		strb	r6, [r4, #335]
1003:Middlewares/ST/STM32_USB_Host_Library/Class/AUDIO/Src/usbh_audio.c ****       break;
 677              		.loc 1 1003 0
 678 0064 07E0     		b	.L49
 679              	.L52:
1004:Middlewares/ST/STM32_USB_Host_Library/Class/AUDIO/Src/usbh_audio.c ****       
1005:Middlewares/ST/STM32_USB_Host_Library/Class/AUDIO/Src/usbh_audio.c ****     case UAC_MIXER_UNIT:
1006:Middlewares/ST/STM32_USB_Host_Library/Class/AUDIO/Src/usbh_audio.c ****       AUDIO_Handle->microphone.asociated_mixer = Index;
 680              		.loc 1 1006 0
 681 0066 84F84D61 		strb	r6, [r4, #333]
1007:Middlewares/ST/STM32_USB_Host_Library/Class/AUDIO/Src/usbh_audio.c ****       break;
 682              		.loc 1 1007 0
 683 006a 04E0     		b	.L49
 684              	.L53:
1008:Middlewares/ST/STM32_USB_Host_Library/Class/AUDIO/Src/usbh_audio.c ****       
1009:Middlewares/ST/STM32_USB_Host_Library/Class/AUDIO/Src/usbh_audio.c ****     case UAC_SELECTOR_UNIT:
1010:Middlewares/ST/STM32_USB_Host_Library/Class/AUDIO/Src/usbh_audio.c ****       AUDIO_Handle->microphone.asociated_selector = Index;
 685              		.loc 1 1010 0
 686 006c 84F84E61 		strb	r6, [r4, #334]
1011:Middlewares/ST/STM32_USB_Host_Library/Class/AUDIO/Src/usbh_audio.c ****       break;
 687              		.loc 1 1011 0
 688 0070 01E0     		b	.L49
ARM GAS  /tmp/cc7hx4Eu.s 			page 31


 689              	.L50:
1012:Middlewares/ST/STM32_USB_Host_Library/Class/AUDIO/Src/usbh_audio.c ****       
1013:Middlewares/ST/STM32_USB_Host_Library/Class/AUDIO/Src/usbh_audio.c ****     case UAC_OUTPUT_TERMINAL:
1014:Middlewares/ST/STM32_USB_Host_Library/Class/AUDIO/Src/usbh_audio.c ****       AUDIO_Handle->microphone.asociated_terminal = Index;
 690              		.loc 1 1014 0
 691 0072 84F85061 		strb	r6, [r4, #336]
 692              	.L49:
1015:Middlewares/ST/STM32_USB_Host_Library/Class/AUDIO/Src/usbh_audio.c ****       break;    
1016:Middlewares/ST/STM32_USB_Host_Library/Class/AUDIO/Src/usbh_audio.c ****     }
1017:Middlewares/ST/STM32_USB_Host_Library/Class/AUDIO/Src/usbh_audio.c ****   }
1018:Middlewares/ST/STM32_USB_Host_Library/Class/AUDIO/Src/usbh_audio.c ****   while ((Type != UAC_OUTPUT_TERMINAL) && (value > 0));
 693              		.loc 1 1018 0
 694 0076 032B     		cmp	r3, #3
 695 0078 01D0     		beq	.L55
 696              		.loc 1 1018 0 is_stmt 0 discriminator 1
 697 007a 0028     		cmp	r0, #0
 698 007c E1D1     		bne	.L56
 699              	.L55:
1019:Middlewares/ST/STM32_USB_Host_Library/Class/AUDIO/Src/usbh_audio.c ****   
1020:Middlewares/ST/STM32_USB_Host_Library/Class/AUDIO/Src/usbh_audio.c ****   
1021:Middlewares/ST/STM32_USB_Host_Library/Class/AUDIO/Src/usbh_audio.c ****   
1022:Middlewares/ST/STM32_USB_Host_Library/Class/AUDIO/Src/usbh_audio.c ****   return USBH_OK;
1023:Middlewares/ST/STM32_USB_Host_Library/Class/AUDIO/Src/usbh_audio.c **** }
 700              		.loc 1 1023 0 is_stmt 1
 701 007e 0020     		movs	r0, #0
 702              	.LVL85:
 703 0080 70BD     		pop	{r4, r5, r6, pc}
 704              		.cfi_endproc
 705              	.LFE137:
 707 0082 00BF     		.section	.text.USBH_AUDIO_BuildHeadphonePath,"ax",%progbits
 708              		.align	2
 709              		.thumb
 710              		.thumb_func
 712              	USBH_AUDIO_BuildHeadphonePath:
 713              	.LFB138:
1024:Middlewares/ST/STM32_USB_Host_Library/Class/AUDIO/Src/usbh_audio.c **** 
1025:Middlewares/ST/STM32_USB_Host_Library/Class/AUDIO/Src/usbh_audio.c **** /**
1026:Middlewares/ST/STM32_USB_Host_Library/Class/AUDIO/Src/usbh_audio.c ****   * @brief  Build full path for Headphone device
1027:Middlewares/ST/STM32_USB_Host_Library/Class/AUDIO/Src/usbh_audio.c ****   * @param  phost: Host handle
1028:Middlewares/ST/STM32_USB_Host_Library/Class/AUDIO/Src/usbh_audio.c ****   * @retval USBH Status
1029:Middlewares/ST/STM32_USB_Host_Library/Class/AUDIO/Src/usbh_audio.c ****   */
1030:Middlewares/ST/STM32_USB_Host_Library/Class/AUDIO/Src/usbh_audio.c **** USBH_StatusTypeDef USBH_AUDIO_BuildHeadphonePath(USBH_HandleTypeDef *phost)
1031:Middlewares/ST/STM32_USB_Host_Library/Class/AUDIO/Src/usbh_audio.c **** {
 714              		.loc 1 1031 0
 715              		.cfi_startproc
 716              		@ args = 0, pretend = 0, frame = 0
 717              		@ frame_needed = 0, uses_anonymous_args = 0
 718              	.LVL86:
 719 0000 70B5     		push	{r4, r5, r6, lr}
 720              	.LCFI5:
 721              		.cfi_def_cfa_offset 16
 722              		.cfi_offset 4, -16
 723              		.cfi_offset 5, -12
 724              		.cfi_offset 6, -8
 725              		.cfi_offset 14, -4
 726 0002 0546     		mov	r5, r0
 727              	.LVL87:
ARM GAS  /tmp/cc7hx4Eu.s 			page 32


1032:Middlewares/ST/STM32_USB_Host_Library/Class/AUDIO/Src/usbh_audio.c ****   uint8_t UnitID = 0, Type, Index;
1033:Middlewares/ST/STM32_USB_Host_Library/Class/AUDIO/Src/usbh_audio.c ****   uint32_t value;
1034:Middlewares/ST/STM32_USB_Host_Library/Class/AUDIO/Src/usbh_audio.c ****   uint8_t terminalIndex;  
1035:Middlewares/ST/STM32_USB_Host_Library/Class/AUDIO/Src/usbh_audio.c ****   AUDIO_HandleTypeDef *AUDIO_Handle;
1036:Middlewares/ST/STM32_USB_Host_Library/Class/AUDIO/Src/usbh_audio.c ****   
1037:Middlewares/ST/STM32_USB_Host_Library/Class/AUDIO/Src/usbh_audio.c ****   AUDIO_Handle =  (AUDIO_HandleTypeDef*) phost->pActiveClass->pData;    
 728              		.loc 1 1037 0
 729 0004 D0F84435 		ldr	r3, [r0, #1348]
 730 0008 DC69     		ldr	r4, [r3, #28]
 731              	.LVL88:
1038:Middlewares/ST/STM32_USB_Host_Library/Class/AUDIO/Src/usbh_audio.c ****   
1039:Middlewares/ST/STM32_USB_Host_Library/Class/AUDIO/Src/usbh_audio.c ****   /* Find association between audio streaming and microphone */
1040:Middlewares/ST/STM32_USB_Host_Library/Class/AUDIO/Src/usbh_audio.c ****   for(terminalIndex = 0; terminalIndex < AUDIO_Handle->class_desc.InputTerminalNum; terminalIndex++
 732              		.loc 1 1040 0
 733 000a 0023     		movs	r3, #0
 734 000c 13E0     		b	.L59
 735              	.LVL89:
 736              	.L62:
1041:Middlewares/ST/STM32_USB_Host_Library/Class/AUDIO/Src/usbh_audio.c ****   {
1042:Middlewares/ST/STM32_USB_Host_Library/Class/AUDIO/Src/usbh_audio.c ****     if(LE16(AUDIO_Handle->class_desc.cs_desc.InputTerminalDesc[terminalIndex]->wTerminalType) == 0x
 737              		.loc 1 1042 0
 738 000e 03F11A02 		add	r2, r3, #26
 739 0012 04EB8202 		add	r2, r4, r2, lsl #2
 740 0016 9068     		ldr	r0, [r2, #8]
 741 0018 0279     		ldrb	r2, [r0, #4]	@ zero_extendqisi2
 742 001a 4179     		ldrb	r1, [r0, #5]	@ zero_extendqisi2
 743 001c 02EB0122 		add	r2, r2, r1, lsl #8
 744 0020 40F20111 		movw	r1, #257
 745 0024 8A42     		cmp	r2, r1
 746 0026 04D1     		bne	.L60
1043:Middlewares/ST/STM32_USB_Host_Library/Class/AUDIO/Src/usbh_audio.c ****     {    
1044:Middlewares/ST/STM32_USB_Host_Library/Class/AUDIO/Src/usbh_audio.c ****       UnitID = AUDIO_Handle->class_desc.cs_desc.InputTerminalDesc[terminalIndex]->bTerminalID;
 747              		.loc 1 1044 0
 748 0028 C178     		ldrb	r1, [r0, #3]	@ zero_extendqisi2
 749              	.LVL90:
1045:Middlewares/ST/STM32_USB_Host_Library/Class/AUDIO/Src/usbh_audio.c ****       AUDIO_Handle->headphone.asociated_channels =  AUDIO_Handle->class_desc.cs_desc.InputTerminalD
 750              		.loc 1 1045 0
 751 002a C379     		ldrb	r3, [r0, #7]	@ zero_extendqisi2
 752              	.LVL91:
 753 002c 84F80931 		strb	r3, [r4, #265]
1046:Middlewares/ST/STM32_USB_Host_Library/Class/AUDIO/Src/usbh_audio.c ****       break;
 754              		.loc 1 1046 0
 755 0030 07E0     		b	.L61
 756              	.LVL92:
 757              	.L60:
1040:Middlewares/ST/STM32_USB_Host_Library/Class/AUDIO/Src/usbh_audio.c ****   {
 758              		.loc 1 1040 0 discriminator 2
 759 0032 0133     		adds	r3, r3, #1
 760              	.LVL93:
 761 0034 DBB2     		uxtb	r3, r3
 762              	.LVL94:
 763              	.L59:
1040:Middlewares/ST/STM32_USB_Host_Library/Class/AUDIO/Src/usbh_audio.c ****   {
 764              		.loc 1 1040 0 is_stmt 0 discriminator 1
 765 0036 9AB2     		uxth	r2, r3
 766 0038 B4F8EA10 		ldrh	r1, [r4, #234]
 767 003c 8A42     		cmp	r2, r1
ARM GAS  /tmp/cc7hx4Eu.s 			page 33


 768 003e E6D3     		bcc	.L62
1032:Middlewares/ST/STM32_USB_Host_Library/Class/AUDIO/Src/usbh_audio.c ****   uint32_t value;
 769              		.loc 1 1032 0 is_stmt 1
 770 0040 0021     		movs	r1, #0
 771              	.LVL95:
 772              	.L61:
1047:Middlewares/ST/STM32_USB_Host_Library/Class/AUDIO/Src/usbh_audio.c ****     }
1048:Middlewares/ST/STM32_USB_Host_Library/Class/AUDIO/Src/usbh_audio.c ****   }
1049:Middlewares/ST/STM32_USB_Host_Library/Class/AUDIO/Src/usbh_audio.c ****   
1050:Middlewares/ST/STM32_USB_Host_Library/Class/AUDIO/Src/usbh_audio.c ****   for(Index = 0; Index < AUDIO_Handle->class_desc.ASNum; Index++)
 773              		.loc 1 1050 0
 774 0042 0023     		movs	r3, #0
 775 0044 0CE0     		b	.L63
 776              	.LVL96:
 777              	.L66:
1051:Middlewares/ST/STM32_USB_Host_Library/Class/AUDIO/Src/usbh_audio.c ****   {
1052:Middlewares/ST/STM32_USB_Host_Library/Class/AUDIO/Src/usbh_audio.c ****     if(AUDIO_Handle->class_desc.as_desc[Index].GeneralDesc->bTerminalLink == UnitID)
 778              		.loc 1 1052 0
 779 0046 03F11702 		add	r2, r3, #23
 780 004a 04EBC202 		add	r2, r4, r2, lsl #3
 781 004e 9268     		ldr	r2, [r2, #8]
 782 0050 D278     		ldrb	r2, [r2, #3]	@ zero_extendqisi2
 783 0052 9142     		cmp	r1, r2
 784 0054 02D1     		bne	.L64
1053:Middlewares/ST/STM32_USB_Host_Library/Class/AUDIO/Src/usbh_audio.c ****     {    
1054:Middlewares/ST/STM32_USB_Host_Library/Class/AUDIO/Src/usbh_audio.c ****       AUDIO_Handle->headphone.asociated_as = Index;
 785              		.loc 1 1054 0
 786 0056 84F80431 		strb	r3, [r4, #260]
1055:Middlewares/ST/STM32_USB_Host_Library/Class/AUDIO/Src/usbh_audio.c ****       break;
 787              		.loc 1 1055 0
 788 005a 06E0     		b	.L74
 789              	.L64:
1050:Middlewares/ST/STM32_USB_Host_Library/Class/AUDIO/Src/usbh_audio.c ****   {
 790              		.loc 1 1050 0 discriminator 2
 791 005c 0133     		adds	r3, r3, #1
 792              	.LVL97:
 793 005e DBB2     		uxtb	r3, r3
 794              	.LVL98:
 795              	.L63:
1050:Middlewares/ST/STM32_USB_Host_Library/Class/AUDIO/Src/usbh_audio.c ****   {
 796              		.loc 1 1050 0 is_stmt 0 discriminator 1
 797 0060 9AB2     		uxth	r2, r3
 798 0062 B4F8E800 		ldrh	r0, [r4, #232]
 799 0066 8242     		cmp	r2, r0
 800 0068 EDD3     		bcc	.L66
 801              	.LVL99:
 802              	.L74:
1056:Middlewares/ST/STM32_USB_Host_Library/Class/AUDIO/Src/usbh_audio.c ****     }
1057:Middlewares/ST/STM32_USB_Host_Library/Class/AUDIO/Src/usbh_audio.c ****   } 
1058:Middlewares/ST/STM32_USB_Host_Library/Class/AUDIO/Src/usbh_audio.c ****         
1059:Middlewares/ST/STM32_USB_Host_Library/Class/AUDIO/Src/usbh_audio.c ****   do
1060:Middlewares/ST/STM32_USB_Host_Library/Class/AUDIO/Src/usbh_audio.c ****   {
1061:Middlewares/ST/STM32_USB_Host_Library/Class/AUDIO/Src/usbh_audio.c ****     value =  USBH_AUDIO_FindLinkedUnit(phost, UnitID);
 803              		.loc 1 1061 0 is_stmt 1
 804 006a 2846     		mov	r0, r5
 805 006c FFF7FEFF 		bl	USBH_AUDIO_FindLinkedUnit
 806              	.LVL100:
ARM GAS  /tmp/cc7hx4Eu.s 			page 34


1062:Middlewares/ST/STM32_USB_Host_Library/Class/AUDIO/Src/usbh_audio.c ****     Index = value & 0xFF;
 807              		.loc 1 1062 0
 808 0070 C6B2     		uxtb	r6, r0
 809              	.LVL101:
1063:Middlewares/ST/STM32_USB_Host_Library/Class/AUDIO/Src/usbh_audio.c ****     Type   = (value >> 8) & 0xFF;
 810              		.loc 1 1063 0
 811 0072 C0F30722 		ubfx	r2, r0, #8, #8
 812              	.LVL102:
1064:Middlewares/ST/STM32_USB_Host_Library/Class/AUDIO/Src/usbh_audio.c ****     UnitID   = (value >> 16) & 0xFF;
 813              		.loc 1 1064 0
 814 0076 C0F30741 		ubfx	r1, r0, #16, #8
 815              	.LVL103:
1065:Middlewares/ST/STM32_USB_Host_Library/Class/AUDIO/Src/usbh_audio.c ****     
1066:Middlewares/ST/STM32_USB_Host_Library/Class/AUDIO/Src/usbh_audio.c ****     switch (Type)
 816              		.loc 1 1066 0
 817 007a D31E     		subs	r3, r2, #3
 818 007c 032B     		cmp	r3, #3
 819 007e 1BD8     		bhi	.L67
 820 0080 DFE803F0 		tbb	[pc, r3]
 821              	.L69:
 822 0084 0B       		.byte	(.L68-.L69)/2
 823 0085 05       		.byte	(.L70-.L69)/2
 824 0086 08       		.byte	(.L71-.L69)/2
 825 0087 02       		.byte	(.L72-.L69)/2
 826              		.p2align 1
 827              	.L72:
1067:Middlewares/ST/STM32_USB_Host_Library/Class/AUDIO/Src/usbh_audio.c ****     {
1068:Middlewares/ST/STM32_USB_Host_Library/Class/AUDIO/Src/usbh_audio.c ****     case UAC_FEATURE_UNIT:
1069:Middlewares/ST/STM32_USB_Host_Library/Class/AUDIO/Src/usbh_audio.c ****       AUDIO_Handle->headphone.asociated_feature = Index;
 828              		.loc 1 1069 0
 829 0088 84F80761 		strb	r6, [r4, #263]
1070:Middlewares/ST/STM32_USB_Host_Library/Class/AUDIO/Src/usbh_audio.c ****       break;
 830              		.loc 1 1070 0
 831 008c 14E0     		b	.L67
 832              	.L70:
1071:Middlewares/ST/STM32_USB_Host_Library/Class/AUDIO/Src/usbh_audio.c ****       
1072:Middlewares/ST/STM32_USB_Host_Library/Class/AUDIO/Src/usbh_audio.c ****     case UAC_MIXER_UNIT:
1073:Middlewares/ST/STM32_USB_Host_Library/Class/AUDIO/Src/usbh_audio.c ****       AUDIO_Handle->headphone.asociated_mixer = Index;
 833              		.loc 1 1073 0
 834 008e 84F80561 		strb	r6, [r4, #261]
1074:Middlewares/ST/STM32_USB_Host_Library/Class/AUDIO/Src/usbh_audio.c ****       break;
 835              		.loc 1 1074 0
 836 0092 11E0     		b	.L67
 837              	.L71:
1075:Middlewares/ST/STM32_USB_Host_Library/Class/AUDIO/Src/usbh_audio.c ****       
1076:Middlewares/ST/STM32_USB_Host_Library/Class/AUDIO/Src/usbh_audio.c ****     case UAC_SELECTOR_UNIT:
1077:Middlewares/ST/STM32_USB_Host_Library/Class/AUDIO/Src/usbh_audio.c ****       AUDIO_Handle->headphone.asociated_selector = Index;
 838              		.loc 1 1077 0
 839 0094 84F80661 		strb	r6, [r4, #262]
1078:Middlewares/ST/STM32_USB_Host_Library/Class/AUDIO/Src/usbh_audio.c ****       break;
 840              		.loc 1 1078 0
 841 0098 0EE0     		b	.L67
 842              	.L68:
1079:Middlewares/ST/STM32_USB_Host_Library/Class/AUDIO/Src/usbh_audio.c ****       
1080:Middlewares/ST/STM32_USB_Host_Library/Class/AUDIO/Src/usbh_audio.c ****     case UAC_OUTPUT_TERMINAL:
1081:Middlewares/ST/STM32_USB_Host_Library/Class/AUDIO/Src/usbh_audio.c ****       AUDIO_Handle->headphone.asociated_terminal = Index;
 843              		.loc 1 1081 0
ARM GAS  /tmp/cc7hx4Eu.s 			page 35


 844 009a 84F80861 		strb	r6, [r4, #264]
1082:Middlewares/ST/STM32_USB_Host_Library/Class/AUDIO/Src/usbh_audio.c ****       if(LE16(AUDIO_Handle->class_desc.cs_desc.OutputTerminalDesc[Index]->wTerminalType) != 0x103)
 845              		.loc 1 1082 0
 846 009e C3B2     		uxtb	r3, r0
 847 00a0 1E33     		adds	r3, r3, #30
 848 00a2 04EB8303 		add	r3, r4, r3, lsl #2
 849 00a6 9E68     		ldr	r6, [r3, #8]
 850              	.LVL104:
 851 00a8 3379     		ldrb	r3, [r6, #4]	@ zero_extendqisi2
 852 00aa 7679     		ldrb	r6, [r6, #5]	@ zero_extendqisi2
 853 00ac 03EB0623 		add	r3, r3, r6, lsl #8
 854 00b0 40F20316 		movw	r6, #259
 855 00b4 B342     		cmp	r3, r6
 856 00b6 05D1     		bne	.L75
 857              	.LVL105:
 858              	.L67:
1083:Middlewares/ST/STM32_USB_Host_Library/Class/AUDIO/Src/usbh_audio.c ****       {
1084:Middlewares/ST/STM32_USB_Host_Library/Class/AUDIO/Src/usbh_audio.c ****         return  USBH_OK;
1085:Middlewares/ST/STM32_USB_Host_Library/Class/AUDIO/Src/usbh_audio.c ****       }
1086:Middlewares/ST/STM32_USB_Host_Library/Class/AUDIO/Src/usbh_audio.c ****       break;    
1087:Middlewares/ST/STM32_USB_Host_Library/Class/AUDIO/Src/usbh_audio.c ****     }
1088:Middlewares/ST/STM32_USB_Host_Library/Class/AUDIO/Src/usbh_audio.c ****   }
1089:Middlewares/ST/STM32_USB_Host_Library/Class/AUDIO/Src/usbh_audio.c ****   while ((Type != UAC_OUTPUT_TERMINAL) && (value > 0));
 859              		.loc 1 1089 0
 860 00b8 032A     		cmp	r2, #3
 861 00ba 05D0     		beq	.L76
 862              		.loc 1 1089 0 is_stmt 0 discriminator 1
 863 00bc 0028     		cmp	r0, #0
 864 00be D4D1     		bne	.L74
1090:Middlewares/ST/STM32_USB_Host_Library/Class/AUDIO/Src/usbh_audio.c **** 
1091:Middlewares/ST/STM32_USB_Host_Library/Class/AUDIO/Src/usbh_audio.c ****   return USBH_FAIL;
 865              		.loc 1 1091 0 is_stmt 1
 866 00c0 0220     		movs	r0, #2
 867              	.LVL106:
 868 00c2 70BD     		pop	{r4, r5, r6, pc}
 869              	.LVL107:
 870              	.L75:
1084:Middlewares/ST/STM32_USB_Host_Library/Class/AUDIO/Src/usbh_audio.c ****       }
 871              		.loc 1 1084 0
 872 00c4 0020     		movs	r0, #0
 873              	.LVL108:
 874 00c6 70BD     		pop	{r4, r5, r6, pc}
 875              	.LVL109:
 876              	.L76:
 877              		.loc 1 1091 0
 878 00c8 0220     		movs	r0, #2
 879              	.LVL110:
1092:Middlewares/ST/STM32_USB_Host_Library/Class/AUDIO/Src/usbh_audio.c **** }
 880              		.loc 1 1092 0
 881 00ca 70BD     		pop	{r4, r5, r6, pc}
 882              		.cfi_endproc
 883              	.LFE138:
 885              		.section	.text.USBH_AUDIO_SetEndpointControls,"ax",%progbits
 886              		.align	2
 887              		.thumb
 888              		.thumb_func
 890              	USBH_AUDIO_SetEndpointControls:
ARM GAS  /tmp/cc7hx4Eu.s 			page 36


 891              	.LFB144:
1093:Middlewares/ST/STM32_USB_Host_Library/Class/AUDIO/Src/usbh_audio.c **** 
1094:Middlewares/ST/STM32_USB_Host_Library/Class/AUDIO/Src/usbh_audio.c **** 
1095:Middlewares/ST/STM32_USB_Host_Library/Class/AUDIO/Src/usbh_audio.c **** /**
1096:Middlewares/ST/STM32_USB_Host_Library/Class/AUDIO/Src/usbh_audio.c ****   * @brief  Handle Set Cur request
1097:Middlewares/ST/STM32_USB_Host_Library/Class/AUDIO/Src/usbh_audio.c ****   * @param  phost: Host handle
1098:Middlewares/ST/STM32_USB_Host_Library/Class/AUDIO/Src/usbh_audio.c ****   * @param  subtype: subtype index
1099:Middlewares/ST/STM32_USB_Host_Library/Class/AUDIO/Src/usbh_audio.c ****   * @param  feature: feature index
1100:Middlewares/ST/STM32_USB_Host_Library/Class/AUDIO/Src/usbh_audio.c ****   * @param  controlSelector: control code
1101:Middlewares/ST/STM32_USB_Host_Library/Class/AUDIO/Src/usbh_audio.c ****   * @param  channel: channel index
1102:Middlewares/ST/STM32_USB_Host_Library/Class/AUDIO/Src/usbh_audio.c ****   * @param  length: Command length
1103:Middlewares/ST/STM32_USB_Host_Library/Class/AUDIO/Src/usbh_audio.c ****   * @retval USBH Status
1104:Middlewares/ST/STM32_USB_Host_Library/Class/AUDIO/Src/usbh_audio.c ****   */
1105:Middlewares/ST/STM32_USB_Host_Library/Class/AUDIO/Src/usbh_audio.c **** static USBH_StatusTypeDef USBH_AC_SetCur(USBH_HandleTypeDef *phost, 
1106:Middlewares/ST/STM32_USB_Host_Library/Class/AUDIO/Src/usbh_audio.c ****                                          uint8_t subtype, 
1107:Middlewares/ST/STM32_USB_Host_Library/Class/AUDIO/Src/usbh_audio.c ****                                          uint8_t feature,
1108:Middlewares/ST/STM32_USB_Host_Library/Class/AUDIO/Src/usbh_audio.c ****                                          uint8_t controlSelector,
1109:Middlewares/ST/STM32_USB_Host_Library/Class/AUDIO/Src/usbh_audio.c ****                                          uint8_t channel,
1110:Middlewares/ST/STM32_USB_Host_Library/Class/AUDIO/Src/usbh_audio.c ****                                          uint16_t length)
1111:Middlewares/ST/STM32_USB_Host_Library/Class/AUDIO/Src/usbh_audio.c **** {
1112:Middlewares/ST/STM32_USB_Host_Library/Class/AUDIO/Src/usbh_audio.c ****   uint16_t wValue,wIndex,wLength;
1113:Middlewares/ST/STM32_USB_Host_Library/Class/AUDIO/Src/usbh_audio.c ****   uint8_t UnitID,InterfaceNum;
1114:Middlewares/ST/STM32_USB_Host_Library/Class/AUDIO/Src/usbh_audio.c ****   AUDIO_HandleTypeDef *AUDIO_Handle;
1115:Middlewares/ST/STM32_USB_Host_Library/Class/AUDIO/Src/usbh_audio.c ****   AUDIO_Handle =  (AUDIO_HandleTypeDef*) phost->pActiveClass->pData;
1116:Middlewares/ST/STM32_USB_Host_Library/Class/AUDIO/Src/usbh_audio.c ****   
1117:Middlewares/ST/STM32_USB_Host_Library/Class/AUDIO/Src/usbh_audio.c ****   switch(subtype)
1118:Middlewares/ST/STM32_USB_Host_Library/Class/AUDIO/Src/usbh_audio.c ****   {
1119:Middlewares/ST/STM32_USB_Host_Library/Class/AUDIO/Src/usbh_audio.c ****   case UAC_INPUT_TERMINAL:
1120:Middlewares/ST/STM32_USB_Host_Library/Class/AUDIO/Src/usbh_audio.c ****     UnitID = AUDIO_Handle->class_desc.cs_desc.InputTerminalDesc[0]->bTerminalID;
1121:Middlewares/ST/STM32_USB_Host_Library/Class/AUDIO/Src/usbh_audio.c ****     InterfaceNum = 0; /*Always zero Control Interface */
1122:Middlewares/ST/STM32_USB_Host_Library/Class/AUDIO/Src/usbh_audio.c ****     wIndex = ( UnitID << 8 ) | InterfaceNum ;
1123:Middlewares/ST/STM32_USB_Host_Library/Class/AUDIO/Src/usbh_audio.c ****     wValue = (COPY_PROTECT_CONTROL << 8 ) ;
1124:Middlewares/ST/STM32_USB_Host_Library/Class/AUDIO/Src/usbh_audio.c ****     AUDIO_Handle->mem[0] = 0x00;
1125:Middlewares/ST/STM32_USB_Host_Library/Class/AUDIO/Src/usbh_audio.c ****     
1126:Middlewares/ST/STM32_USB_Host_Library/Class/AUDIO/Src/usbh_audio.c ****     wLength = 1;
1127:Middlewares/ST/STM32_USB_Host_Library/Class/AUDIO/Src/usbh_audio.c ****     break;
1128:Middlewares/ST/STM32_USB_Host_Library/Class/AUDIO/Src/usbh_audio.c ****   case UAC_FEATURE_UNIT:
1129:Middlewares/ST/STM32_USB_Host_Library/Class/AUDIO/Src/usbh_audio.c ****     UnitID = AUDIO_Handle->class_desc.cs_desc.FeatureUnitDesc[feature]->bUnitID;
1130:Middlewares/ST/STM32_USB_Host_Library/Class/AUDIO/Src/usbh_audio.c ****     InterfaceNum = 0; /*Always zero Control Interface */
1131:Middlewares/ST/STM32_USB_Host_Library/Class/AUDIO/Src/usbh_audio.c ****     wIndex = ( UnitID << 8 ) | InterfaceNum ;
1132:Middlewares/ST/STM32_USB_Host_Library/Class/AUDIO/Src/usbh_audio.c ****     /*holds the CS(control selector ) and CN (channel number)*/
1133:Middlewares/ST/STM32_USB_Host_Library/Class/AUDIO/Src/usbh_audio.c ****     wValue =  (controlSelector << 8) | channel;
1134:Middlewares/ST/STM32_USB_Host_Library/Class/AUDIO/Src/usbh_audio.c ****     wLength = length;
1135:Middlewares/ST/STM32_USB_Host_Library/Class/AUDIO/Src/usbh_audio.c ****     break;
1136:Middlewares/ST/STM32_USB_Host_Library/Class/AUDIO/Src/usbh_audio.c ****   }
1137:Middlewares/ST/STM32_USB_Host_Library/Class/AUDIO/Src/usbh_audio.c ****   
1138:Middlewares/ST/STM32_USB_Host_Library/Class/AUDIO/Src/usbh_audio.c ****   phost->Control.setup.b.bmRequestType = USB_H2D | USB_REQ_RECIPIENT_INTERFACE | \
1139:Middlewares/ST/STM32_USB_Host_Library/Class/AUDIO/Src/usbh_audio.c ****     USB_REQ_TYPE_CLASS;
1140:Middlewares/ST/STM32_USB_Host_Library/Class/AUDIO/Src/usbh_audio.c ****   
1141:Middlewares/ST/STM32_USB_Host_Library/Class/AUDIO/Src/usbh_audio.c ****   phost->Control.setup.b.bRequest = UAC_SET_CUR;
1142:Middlewares/ST/STM32_USB_Host_Library/Class/AUDIO/Src/usbh_audio.c ****   phost->Control.setup.b.wValue.w = wValue;
1143:Middlewares/ST/STM32_USB_Host_Library/Class/AUDIO/Src/usbh_audio.c ****   phost->Control.setup.b.wIndex.w = wIndex;
1144:Middlewares/ST/STM32_USB_Host_Library/Class/AUDIO/Src/usbh_audio.c ****   phost->Control.setup.b.wLength.w = wLength; 
1145:Middlewares/ST/STM32_USB_Host_Library/Class/AUDIO/Src/usbh_audio.c ****   
1146:Middlewares/ST/STM32_USB_Host_Library/Class/AUDIO/Src/usbh_audio.c ****   return(USBH_CtlReq(phost, (uint8_t *)(AUDIO_Handle->mem) , wLength ));    
1147:Middlewares/ST/STM32_USB_Host_Library/Class/AUDIO/Src/usbh_audio.c ****   
1148:Middlewares/ST/STM32_USB_Host_Library/Class/AUDIO/Src/usbh_audio.c **** }
ARM GAS  /tmp/cc7hx4Eu.s 			page 37


1149:Middlewares/ST/STM32_USB_Host_Library/Class/AUDIO/Src/usbh_audio.c **** 
1150:Middlewares/ST/STM32_USB_Host_Library/Class/AUDIO/Src/usbh_audio.c **** /**
1151:Middlewares/ST/STM32_USB_Host_Library/Class/AUDIO/Src/usbh_audio.c ****   * @brief  Handle Get Cur request
1152:Middlewares/ST/STM32_USB_Host_Library/Class/AUDIO/Src/usbh_audio.c ****   * @param  phost: Host handle
1153:Middlewares/ST/STM32_USB_Host_Library/Class/AUDIO/Src/usbh_audio.c ****   * @param  subtype: subtype index
1154:Middlewares/ST/STM32_USB_Host_Library/Class/AUDIO/Src/usbh_audio.c ****   * @param  feature: feature index
1155:Middlewares/ST/STM32_USB_Host_Library/Class/AUDIO/Src/usbh_audio.c ****   * @param  controlSelector: control code
1156:Middlewares/ST/STM32_USB_Host_Library/Class/AUDIO/Src/usbh_audio.c ****   * @param  channel: channel index
1157:Middlewares/ST/STM32_USB_Host_Library/Class/AUDIO/Src/usbh_audio.c ****   * @param  length: Command length
1158:Middlewares/ST/STM32_USB_Host_Library/Class/AUDIO/Src/usbh_audio.c ****   * @retval USBH Status
1159:Middlewares/ST/STM32_USB_Host_Library/Class/AUDIO/Src/usbh_audio.c ****   */
1160:Middlewares/ST/STM32_USB_Host_Library/Class/AUDIO/Src/usbh_audio.c **** static USBH_StatusTypeDef USBH_AC_GetCur(USBH_HandleTypeDef *phost, 
1161:Middlewares/ST/STM32_USB_Host_Library/Class/AUDIO/Src/usbh_audio.c ****                                          uint8_t subtype, 
1162:Middlewares/ST/STM32_USB_Host_Library/Class/AUDIO/Src/usbh_audio.c ****                                          uint8_t feature,
1163:Middlewares/ST/STM32_USB_Host_Library/Class/AUDIO/Src/usbh_audio.c ****                                          uint8_t controlSelector,
1164:Middlewares/ST/STM32_USB_Host_Library/Class/AUDIO/Src/usbh_audio.c ****                                          uint8_t channel,
1165:Middlewares/ST/STM32_USB_Host_Library/Class/AUDIO/Src/usbh_audio.c ****                                          uint16_t length)
1166:Middlewares/ST/STM32_USB_Host_Library/Class/AUDIO/Src/usbh_audio.c **** {
1167:Middlewares/ST/STM32_USB_Host_Library/Class/AUDIO/Src/usbh_audio.c ****   uint16_t wValue = 0, wIndex = 0,wLength = 0;
1168:Middlewares/ST/STM32_USB_Host_Library/Class/AUDIO/Src/usbh_audio.c ****   uint8_t UnitID = 0, InterfaceNum = 0;
1169:Middlewares/ST/STM32_USB_Host_Library/Class/AUDIO/Src/usbh_audio.c ****   AUDIO_HandleTypeDef *AUDIO_Handle;
1170:Middlewares/ST/STM32_USB_Host_Library/Class/AUDIO/Src/usbh_audio.c ****   AUDIO_Handle =  (AUDIO_HandleTypeDef*) phost->pActiveClass->pData;
1171:Middlewares/ST/STM32_USB_Host_Library/Class/AUDIO/Src/usbh_audio.c ****   
1172:Middlewares/ST/STM32_USB_Host_Library/Class/AUDIO/Src/usbh_audio.c ****   switch(subtype)
1173:Middlewares/ST/STM32_USB_Host_Library/Class/AUDIO/Src/usbh_audio.c ****   {
1174:Middlewares/ST/STM32_USB_Host_Library/Class/AUDIO/Src/usbh_audio.c ****   case UAC_INPUT_TERMINAL:
1175:Middlewares/ST/STM32_USB_Host_Library/Class/AUDIO/Src/usbh_audio.c ****     UnitID = AUDIO_Handle->class_desc.cs_desc.InputTerminalDesc[0]->bTerminalID;
1176:Middlewares/ST/STM32_USB_Host_Library/Class/AUDIO/Src/usbh_audio.c ****     InterfaceNum = 0; /*Always zero Control Interface */
1177:Middlewares/ST/STM32_USB_Host_Library/Class/AUDIO/Src/usbh_audio.c ****     wIndex = ( UnitID << 8 ) | InterfaceNum ;
1178:Middlewares/ST/STM32_USB_Host_Library/Class/AUDIO/Src/usbh_audio.c ****     wValue = (COPY_PROTECT_CONTROL << 8 ) ;
1179:Middlewares/ST/STM32_USB_Host_Library/Class/AUDIO/Src/usbh_audio.c ****     AUDIO_Handle->mem[0] = 0x00;
1180:Middlewares/ST/STM32_USB_Host_Library/Class/AUDIO/Src/usbh_audio.c ****     
1181:Middlewares/ST/STM32_USB_Host_Library/Class/AUDIO/Src/usbh_audio.c ****     wLength = 1;
1182:Middlewares/ST/STM32_USB_Host_Library/Class/AUDIO/Src/usbh_audio.c ****     break;
1183:Middlewares/ST/STM32_USB_Host_Library/Class/AUDIO/Src/usbh_audio.c ****   case UAC_FEATURE_UNIT:
1184:Middlewares/ST/STM32_USB_Host_Library/Class/AUDIO/Src/usbh_audio.c ****     UnitID = AUDIO_Handle->class_desc.cs_desc.FeatureUnitDesc[feature]->bUnitID;
1185:Middlewares/ST/STM32_USB_Host_Library/Class/AUDIO/Src/usbh_audio.c ****     InterfaceNum = 0; /*Always zero Control Interface */
1186:Middlewares/ST/STM32_USB_Host_Library/Class/AUDIO/Src/usbh_audio.c ****     wIndex = ( UnitID << 8 ) | InterfaceNum ;
1187:Middlewares/ST/STM32_USB_Host_Library/Class/AUDIO/Src/usbh_audio.c ****     /*holds the CS(control selector ) and CN (channel number)*/
1188:Middlewares/ST/STM32_USB_Host_Library/Class/AUDIO/Src/usbh_audio.c ****     wValue =  (controlSelector << 8) | channel;
1189:Middlewares/ST/STM32_USB_Host_Library/Class/AUDIO/Src/usbh_audio.c ****     wLength = length;
1190:Middlewares/ST/STM32_USB_Host_Library/Class/AUDIO/Src/usbh_audio.c ****     break;
1191:Middlewares/ST/STM32_USB_Host_Library/Class/AUDIO/Src/usbh_audio.c ****     
1192:Middlewares/ST/STM32_USB_Host_Library/Class/AUDIO/Src/usbh_audio.c ****   case UAC_OUTPUT_TERMINAL:
1193:Middlewares/ST/STM32_USB_Host_Library/Class/AUDIO/Src/usbh_audio.c ****     UnitID = AUDIO_Handle->class_desc.cs_desc.OutputTerminalDesc[0]->bTerminalID;
1194:Middlewares/ST/STM32_USB_Host_Library/Class/AUDIO/Src/usbh_audio.c ****     InterfaceNum = 0; /*Always zero Control Interface */
1195:Middlewares/ST/STM32_USB_Host_Library/Class/AUDIO/Src/usbh_audio.c ****     wIndex = ( UnitID << 8 ) | InterfaceNum ;
1196:Middlewares/ST/STM32_USB_Host_Library/Class/AUDIO/Src/usbh_audio.c ****     wValue = (COPY_PROTECT_CONTROL << 8 ) ; 
1197:Middlewares/ST/STM32_USB_Host_Library/Class/AUDIO/Src/usbh_audio.c ****     wLength = 1; 
1198:Middlewares/ST/STM32_USB_Host_Library/Class/AUDIO/Src/usbh_audio.c ****     break;
1199:Middlewares/ST/STM32_USB_Host_Library/Class/AUDIO/Src/usbh_audio.c ****   }
1200:Middlewares/ST/STM32_USB_Host_Library/Class/AUDIO/Src/usbh_audio.c ****   
1201:Middlewares/ST/STM32_USB_Host_Library/Class/AUDIO/Src/usbh_audio.c ****   phost->Control.setup.b.bmRequestType = USB_D2H | USB_REQ_RECIPIENT_INTERFACE | \
1202:Middlewares/ST/STM32_USB_Host_Library/Class/AUDIO/Src/usbh_audio.c ****     USB_REQ_TYPE_CLASS;
1203:Middlewares/ST/STM32_USB_Host_Library/Class/AUDIO/Src/usbh_audio.c ****   
1204:Middlewares/ST/STM32_USB_Host_Library/Class/AUDIO/Src/usbh_audio.c ****   phost->Control.setup.b.bRequest = UAC_GET_CUR;
1205:Middlewares/ST/STM32_USB_Host_Library/Class/AUDIO/Src/usbh_audio.c ****   phost->Control.setup.b.wValue.w = wValue;
ARM GAS  /tmp/cc7hx4Eu.s 			page 38


1206:Middlewares/ST/STM32_USB_Host_Library/Class/AUDIO/Src/usbh_audio.c ****   phost->Control.setup.b.wIndex.w = wIndex;
1207:Middlewares/ST/STM32_USB_Host_Library/Class/AUDIO/Src/usbh_audio.c ****   phost->Control.setup.b.wLength.w = wLength; 
1208:Middlewares/ST/STM32_USB_Host_Library/Class/AUDIO/Src/usbh_audio.c ****   
1209:Middlewares/ST/STM32_USB_Host_Library/Class/AUDIO/Src/usbh_audio.c ****   return(USBH_CtlReq(phost, (uint8_t *)(AUDIO_Handle->mem) , wLength ));    
1210:Middlewares/ST/STM32_USB_Host_Library/Class/AUDIO/Src/usbh_audio.c ****   
1211:Middlewares/ST/STM32_USB_Host_Library/Class/AUDIO/Src/usbh_audio.c **** }
1212:Middlewares/ST/STM32_USB_Host_Library/Class/AUDIO/Src/usbh_audio.c **** 
1213:Middlewares/ST/STM32_USB_Host_Library/Class/AUDIO/Src/usbh_audio.c **** 
1214:Middlewares/ST/STM32_USB_Host_Library/Class/AUDIO/Src/usbh_audio.c **** /**
1215:Middlewares/ST/STM32_USB_Host_Library/Class/AUDIO/Src/usbh_audio.c ****   * @brief  Handle Get Max request
1216:Middlewares/ST/STM32_USB_Host_Library/Class/AUDIO/Src/usbh_audio.c ****   * @param  phost: Host handle
1217:Middlewares/ST/STM32_USB_Host_Library/Class/AUDIO/Src/usbh_audio.c ****   * @param  subtype: subtype index
1218:Middlewares/ST/STM32_USB_Host_Library/Class/AUDIO/Src/usbh_audio.c ****   * @param  feature: feature index
1219:Middlewares/ST/STM32_USB_Host_Library/Class/AUDIO/Src/usbh_audio.c ****   * @param  controlSelector: control code
1220:Middlewares/ST/STM32_USB_Host_Library/Class/AUDIO/Src/usbh_audio.c ****   * @param  channel: channel index
1221:Middlewares/ST/STM32_USB_Host_Library/Class/AUDIO/Src/usbh_audio.c ****   * @param  length: Command length
1222:Middlewares/ST/STM32_USB_Host_Library/Class/AUDIO/Src/usbh_audio.c ****   * @retval USBH Status
1223:Middlewares/ST/STM32_USB_Host_Library/Class/AUDIO/Src/usbh_audio.c ****   */
1224:Middlewares/ST/STM32_USB_Host_Library/Class/AUDIO/Src/usbh_audio.c **** static USBH_StatusTypeDef USBH_AC_GetMax(USBH_HandleTypeDef *phost, 
1225:Middlewares/ST/STM32_USB_Host_Library/Class/AUDIO/Src/usbh_audio.c ****                                          uint8_t subtype, 
1226:Middlewares/ST/STM32_USB_Host_Library/Class/AUDIO/Src/usbh_audio.c ****                                          uint8_t feature,
1227:Middlewares/ST/STM32_USB_Host_Library/Class/AUDIO/Src/usbh_audio.c ****                                          uint8_t controlSelector,
1228:Middlewares/ST/STM32_USB_Host_Library/Class/AUDIO/Src/usbh_audio.c ****                                          uint8_t channel,
1229:Middlewares/ST/STM32_USB_Host_Library/Class/AUDIO/Src/usbh_audio.c ****                                          uint16_t length)
1230:Middlewares/ST/STM32_USB_Host_Library/Class/AUDIO/Src/usbh_audio.c **** {
1231:Middlewares/ST/STM32_USB_Host_Library/Class/AUDIO/Src/usbh_audio.c ****   uint16_t wValue = 0, wIndex = 0, wLength = 0;
1232:Middlewares/ST/STM32_USB_Host_Library/Class/AUDIO/Src/usbh_audio.c ****   uint8_t UnitID = 0, InterfaceNum = 0;
1233:Middlewares/ST/STM32_USB_Host_Library/Class/AUDIO/Src/usbh_audio.c ****   AUDIO_HandleTypeDef *AUDIO_Handle;
1234:Middlewares/ST/STM32_USB_Host_Library/Class/AUDIO/Src/usbh_audio.c ****   AUDIO_Handle =  (AUDIO_HandleTypeDef*) phost->pActiveClass->pData;
1235:Middlewares/ST/STM32_USB_Host_Library/Class/AUDIO/Src/usbh_audio.c ****   
1236:Middlewares/ST/STM32_USB_Host_Library/Class/AUDIO/Src/usbh_audio.c ****   switch(subtype)
1237:Middlewares/ST/STM32_USB_Host_Library/Class/AUDIO/Src/usbh_audio.c ****   {
1238:Middlewares/ST/STM32_USB_Host_Library/Class/AUDIO/Src/usbh_audio.c ****   case UAC_INPUT_TERMINAL:
1239:Middlewares/ST/STM32_USB_Host_Library/Class/AUDIO/Src/usbh_audio.c ****     UnitID = AUDIO_Handle->class_desc.cs_desc.InputTerminalDesc[0]->bTerminalID;
1240:Middlewares/ST/STM32_USB_Host_Library/Class/AUDIO/Src/usbh_audio.c ****     InterfaceNum = 0; /*Always zero Control Interface */
1241:Middlewares/ST/STM32_USB_Host_Library/Class/AUDIO/Src/usbh_audio.c ****     wIndex = ( UnitID << 8 ) | InterfaceNum ;
1242:Middlewares/ST/STM32_USB_Host_Library/Class/AUDIO/Src/usbh_audio.c ****     wValue = (COPY_PROTECT_CONTROL << 8 ) ;
1243:Middlewares/ST/STM32_USB_Host_Library/Class/AUDIO/Src/usbh_audio.c ****     AUDIO_Handle->mem[0] = 0x00;
1244:Middlewares/ST/STM32_USB_Host_Library/Class/AUDIO/Src/usbh_audio.c ****     
1245:Middlewares/ST/STM32_USB_Host_Library/Class/AUDIO/Src/usbh_audio.c ****     wLength = 1;
1246:Middlewares/ST/STM32_USB_Host_Library/Class/AUDIO/Src/usbh_audio.c ****     break;
1247:Middlewares/ST/STM32_USB_Host_Library/Class/AUDIO/Src/usbh_audio.c ****   case UAC_FEATURE_UNIT:
1248:Middlewares/ST/STM32_USB_Host_Library/Class/AUDIO/Src/usbh_audio.c ****     UnitID = AUDIO_Handle->class_desc.cs_desc.FeatureUnitDesc[feature]->bUnitID;
1249:Middlewares/ST/STM32_USB_Host_Library/Class/AUDIO/Src/usbh_audio.c ****     InterfaceNum = 0; /*Always zero Control Interface */
1250:Middlewares/ST/STM32_USB_Host_Library/Class/AUDIO/Src/usbh_audio.c ****     wIndex = ( UnitID << 8 ) | InterfaceNum ;
1251:Middlewares/ST/STM32_USB_Host_Library/Class/AUDIO/Src/usbh_audio.c ****     /*holds the CS(control selector ) and CN (channel number)*/
1252:Middlewares/ST/STM32_USB_Host_Library/Class/AUDIO/Src/usbh_audio.c ****     wValue =  (controlSelector << 8) | channel;
1253:Middlewares/ST/STM32_USB_Host_Library/Class/AUDIO/Src/usbh_audio.c ****     wLength = length;
1254:Middlewares/ST/STM32_USB_Host_Library/Class/AUDIO/Src/usbh_audio.c ****     break;
1255:Middlewares/ST/STM32_USB_Host_Library/Class/AUDIO/Src/usbh_audio.c ****     
1256:Middlewares/ST/STM32_USB_Host_Library/Class/AUDIO/Src/usbh_audio.c ****   case UAC_OUTPUT_TERMINAL:
1257:Middlewares/ST/STM32_USB_Host_Library/Class/AUDIO/Src/usbh_audio.c ****     UnitID = AUDIO_Handle->class_desc.cs_desc.OutputTerminalDesc[0]->bTerminalID;
1258:Middlewares/ST/STM32_USB_Host_Library/Class/AUDIO/Src/usbh_audio.c ****     InterfaceNum = 0; /*Always zero Control Interface */
1259:Middlewares/ST/STM32_USB_Host_Library/Class/AUDIO/Src/usbh_audio.c ****     wIndex = ( UnitID << 8 ) | InterfaceNum ;
1260:Middlewares/ST/STM32_USB_Host_Library/Class/AUDIO/Src/usbh_audio.c ****     wValue = (COPY_PROTECT_CONTROL << 8 ) ; 
1261:Middlewares/ST/STM32_USB_Host_Library/Class/AUDIO/Src/usbh_audio.c ****     wLength = 1; 
1262:Middlewares/ST/STM32_USB_Host_Library/Class/AUDIO/Src/usbh_audio.c ****     break;
ARM GAS  /tmp/cc7hx4Eu.s 			page 39


1263:Middlewares/ST/STM32_USB_Host_Library/Class/AUDIO/Src/usbh_audio.c ****   }
1264:Middlewares/ST/STM32_USB_Host_Library/Class/AUDIO/Src/usbh_audio.c ****   
1265:Middlewares/ST/STM32_USB_Host_Library/Class/AUDIO/Src/usbh_audio.c ****   phost->Control.setup.b.bmRequestType = USB_D2H | USB_REQ_RECIPIENT_INTERFACE | \
1266:Middlewares/ST/STM32_USB_Host_Library/Class/AUDIO/Src/usbh_audio.c ****     USB_REQ_TYPE_CLASS;
1267:Middlewares/ST/STM32_USB_Host_Library/Class/AUDIO/Src/usbh_audio.c ****   
1268:Middlewares/ST/STM32_USB_Host_Library/Class/AUDIO/Src/usbh_audio.c ****   phost->Control.setup.b.bRequest = UAC_GET_MAX;
1269:Middlewares/ST/STM32_USB_Host_Library/Class/AUDIO/Src/usbh_audio.c ****   phost->Control.setup.b.wValue.w = wValue;
1270:Middlewares/ST/STM32_USB_Host_Library/Class/AUDIO/Src/usbh_audio.c ****   phost->Control.setup.b.wIndex.w = wIndex;
1271:Middlewares/ST/STM32_USB_Host_Library/Class/AUDIO/Src/usbh_audio.c ****   phost->Control.setup.b.wLength.w = wLength; 
1272:Middlewares/ST/STM32_USB_Host_Library/Class/AUDIO/Src/usbh_audio.c ****   
1273:Middlewares/ST/STM32_USB_Host_Library/Class/AUDIO/Src/usbh_audio.c ****   return(USBH_CtlReq(phost, (uint8_t *)(AUDIO_Handle->mem) , wLength ));    
1274:Middlewares/ST/STM32_USB_Host_Library/Class/AUDIO/Src/usbh_audio.c ****   
1275:Middlewares/ST/STM32_USB_Host_Library/Class/AUDIO/Src/usbh_audio.c **** }
1276:Middlewares/ST/STM32_USB_Host_Library/Class/AUDIO/Src/usbh_audio.c **** 
1277:Middlewares/ST/STM32_USB_Host_Library/Class/AUDIO/Src/usbh_audio.c **** 
1278:Middlewares/ST/STM32_USB_Host_Library/Class/AUDIO/Src/usbh_audio.c **** 
1279:Middlewares/ST/STM32_USB_Host_Library/Class/AUDIO/Src/usbh_audio.c **** /**
1280:Middlewares/ST/STM32_USB_Host_Library/Class/AUDIO/Src/usbh_audio.c ****   * @brief  Handle Get Res request
1281:Middlewares/ST/STM32_USB_Host_Library/Class/AUDIO/Src/usbh_audio.c ****   * @param  phost: Host handle
1282:Middlewares/ST/STM32_USB_Host_Library/Class/AUDIO/Src/usbh_audio.c ****   * @param  subtype: subtype index
1283:Middlewares/ST/STM32_USB_Host_Library/Class/AUDIO/Src/usbh_audio.c ****   * @param  feature: feature index
1284:Middlewares/ST/STM32_USB_Host_Library/Class/AUDIO/Src/usbh_audio.c ****   * @param  controlSelector: control code
1285:Middlewares/ST/STM32_USB_Host_Library/Class/AUDIO/Src/usbh_audio.c ****   * @param  channel: channel index
1286:Middlewares/ST/STM32_USB_Host_Library/Class/AUDIO/Src/usbh_audio.c ****   * @param  length: Command length
1287:Middlewares/ST/STM32_USB_Host_Library/Class/AUDIO/Src/usbh_audio.c ****   * @retval USBH Status
1288:Middlewares/ST/STM32_USB_Host_Library/Class/AUDIO/Src/usbh_audio.c ****   */
1289:Middlewares/ST/STM32_USB_Host_Library/Class/AUDIO/Src/usbh_audio.c **** static USBH_StatusTypeDef USBH_AC_GetRes(USBH_HandleTypeDef *phost, 
1290:Middlewares/ST/STM32_USB_Host_Library/Class/AUDIO/Src/usbh_audio.c ****                                          uint8_t subtype, 
1291:Middlewares/ST/STM32_USB_Host_Library/Class/AUDIO/Src/usbh_audio.c ****                                          uint8_t feature,
1292:Middlewares/ST/STM32_USB_Host_Library/Class/AUDIO/Src/usbh_audio.c ****                                          uint8_t controlSelector,
1293:Middlewares/ST/STM32_USB_Host_Library/Class/AUDIO/Src/usbh_audio.c ****                                          uint8_t channel,
1294:Middlewares/ST/STM32_USB_Host_Library/Class/AUDIO/Src/usbh_audio.c ****                                          uint16_t length)
1295:Middlewares/ST/STM32_USB_Host_Library/Class/AUDIO/Src/usbh_audio.c **** {
1296:Middlewares/ST/STM32_USB_Host_Library/Class/AUDIO/Src/usbh_audio.c ****   uint16_t wValue = 0, wIndex = 0, wLength = 0;
1297:Middlewares/ST/STM32_USB_Host_Library/Class/AUDIO/Src/usbh_audio.c ****   uint8_t UnitID = 0, InterfaceNum = 0;
1298:Middlewares/ST/STM32_USB_Host_Library/Class/AUDIO/Src/usbh_audio.c ****   AUDIO_HandleTypeDef *AUDIO_Handle;
1299:Middlewares/ST/STM32_USB_Host_Library/Class/AUDIO/Src/usbh_audio.c ****   AUDIO_Handle =  (AUDIO_HandleTypeDef*) phost->pActiveClass->pData;
1300:Middlewares/ST/STM32_USB_Host_Library/Class/AUDIO/Src/usbh_audio.c ****   
1301:Middlewares/ST/STM32_USB_Host_Library/Class/AUDIO/Src/usbh_audio.c ****   switch(subtype)
1302:Middlewares/ST/STM32_USB_Host_Library/Class/AUDIO/Src/usbh_audio.c ****   {
1303:Middlewares/ST/STM32_USB_Host_Library/Class/AUDIO/Src/usbh_audio.c ****   case UAC_INPUT_TERMINAL:
1304:Middlewares/ST/STM32_USB_Host_Library/Class/AUDIO/Src/usbh_audio.c ****     UnitID = AUDIO_Handle->class_desc.cs_desc.InputTerminalDesc[0]->bTerminalID;
1305:Middlewares/ST/STM32_USB_Host_Library/Class/AUDIO/Src/usbh_audio.c ****     InterfaceNum = 0; /*Always zero Control Interface */
1306:Middlewares/ST/STM32_USB_Host_Library/Class/AUDIO/Src/usbh_audio.c ****     wIndex = ( UnitID << 8 ) | InterfaceNum ;
1307:Middlewares/ST/STM32_USB_Host_Library/Class/AUDIO/Src/usbh_audio.c ****     wValue = (COPY_PROTECT_CONTROL << 8 ) ;
1308:Middlewares/ST/STM32_USB_Host_Library/Class/AUDIO/Src/usbh_audio.c ****     AUDIO_Handle->mem[0] = 0x00;
1309:Middlewares/ST/STM32_USB_Host_Library/Class/AUDIO/Src/usbh_audio.c ****     
1310:Middlewares/ST/STM32_USB_Host_Library/Class/AUDIO/Src/usbh_audio.c ****     wLength = 1;
1311:Middlewares/ST/STM32_USB_Host_Library/Class/AUDIO/Src/usbh_audio.c ****     break;
1312:Middlewares/ST/STM32_USB_Host_Library/Class/AUDIO/Src/usbh_audio.c ****   case UAC_FEATURE_UNIT:
1313:Middlewares/ST/STM32_USB_Host_Library/Class/AUDIO/Src/usbh_audio.c ****     UnitID = AUDIO_Handle->class_desc.cs_desc.FeatureUnitDesc[feature]->bUnitID;
1314:Middlewares/ST/STM32_USB_Host_Library/Class/AUDIO/Src/usbh_audio.c ****     InterfaceNum = 0; /*Always zero Control Interface */
1315:Middlewares/ST/STM32_USB_Host_Library/Class/AUDIO/Src/usbh_audio.c ****     wIndex = ( UnitID << 8 ) | InterfaceNum ;
1316:Middlewares/ST/STM32_USB_Host_Library/Class/AUDIO/Src/usbh_audio.c ****     /*holds the CS(control selector ) and CN (channel number)*/
1317:Middlewares/ST/STM32_USB_Host_Library/Class/AUDIO/Src/usbh_audio.c ****     wValue =  (controlSelector << 8) | channel;
1318:Middlewares/ST/STM32_USB_Host_Library/Class/AUDIO/Src/usbh_audio.c ****     wLength = length;
1319:Middlewares/ST/STM32_USB_Host_Library/Class/AUDIO/Src/usbh_audio.c ****     break;
ARM GAS  /tmp/cc7hx4Eu.s 			page 40


1320:Middlewares/ST/STM32_USB_Host_Library/Class/AUDIO/Src/usbh_audio.c ****     
1321:Middlewares/ST/STM32_USB_Host_Library/Class/AUDIO/Src/usbh_audio.c ****   case UAC_OUTPUT_TERMINAL:
1322:Middlewares/ST/STM32_USB_Host_Library/Class/AUDIO/Src/usbh_audio.c ****     UnitID = AUDIO_Handle->class_desc.cs_desc.OutputTerminalDesc[0]->bTerminalID;
1323:Middlewares/ST/STM32_USB_Host_Library/Class/AUDIO/Src/usbh_audio.c ****     InterfaceNum = 0; /*Always zero Control Interface */
1324:Middlewares/ST/STM32_USB_Host_Library/Class/AUDIO/Src/usbh_audio.c ****     wIndex = ( UnitID << 8 ) | InterfaceNum ;
1325:Middlewares/ST/STM32_USB_Host_Library/Class/AUDIO/Src/usbh_audio.c ****     wValue = (COPY_PROTECT_CONTROL << 8 ) ; 
1326:Middlewares/ST/STM32_USB_Host_Library/Class/AUDIO/Src/usbh_audio.c ****     wLength = 1; 
1327:Middlewares/ST/STM32_USB_Host_Library/Class/AUDIO/Src/usbh_audio.c ****     break;
1328:Middlewares/ST/STM32_USB_Host_Library/Class/AUDIO/Src/usbh_audio.c ****   }
1329:Middlewares/ST/STM32_USB_Host_Library/Class/AUDIO/Src/usbh_audio.c ****   
1330:Middlewares/ST/STM32_USB_Host_Library/Class/AUDIO/Src/usbh_audio.c ****   phost->Control.setup.b.bmRequestType = USB_D2H | USB_REQ_RECIPIENT_INTERFACE | \
1331:Middlewares/ST/STM32_USB_Host_Library/Class/AUDIO/Src/usbh_audio.c ****     USB_REQ_TYPE_CLASS;
1332:Middlewares/ST/STM32_USB_Host_Library/Class/AUDIO/Src/usbh_audio.c ****   
1333:Middlewares/ST/STM32_USB_Host_Library/Class/AUDIO/Src/usbh_audio.c ****   phost->Control.setup.b.bRequest = UAC_GET_RES;
1334:Middlewares/ST/STM32_USB_Host_Library/Class/AUDIO/Src/usbh_audio.c ****   phost->Control.setup.b.wValue.w = wValue;
1335:Middlewares/ST/STM32_USB_Host_Library/Class/AUDIO/Src/usbh_audio.c ****   phost->Control.setup.b.wIndex.w = wIndex;
1336:Middlewares/ST/STM32_USB_Host_Library/Class/AUDIO/Src/usbh_audio.c ****   phost->Control.setup.b.wLength.w = wLength; 
1337:Middlewares/ST/STM32_USB_Host_Library/Class/AUDIO/Src/usbh_audio.c ****   
1338:Middlewares/ST/STM32_USB_Host_Library/Class/AUDIO/Src/usbh_audio.c ****   return(USBH_CtlReq(phost, (uint8_t *)(AUDIO_Handle->mem) , wLength ));    
1339:Middlewares/ST/STM32_USB_Host_Library/Class/AUDIO/Src/usbh_audio.c ****   
1340:Middlewares/ST/STM32_USB_Host_Library/Class/AUDIO/Src/usbh_audio.c **** }
1341:Middlewares/ST/STM32_USB_Host_Library/Class/AUDIO/Src/usbh_audio.c **** 
1342:Middlewares/ST/STM32_USB_Host_Library/Class/AUDIO/Src/usbh_audio.c **** /**
1343:Middlewares/ST/STM32_USB_Host_Library/Class/AUDIO/Src/usbh_audio.c ****   * @brief  Handle Get Min request
1344:Middlewares/ST/STM32_USB_Host_Library/Class/AUDIO/Src/usbh_audio.c ****   * @param  phost: Host handle
1345:Middlewares/ST/STM32_USB_Host_Library/Class/AUDIO/Src/usbh_audio.c ****   * @param  subtype: subtype index
1346:Middlewares/ST/STM32_USB_Host_Library/Class/AUDIO/Src/usbh_audio.c ****   * @param  feature: feature index
1347:Middlewares/ST/STM32_USB_Host_Library/Class/AUDIO/Src/usbh_audio.c ****   * @param  controlSelector: control code
1348:Middlewares/ST/STM32_USB_Host_Library/Class/AUDIO/Src/usbh_audio.c ****   * @param  channel: channel index
1349:Middlewares/ST/STM32_USB_Host_Library/Class/AUDIO/Src/usbh_audio.c ****   * @param  length: Command length
1350:Middlewares/ST/STM32_USB_Host_Library/Class/AUDIO/Src/usbh_audio.c ****   * @retval USBH Status
1351:Middlewares/ST/STM32_USB_Host_Library/Class/AUDIO/Src/usbh_audio.c ****   */
1352:Middlewares/ST/STM32_USB_Host_Library/Class/AUDIO/Src/usbh_audio.c **** static USBH_StatusTypeDef USBH_AC_GetMin(USBH_HandleTypeDef *phost, 
1353:Middlewares/ST/STM32_USB_Host_Library/Class/AUDIO/Src/usbh_audio.c ****                                          uint8_t subtype, 
1354:Middlewares/ST/STM32_USB_Host_Library/Class/AUDIO/Src/usbh_audio.c ****                                          uint8_t feature,
1355:Middlewares/ST/STM32_USB_Host_Library/Class/AUDIO/Src/usbh_audio.c ****                                          uint8_t controlSelector,
1356:Middlewares/ST/STM32_USB_Host_Library/Class/AUDIO/Src/usbh_audio.c ****                                          uint8_t channel,
1357:Middlewares/ST/STM32_USB_Host_Library/Class/AUDIO/Src/usbh_audio.c ****                                          uint16_t length)
1358:Middlewares/ST/STM32_USB_Host_Library/Class/AUDIO/Src/usbh_audio.c **** {
1359:Middlewares/ST/STM32_USB_Host_Library/Class/AUDIO/Src/usbh_audio.c ****   uint16_t wValue = 0, wIndex = 0, wLength = 0;
1360:Middlewares/ST/STM32_USB_Host_Library/Class/AUDIO/Src/usbh_audio.c ****   uint8_t UnitID = 0, InterfaceNum = 0;
1361:Middlewares/ST/STM32_USB_Host_Library/Class/AUDIO/Src/usbh_audio.c ****   AUDIO_HandleTypeDef *AUDIO_Handle;
1362:Middlewares/ST/STM32_USB_Host_Library/Class/AUDIO/Src/usbh_audio.c ****   AUDIO_Handle =  (AUDIO_HandleTypeDef*) phost->pActiveClass->pData;
1363:Middlewares/ST/STM32_USB_Host_Library/Class/AUDIO/Src/usbh_audio.c ****   
1364:Middlewares/ST/STM32_USB_Host_Library/Class/AUDIO/Src/usbh_audio.c ****   switch(subtype)
1365:Middlewares/ST/STM32_USB_Host_Library/Class/AUDIO/Src/usbh_audio.c ****   {
1366:Middlewares/ST/STM32_USB_Host_Library/Class/AUDIO/Src/usbh_audio.c ****   case UAC_INPUT_TERMINAL:
1367:Middlewares/ST/STM32_USB_Host_Library/Class/AUDIO/Src/usbh_audio.c ****     UnitID = AUDIO_Handle->class_desc.cs_desc.InputTerminalDesc[0]->bTerminalID;
1368:Middlewares/ST/STM32_USB_Host_Library/Class/AUDIO/Src/usbh_audio.c ****     InterfaceNum = 0; /*Always zero Control Interface */
1369:Middlewares/ST/STM32_USB_Host_Library/Class/AUDIO/Src/usbh_audio.c ****     wIndex = ( UnitID << 8 ) | InterfaceNum ;
1370:Middlewares/ST/STM32_USB_Host_Library/Class/AUDIO/Src/usbh_audio.c ****     wValue = (COPY_PROTECT_CONTROL << 8 ) ;
1371:Middlewares/ST/STM32_USB_Host_Library/Class/AUDIO/Src/usbh_audio.c ****     AUDIO_Handle->mem[0] = 0x00;
1372:Middlewares/ST/STM32_USB_Host_Library/Class/AUDIO/Src/usbh_audio.c ****     
1373:Middlewares/ST/STM32_USB_Host_Library/Class/AUDIO/Src/usbh_audio.c ****     wLength = 1;
1374:Middlewares/ST/STM32_USB_Host_Library/Class/AUDIO/Src/usbh_audio.c ****     break;
1375:Middlewares/ST/STM32_USB_Host_Library/Class/AUDIO/Src/usbh_audio.c ****   case UAC_FEATURE_UNIT:
1376:Middlewares/ST/STM32_USB_Host_Library/Class/AUDIO/Src/usbh_audio.c ****     UnitID = AUDIO_Handle->class_desc.cs_desc.FeatureUnitDesc[feature]->bUnitID;
ARM GAS  /tmp/cc7hx4Eu.s 			page 41


1377:Middlewares/ST/STM32_USB_Host_Library/Class/AUDIO/Src/usbh_audio.c ****     InterfaceNum = 0; /*Always zero Control Interface */
1378:Middlewares/ST/STM32_USB_Host_Library/Class/AUDIO/Src/usbh_audio.c ****     wIndex = ( UnitID << 8 ) | InterfaceNum ;
1379:Middlewares/ST/STM32_USB_Host_Library/Class/AUDIO/Src/usbh_audio.c ****     /*holds the CS(control selector ) and CN (channel number)*/
1380:Middlewares/ST/STM32_USB_Host_Library/Class/AUDIO/Src/usbh_audio.c ****     wValue =  (controlSelector << 8) | channel;
1381:Middlewares/ST/STM32_USB_Host_Library/Class/AUDIO/Src/usbh_audio.c ****     wLength = length;
1382:Middlewares/ST/STM32_USB_Host_Library/Class/AUDIO/Src/usbh_audio.c ****     break;
1383:Middlewares/ST/STM32_USB_Host_Library/Class/AUDIO/Src/usbh_audio.c ****     
1384:Middlewares/ST/STM32_USB_Host_Library/Class/AUDIO/Src/usbh_audio.c ****   case UAC_OUTPUT_TERMINAL:
1385:Middlewares/ST/STM32_USB_Host_Library/Class/AUDIO/Src/usbh_audio.c ****     UnitID = AUDIO_Handle->class_desc.cs_desc.OutputTerminalDesc[0]->bTerminalID;
1386:Middlewares/ST/STM32_USB_Host_Library/Class/AUDIO/Src/usbh_audio.c ****     InterfaceNum = 0; /*Always zero Control Interface */
1387:Middlewares/ST/STM32_USB_Host_Library/Class/AUDIO/Src/usbh_audio.c ****     wIndex = ( UnitID << 8 ) | InterfaceNum ;
1388:Middlewares/ST/STM32_USB_Host_Library/Class/AUDIO/Src/usbh_audio.c ****     wValue = (COPY_PROTECT_CONTROL << 8 ) ; 
1389:Middlewares/ST/STM32_USB_Host_Library/Class/AUDIO/Src/usbh_audio.c ****     wLength = 1; 
1390:Middlewares/ST/STM32_USB_Host_Library/Class/AUDIO/Src/usbh_audio.c ****     break;
1391:Middlewares/ST/STM32_USB_Host_Library/Class/AUDIO/Src/usbh_audio.c ****   }
1392:Middlewares/ST/STM32_USB_Host_Library/Class/AUDIO/Src/usbh_audio.c ****   
1393:Middlewares/ST/STM32_USB_Host_Library/Class/AUDIO/Src/usbh_audio.c ****   phost->Control.setup.b.bmRequestType = USB_D2H | USB_REQ_RECIPIENT_INTERFACE | \
1394:Middlewares/ST/STM32_USB_Host_Library/Class/AUDIO/Src/usbh_audio.c ****     USB_REQ_TYPE_CLASS;
1395:Middlewares/ST/STM32_USB_Host_Library/Class/AUDIO/Src/usbh_audio.c ****   
1396:Middlewares/ST/STM32_USB_Host_Library/Class/AUDIO/Src/usbh_audio.c ****   phost->Control.setup.b.bRequest = UAC_GET_MIN;
1397:Middlewares/ST/STM32_USB_Host_Library/Class/AUDIO/Src/usbh_audio.c ****   phost->Control.setup.b.wValue.w = wValue;
1398:Middlewares/ST/STM32_USB_Host_Library/Class/AUDIO/Src/usbh_audio.c ****   phost->Control.setup.b.wIndex.w = wIndex;
1399:Middlewares/ST/STM32_USB_Host_Library/Class/AUDIO/Src/usbh_audio.c ****   phost->Control.setup.b.wLength.w = wLength; 
1400:Middlewares/ST/STM32_USB_Host_Library/Class/AUDIO/Src/usbh_audio.c ****   
1401:Middlewares/ST/STM32_USB_Host_Library/Class/AUDIO/Src/usbh_audio.c ****   return(USBH_CtlReq(phost, (uint8_t *)(AUDIO_Handle->mem) , wLength ));    
1402:Middlewares/ST/STM32_USB_Host_Library/Class/AUDIO/Src/usbh_audio.c ****   
1403:Middlewares/ST/STM32_USB_Host_Library/Class/AUDIO/Src/usbh_audio.c **** }
1404:Middlewares/ST/STM32_USB_Host_Library/Class/AUDIO/Src/usbh_audio.c **** 
1405:Middlewares/ST/STM32_USB_Host_Library/Class/AUDIO/Src/usbh_audio.c **** /**
1406:Middlewares/ST/STM32_USB_Host_Library/Class/AUDIO/Src/usbh_audio.c ****   * @brief  Handle Set Endpoint Controls Request
1407:Middlewares/ST/STM32_USB_Host_Library/Class/AUDIO/Src/usbh_audio.c ****   * @param  phost: Host handle
1408:Middlewares/ST/STM32_USB_Host_Library/Class/AUDIO/Src/usbh_audio.c ****   * @param  Ep: Endpoint address
1409:Middlewares/ST/STM32_USB_Host_Library/Class/AUDIO/Src/usbh_audio.c ****   * @param  buf: pointer to data
1410:Middlewares/ST/STM32_USB_Host_Library/Class/AUDIO/Src/usbh_audio.c ****   * @retval USBH Status
1411:Middlewares/ST/STM32_USB_Host_Library/Class/AUDIO/Src/usbh_audio.c ****   */
1412:Middlewares/ST/STM32_USB_Host_Library/Class/AUDIO/Src/usbh_audio.c **** static USBH_StatusTypeDef USBH_AUDIO_SetEndpointControls(USBH_HandleTypeDef *phost,
1413:Middlewares/ST/STM32_USB_Host_Library/Class/AUDIO/Src/usbh_audio.c ****                                                uint8_t  Ep,
1414:Middlewares/ST/STM32_USB_Host_Library/Class/AUDIO/Src/usbh_audio.c ****                                                uint8_t *buff) 
1415:Middlewares/ST/STM32_USB_Host_Library/Class/AUDIO/Src/usbh_audio.c **** {
 892              		.loc 1 1415 0
 893              		.cfi_startproc
 894              		@ args = 0, pretend = 0, frame = 0
 895              		@ frame_needed = 0, uses_anonymous_args = 0
 896              	.LVL111:
 897 0000 10B5     		push	{r4, lr}
 898              	.LCFI6:
 899              		.cfi_def_cfa_offset 8
 900              		.cfi_offset 4, -8
 901              		.cfi_offset 14, -4
 902 0002 1446     		mov	r4, r2
 903              	.LVL112:
1416:Middlewares/ST/STM32_USB_Host_Library/Class/AUDIO/Src/usbh_audio.c ****   uint16_t wValue, wIndex, wLength;
1417:Middlewares/ST/STM32_USB_Host_Library/Class/AUDIO/Src/usbh_audio.c ****   
1418:Middlewares/ST/STM32_USB_Host_Library/Class/AUDIO/Src/usbh_audio.c **** 
1419:Middlewares/ST/STM32_USB_Host_Library/Class/AUDIO/Src/usbh_audio.c ****   wValue = SAMPLING_FREQ_CONTROL << 8;
1420:Middlewares/ST/STM32_USB_Host_Library/Class/AUDIO/Src/usbh_audio.c ****   wIndex = Ep; 
1421:Middlewares/ST/STM32_USB_Host_Library/Class/AUDIO/Src/usbh_audio.c ****   wLength = 3; /*length of the frequency parameter*/   
ARM GAS  /tmp/cc7hx4Eu.s 			page 42


1422:Middlewares/ST/STM32_USB_Host_Library/Class/AUDIO/Src/usbh_audio.c ****   
1423:Middlewares/ST/STM32_USB_Host_Library/Class/AUDIO/Src/usbh_audio.c ****   phost->Control.setup.b.bmRequestType = USB_H2D | USB_REQ_RECIPIENT_ENDPOINT | \
 904              		.loc 1 1423 0
 905 0004 2222     		movs	r2, #34
 906              	.LVL113:
 907 0006 0274     		strb	r2, [r0, #16]
1424:Middlewares/ST/STM32_USB_Host_Library/Class/AUDIO/Src/usbh_audio.c ****     USB_REQ_TYPE_CLASS;
1425:Middlewares/ST/STM32_USB_Host_Library/Class/AUDIO/Src/usbh_audio.c ****   
1426:Middlewares/ST/STM32_USB_Host_Library/Class/AUDIO/Src/usbh_audio.c ****   phost->Control.setup.b.bRequest = UAC_SET_CUR;
 908              		.loc 1 1426 0
 909 0008 0122     		movs	r2, #1
 910 000a 4274     		strb	r2, [r0, #17]
1427:Middlewares/ST/STM32_USB_Host_Library/Class/AUDIO/Src/usbh_audio.c ****   phost->Control.setup.b.wValue.w = wValue;
 911              		.loc 1 1427 0
 912 000c 4FF48072 		mov	r2, #256
 913 0010 4282     		strh	r2, [r0, #18]	@ movhi
1428:Middlewares/ST/STM32_USB_Host_Library/Class/AUDIO/Src/usbh_audio.c ****   phost->Control.setup.b.wIndex.w = wIndex;
 914              		.loc 1 1428 0
 915 0012 8182     		strh	r1, [r0, #20]	@ movhi
1429:Middlewares/ST/STM32_USB_Host_Library/Class/AUDIO/Src/usbh_audio.c ****   phost->Control.setup.b.wLength.w = wLength; 
 916              		.loc 1 1429 0
 917 0014 0322     		movs	r2, #3
 918 0016 C282     		strh	r2, [r0, #22]	@ movhi
1430:Middlewares/ST/STM32_USB_Host_Library/Class/AUDIO/Src/usbh_audio.c ****   
1431:Middlewares/ST/STM32_USB_Host_Library/Class/AUDIO/Src/usbh_audio.c ****   return(USBH_CtlReq(phost, (uint8_t *)buff, wLength ));
 919              		.loc 1 1431 0
 920 0018 2146     		mov	r1, r4
 921              	.LVL114:
 922 001a FFF7FEFF 		bl	USBH_CtlReq
 923              	.LVL115:
1432:Middlewares/ST/STM32_USB_Host_Library/Class/AUDIO/Src/usbh_audio.c ****     
1433:Middlewares/ST/STM32_USB_Host_Library/Class/AUDIO/Src/usbh_audio.c **** }
 924              		.loc 1 1433 0
 925 001e 10BD     		pop	{r4, pc}
 926              		.cfi_endproc
 927              	.LFE144:
 929              		.section	.text.USBH_AC_SetCur,"ax",%progbits
 930              		.align	2
 931              		.thumb
 932              		.thumb_func
 934              	USBH_AC_SetCur:
 935              	.LFB139:
1111:Middlewares/ST/STM32_USB_Host_Library/Class/AUDIO/Src/usbh_audio.c ****   uint16_t wValue,wIndex,wLength;
 936              		.loc 1 1111 0
 937              		.cfi_startproc
 938              		@ args = 8, pretend = 0, frame = 0
 939              		@ frame_needed = 0, uses_anonymous_args = 0
 940              	.LVL116:
 941 0000 F8B5     		push	{r3, r4, r5, r6, r7, lr}
 942              	.LCFI7:
 943              		.cfi_def_cfa_offset 24
 944              		.cfi_offset 3, -24
 945              		.cfi_offset 4, -20
 946              		.cfi_offset 5, -16
 947              		.cfi_offset 6, -12
 948              		.cfi_offset 7, -8
 949              		.cfi_offset 14, -4
ARM GAS  /tmp/cc7hx4Eu.s 			page 43


1115:Middlewares/ST/STM32_USB_Host_Library/Class/AUDIO/Src/usbh_audio.c ****   
 950              		.loc 1 1115 0
 951 0002 D0F84445 		ldr	r4, [r0, #1348]
 952 0006 E469     		ldr	r4, [r4, #28]
 953              	.LVL117:
1117:Middlewares/ST/STM32_USB_Host_Library/Class/AUDIO/Src/usbh_audio.c ****   {
 954              		.loc 1 1117 0
 955 0008 0229     		cmp	r1, #2
 956 000a 02D0     		beq	.L82
 957 000c 0629     		cmp	r1, #6
 958 000e 0AD0     		beq	.L83
 959 0010 15E0     		b	.L81
 960              	.L82:
1120:Middlewares/ST/STM32_USB_Host_Library/Class/AUDIO/Src/usbh_audio.c ****     InterfaceNum = 0; /*Always zero Control Interface */
 961              		.loc 1 1120 0
 962 0012 236F     		ldr	r3, [r4, #112]
 963              	.LVL118:
 964 0014 DD78     		ldrb	r5, [r3, #3]	@ zero_extendqisi2
 965              	.LVL119:
1122:Middlewares/ST/STM32_USB_Host_Library/Class/AUDIO/Src/usbh_audio.c ****     wValue = (COPY_PROTECT_CONTROL << 8 ) ;
 966              		.loc 1 1122 0
 967 0016 2D02     		lsls	r5, r5, #8
 968              	.LVL120:
1124:Middlewares/ST/STM32_USB_Host_Library/Class/AUDIO/Src/usbh_audio.c ****     
 969              		.loc 1 1124 0
 970 0018 0023     		movs	r3, #0
 971              	.LVL121:
 972 001a A4F89031 		strh	r3, [r4, #400]	@ movhi
 973              	.LVL122:
1126:Middlewares/ST/STM32_USB_Host_Library/Class/AUDIO/Src/usbh_audio.c ****     break;
 974              		.loc 1 1126 0
 975 001e 0126     		movs	r6, #1
1123:Middlewares/ST/STM32_USB_Host_Library/Class/AUDIO/Src/usbh_audio.c ****     AUDIO_Handle->mem[0] = 0x00;
 976              		.loc 1 1123 0
 977 0020 4FF48077 		mov	r7, #256
1127:Middlewares/ST/STM32_USB_Host_Library/Class/AUDIO/Src/usbh_audio.c ****   case UAC_FEATURE_UNIT:
 978              		.loc 1 1127 0
 979 0024 0BE0     		b	.L81
 980              	.LVL123:
 981              	.L83:
1129:Middlewares/ST/STM32_USB_Host_Library/Class/AUDIO/Src/usbh_audio.c ****     InterfaceNum = 0; /*Always zero Control Interface */
 982              		.loc 1 1129 0
 983 0026 2232     		adds	r2, r2, #34
 984              	.LVL124:
 985 0028 04EB8202 		add	r2, r4, r2, lsl #2
 986 002c 9268     		ldr	r2, [r2, #8]
 987 002e D578     		ldrb	r5, [r2, #3]	@ zero_extendqisi2
 988              	.LVL125:
1131:Middlewares/ST/STM32_USB_Host_Library/Class/AUDIO/Src/usbh_audio.c ****     /*holds the CS(control selector ) and CN (channel number)*/
 989              		.loc 1 1131 0
 990 0030 2D02     		lsls	r5, r5, #8
 991              	.LVL126:
1133:Middlewares/ST/STM32_USB_Host_Library/Class/AUDIO/Src/usbh_audio.c ****     wLength = length;
 992              		.loc 1 1133 0
 993 0032 9DF81870 		ldrb	r7, [sp, #24]	@ zero_extendqisi2
 994 0036 47EA0327 		orr	r7, r7, r3, lsl #8
 995              	.LVL127:
ARM GAS  /tmp/cc7hx4Eu.s 			page 44


1134:Middlewares/ST/STM32_USB_Host_Library/Class/AUDIO/Src/usbh_audio.c ****     break;
 996              		.loc 1 1134 0
 997 003a BDF81C60 		ldrh	r6, [sp, #28]
 998              	.LVL128:
 999              	.L81:
1138:Middlewares/ST/STM32_USB_Host_Library/Class/AUDIO/Src/usbh_audio.c ****     USB_REQ_TYPE_CLASS;
 1000              		.loc 1 1138 0
 1001 003e 2123     		movs	r3, #33
 1002 0040 0374     		strb	r3, [r0, #16]
1141:Middlewares/ST/STM32_USB_Host_Library/Class/AUDIO/Src/usbh_audio.c ****   phost->Control.setup.b.wValue.w = wValue;
 1003              		.loc 1 1141 0
 1004 0042 0123     		movs	r3, #1
 1005 0044 4374     		strb	r3, [r0, #17]
1142:Middlewares/ST/STM32_USB_Host_Library/Class/AUDIO/Src/usbh_audio.c ****   phost->Control.setup.b.wIndex.w = wIndex;
 1006              		.loc 1 1142 0
 1007 0046 4782     		strh	r7, [r0, #18]	@ movhi
1143:Middlewares/ST/STM32_USB_Host_Library/Class/AUDIO/Src/usbh_audio.c ****   phost->Control.setup.b.wLength.w = wLength; 
 1008              		.loc 1 1143 0
 1009 0048 8582     		strh	r5, [r0, #20]	@ movhi
1144:Middlewares/ST/STM32_USB_Host_Library/Class/AUDIO/Src/usbh_audio.c ****   
 1010              		.loc 1 1144 0
 1011 004a C682     		strh	r6, [r0, #22]	@ movhi
1146:Middlewares/ST/STM32_USB_Host_Library/Class/AUDIO/Src/usbh_audio.c ****   
 1012              		.loc 1 1146 0
 1013 004c 3246     		mov	r2, r6
 1014 004e 04F5C871 		add	r1, r4, #400
 1015              	.LVL129:
 1016 0052 FFF7FEFF 		bl	USBH_CtlReq
 1017              	.LVL130:
1148:Middlewares/ST/STM32_USB_Host_Library/Class/AUDIO/Src/usbh_audio.c **** 
 1018              		.loc 1 1148 0
 1019 0056 F8BD     		pop	{r3, r4, r5, r6, r7, pc}
 1020              		.cfi_endproc
 1021              	.LFE139:
 1023              		.section	.text.AUDIO_SetVolume,"ax",%progbits
 1024              		.align	2
 1025              		.thumb
 1026              		.thumb_func
 1028              	AUDIO_SetVolume:
 1029              	.LFB158:
1434:Middlewares/ST/STM32_USB_Host_Library/Class/AUDIO/Src/usbh_audio.c **** 
1435:Middlewares/ST/STM32_USB_Host_Library/Class/AUDIO/Src/usbh_audio.c **** /**
1436:Middlewares/ST/STM32_USB_Host_Library/Class/AUDIO/Src/usbh_audio.c ****   * @brief  Handle Input stream process
1437:Middlewares/ST/STM32_USB_Host_Library/Class/AUDIO/Src/usbh_audio.c ****   * @param  phost: Host handle
1438:Middlewares/ST/STM32_USB_Host_Library/Class/AUDIO/Src/usbh_audio.c ****   * @retval USBH Status
1439:Middlewares/ST/STM32_USB_Host_Library/Class/AUDIO/Src/usbh_audio.c ****   */
1440:Middlewares/ST/STM32_USB_Host_Library/Class/AUDIO/Src/usbh_audio.c **** static USBH_StatusTypeDef USBH_AUDIO_InputStream (USBH_HandleTypeDef *phost)
1441:Middlewares/ST/STM32_USB_Host_Library/Class/AUDIO/Src/usbh_audio.c **** {
1442:Middlewares/ST/STM32_USB_Host_Library/Class/AUDIO/Src/usbh_audio.c ****   USBH_StatusTypeDef status = USBH_BUSY ; 
1443:Middlewares/ST/STM32_USB_Host_Library/Class/AUDIO/Src/usbh_audio.c ****   
1444:Middlewares/ST/STM32_USB_Host_Library/Class/AUDIO/Src/usbh_audio.c ****   return status;  
1445:Middlewares/ST/STM32_USB_Host_Library/Class/AUDIO/Src/usbh_audio.c **** }
1446:Middlewares/ST/STM32_USB_Host_Library/Class/AUDIO/Src/usbh_audio.c **** 
1447:Middlewares/ST/STM32_USB_Host_Library/Class/AUDIO/Src/usbh_audio.c **** /**
1448:Middlewares/ST/STM32_USB_Host_Library/Class/AUDIO/Src/usbh_audio.c ****   * @brief  Handle HID Control process
1449:Middlewares/ST/STM32_USB_Host_Library/Class/AUDIO/Src/usbh_audio.c ****   * @param  phost: Host handle
1450:Middlewares/ST/STM32_USB_Host_Library/Class/AUDIO/Src/usbh_audio.c ****   * @retval USBH Status
ARM GAS  /tmp/cc7hx4Eu.s 			page 45


1451:Middlewares/ST/STM32_USB_Host_Library/Class/AUDIO/Src/usbh_audio.c ****   */
1452:Middlewares/ST/STM32_USB_Host_Library/Class/AUDIO/Src/usbh_audio.c **** static USBH_StatusTypeDef USBH_AUDIO_Control (USBH_HandleTypeDef *phost)
1453:Middlewares/ST/STM32_USB_Host_Library/Class/AUDIO/Src/usbh_audio.c **** {
1454:Middlewares/ST/STM32_USB_Host_Library/Class/AUDIO/Src/usbh_audio.c ****   USBH_StatusTypeDef status = USBH_BUSY ;
1455:Middlewares/ST/STM32_USB_Host_Library/Class/AUDIO/Src/usbh_audio.c ****   AUDIO_HandleTypeDef *AUDIO_Handle =  (AUDIO_HandleTypeDef*) phost->pActiveClass->pData; 
1456:Middlewares/ST/STM32_USB_Host_Library/Class/AUDIO/Src/usbh_audio.c ****   uint16_t attribute  = 0; 
1457:Middlewares/ST/STM32_USB_Host_Library/Class/AUDIO/Src/usbh_audio.c ****  
1458:Middlewares/ST/STM32_USB_Host_Library/Class/AUDIO/Src/usbh_audio.c ****   
1459:Middlewares/ST/STM32_USB_Host_Library/Class/AUDIO/Src/usbh_audio.c ****   switch(AUDIO_Handle->control_state)
1460:Middlewares/ST/STM32_USB_Host_Library/Class/AUDIO/Src/usbh_audio.c ****   {
1461:Middlewares/ST/STM32_USB_Host_Library/Class/AUDIO/Src/usbh_audio.c ****   case AUDIO_CONTROL_INIT:
1462:Middlewares/ST/STM32_USB_Host_Library/Class/AUDIO/Src/usbh_audio.c ****     if((phost->Timer & 1) == 0)
1463:Middlewares/ST/STM32_USB_Host_Library/Class/AUDIO/Src/usbh_audio.c ****     {
1464:Middlewares/ST/STM32_USB_Host_Library/Class/AUDIO/Src/usbh_audio.c ****       AUDIO_Handle->control.timer = phost->Timer;
1465:Middlewares/ST/STM32_USB_Host_Library/Class/AUDIO/Src/usbh_audio.c ****       USBH_InterruptReceiveData(phost, 
1466:Middlewares/ST/STM32_USB_Host_Library/Class/AUDIO/Src/usbh_audio.c ****                                 (uint8_t *)(AUDIO_Handle->mem),
1467:Middlewares/ST/STM32_USB_Host_Library/Class/AUDIO/Src/usbh_audio.c ****                                 AUDIO_Handle->control.EpSize,
1468:Middlewares/ST/STM32_USB_Host_Library/Class/AUDIO/Src/usbh_audio.c ****                                 AUDIO_Handle->control.Pipe);
1469:Middlewares/ST/STM32_USB_Host_Library/Class/AUDIO/Src/usbh_audio.c ****       
1470:Middlewares/ST/STM32_USB_Host_Library/Class/AUDIO/Src/usbh_audio.c ****       AUDIO_Handle->temp_feature  = AUDIO_Handle->headphone.asociated_feature;
1471:Middlewares/ST/STM32_USB_Host_Library/Class/AUDIO/Src/usbh_audio.c ****       AUDIO_Handle->temp_channels = AUDIO_Handle->headphone.asociated_channels;
1472:Middlewares/ST/STM32_USB_Host_Library/Class/AUDIO/Src/usbh_audio.c ****       
1473:Middlewares/ST/STM32_USB_Host_Library/Class/AUDIO/Src/usbh_audio.c ****       AUDIO_Handle->control_state = AUDIO_CONTROL_CHANGE ;
1474:Middlewares/ST/STM32_USB_Host_Library/Class/AUDIO/Src/usbh_audio.c ****     }
1475:Middlewares/ST/STM32_USB_Host_Library/Class/AUDIO/Src/usbh_audio.c ****     break;
1476:Middlewares/ST/STM32_USB_Host_Library/Class/AUDIO/Src/usbh_audio.c ****   case AUDIO_CONTROL_CHANGE:
1477:Middlewares/ST/STM32_USB_Host_Library/Class/AUDIO/Src/usbh_audio.c ****     if(USBH_LL_GetURBState(phost , AUDIO_Handle->control.Pipe) == USBH_URB_DONE)
1478:Middlewares/ST/STM32_USB_Host_Library/Class/AUDIO/Src/usbh_audio.c ****     {
1479:Middlewares/ST/STM32_USB_Host_Library/Class/AUDIO/Src/usbh_audio.c ****       attribute = LE16(&AUDIO_Handle->mem[0]); 
1480:Middlewares/ST/STM32_USB_Host_Library/Class/AUDIO/Src/usbh_audio.c ****       if(USBH_AUDIO_SetControlAttribute (phost, attribute) == USBH_BUSY)
1481:Middlewares/ST/STM32_USB_Host_Library/Class/AUDIO/Src/usbh_audio.c ****       {
1482:Middlewares/ST/STM32_USB_Host_Library/Class/AUDIO/Src/usbh_audio.c ****         break;
1483:Middlewares/ST/STM32_USB_Host_Library/Class/AUDIO/Src/usbh_audio.c ****       }
1484:Middlewares/ST/STM32_USB_Host_Library/Class/AUDIO/Src/usbh_audio.c ****     }
1485:Middlewares/ST/STM32_USB_Host_Library/Class/AUDIO/Src/usbh_audio.c ****     
1486:Middlewares/ST/STM32_USB_Host_Library/Class/AUDIO/Src/usbh_audio.c ****     if(( phost->Timer - AUDIO_Handle->control.timer) >= AUDIO_Handle->control.Poll)
1487:Middlewares/ST/STM32_USB_Host_Library/Class/AUDIO/Src/usbh_audio.c ****     {
1488:Middlewares/ST/STM32_USB_Host_Library/Class/AUDIO/Src/usbh_audio.c ****       AUDIO_Handle->control.timer = phost->Timer;
1489:Middlewares/ST/STM32_USB_Host_Library/Class/AUDIO/Src/usbh_audio.c ****       
1490:Middlewares/ST/STM32_USB_Host_Library/Class/AUDIO/Src/usbh_audio.c ****       USBH_InterruptReceiveData(phost, 
1491:Middlewares/ST/STM32_USB_Host_Library/Class/AUDIO/Src/usbh_audio.c ****                                 (uint8_t *)(AUDIO_Handle->mem),
1492:Middlewares/ST/STM32_USB_Host_Library/Class/AUDIO/Src/usbh_audio.c ****                                 AUDIO_Handle->control.EpSize,
1493:Middlewares/ST/STM32_USB_Host_Library/Class/AUDIO/Src/usbh_audio.c ****                                 AUDIO_Handle->control.Pipe);      
1494:Middlewares/ST/STM32_USB_Host_Library/Class/AUDIO/Src/usbh_audio.c ****       
1495:Middlewares/ST/STM32_USB_Host_Library/Class/AUDIO/Src/usbh_audio.c ****     }
1496:Middlewares/ST/STM32_USB_Host_Library/Class/AUDIO/Src/usbh_audio.c ****     break;
1497:Middlewares/ST/STM32_USB_Host_Library/Class/AUDIO/Src/usbh_audio.c ****     
1498:Middlewares/ST/STM32_USB_Host_Library/Class/AUDIO/Src/usbh_audio.c ****   case AUDIO_CONTROL_VOLUME_UP:
1499:Middlewares/ST/STM32_USB_Host_Library/Class/AUDIO/Src/usbh_audio.c ****        if( USBH_AUDIO_SetControlAttribute (phost, 1) == USBH_OK)
1500:Middlewares/ST/STM32_USB_Host_Library/Class/AUDIO/Src/usbh_audio.c ****        {
1501:Middlewares/ST/STM32_USB_Host_Library/Class/AUDIO/Src/usbh_audio.c ****          AUDIO_Handle->control_state = AUDIO_CONTROL_INIT;
1502:Middlewares/ST/STM32_USB_Host_Library/Class/AUDIO/Src/usbh_audio.c ****         status = USBH_OK; 
1503:Middlewares/ST/STM32_USB_Host_Library/Class/AUDIO/Src/usbh_audio.c ****        }
1504:Middlewares/ST/STM32_USB_Host_Library/Class/AUDIO/Src/usbh_audio.c ****        break;
1505:Middlewares/ST/STM32_USB_Host_Library/Class/AUDIO/Src/usbh_audio.c ****        
1506:Middlewares/ST/STM32_USB_Host_Library/Class/AUDIO/Src/usbh_audio.c ****   case AUDIO_CONTROL_VOLUME_DOWN:
1507:Middlewares/ST/STM32_USB_Host_Library/Class/AUDIO/Src/usbh_audio.c ****        if( USBH_AUDIO_SetControlAttribute (phost, 2) == USBH_OK)
ARM GAS  /tmp/cc7hx4Eu.s 			page 46


1508:Middlewares/ST/STM32_USB_Host_Library/Class/AUDIO/Src/usbh_audio.c ****        {
1509:Middlewares/ST/STM32_USB_Host_Library/Class/AUDIO/Src/usbh_audio.c ****          AUDIO_Handle->control_state = AUDIO_CONTROL_INIT;         
1510:Middlewares/ST/STM32_USB_Host_Library/Class/AUDIO/Src/usbh_audio.c ****          status = USBH_OK; 
1511:Middlewares/ST/STM32_USB_Host_Library/Class/AUDIO/Src/usbh_audio.c ****        }     
1512:Middlewares/ST/STM32_USB_Host_Library/Class/AUDIO/Src/usbh_audio.c ****        break;
1513:Middlewares/ST/STM32_USB_Host_Library/Class/AUDIO/Src/usbh_audio.c ****        
1514:Middlewares/ST/STM32_USB_Host_Library/Class/AUDIO/Src/usbh_audio.c ****   case AUDIO_CONTROL_IDLE:
1515:Middlewares/ST/STM32_USB_Host_Library/Class/AUDIO/Src/usbh_audio.c ****   default:  
1516:Middlewares/ST/STM32_USB_Host_Library/Class/AUDIO/Src/usbh_audio.c ****     break; 
1517:Middlewares/ST/STM32_USB_Host_Library/Class/AUDIO/Src/usbh_audio.c ****   }
1518:Middlewares/ST/STM32_USB_Host_Library/Class/AUDIO/Src/usbh_audio.c ****     
1519:Middlewares/ST/STM32_USB_Host_Library/Class/AUDIO/Src/usbh_audio.c ****   return status;  
1520:Middlewares/ST/STM32_USB_Host_Library/Class/AUDIO/Src/usbh_audio.c **** }
1521:Middlewares/ST/STM32_USB_Host_Library/Class/AUDIO/Src/usbh_audio.c **** 
1522:Middlewares/ST/STM32_USB_Host_Library/Class/AUDIO/Src/usbh_audio.c **** /**
1523:Middlewares/ST/STM32_USB_Host_Library/Class/AUDIO/Src/usbh_audio.c ****   * @brief  Handle Output stream process
1524:Middlewares/ST/STM32_USB_Host_Library/Class/AUDIO/Src/usbh_audio.c ****   * @param  phost: Host handle
1525:Middlewares/ST/STM32_USB_Host_Library/Class/AUDIO/Src/usbh_audio.c ****   * @retval USBH Status
1526:Middlewares/ST/STM32_USB_Host_Library/Class/AUDIO/Src/usbh_audio.c ****   */
1527:Middlewares/ST/STM32_USB_Host_Library/Class/AUDIO/Src/usbh_audio.c **** static USBH_StatusTypeDef USBH_AUDIO_OutputStream (USBH_HandleTypeDef *phost)
1528:Middlewares/ST/STM32_USB_Host_Library/Class/AUDIO/Src/usbh_audio.c **** {
1529:Middlewares/ST/STM32_USB_Host_Library/Class/AUDIO/Src/usbh_audio.c ****   USBH_StatusTypeDef status = USBH_BUSY ;
1530:Middlewares/ST/STM32_USB_Host_Library/Class/AUDIO/Src/usbh_audio.c ****   AUDIO_HandleTypeDef *AUDIO_Handle =  (AUDIO_HandleTypeDef*) phost->pActiveClass->pData;   
1531:Middlewares/ST/STM32_USB_Host_Library/Class/AUDIO/Src/usbh_audio.c ****   uint8_t *buff;
1532:Middlewares/ST/STM32_USB_Host_Library/Class/AUDIO/Src/usbh_audio.c ****   
1533:Middlewares/ST/STM32_USB_Host_Library/Class/AUDIO/Src/usbh_audio.c ****   
1534:Middlewares/ST/STM32_USB_Host_Library/Class/AUDIO/Src/usbh_audio.c ****   switch(AUDIO_Handle->play_state)
1535:Middlewares/ST/STM32_USB_Host_Library/Class/AUDIO/Src/usbh_audio.c ****   {
1536:Middlewares/ST/STM32_USB_Host_Library/Class/AUDIO/Src/usbh_audio.c ****   case AUDIO_PLAYBACK_INIT:
1537:Middlewares/ST/STM32_USB_Host_Library/Class/AUDIO/Src/usbh_audio.c ****     
1538:Middlewares/ST/STM32_USB_Host_Library/Class/AUDIO/Src/usbh_audio.c ****     if( AUDIO_Handle->class_desc.as_desc[AUDIO_Handle->headphone.asociated_as].FormatTypeDesc->bSam
1539:Middlewares/ST/STM32_USB_Host_Library/Class/AUDIO/Src/usbh_audio.c ****     {
1540:Middlewares/ST/STM32_USB_Host_Library/Class/AUDIO/Src/usbh_audio.c ****       AUDIO_Handle->play_state = AUDIO_PLAYBACK_SET_EP_FREQ;        
1541:Middlewares/ST/STM32_USB_Host_Library/Class/AUDIO/Src/usbh_audio.c ****     }
1542:Middlewares/ST/STM32_USB_Host_Library/Class/AUDIO/Src/usbh_audio.c ****     else
1543:Middlewares/ST/STM32_USB_Host_Library/Class/AUDIO/Src/usbh_audio.c ****     {
1544:Middlewares/ST/STM32_USB_Host_Library/Class/AUDIO/Src/usbh_audio.c ****       AUDIO_Handle->play_state = AUDIO_PLAYBACK_SET_EP;
1545:Middlewares/ST/STM32_USB_Host_Library/Class/AUDIO/Src/usbh_audio.c ****     }
1546:Middlewares/ST/STM32_USB_Host_Library/Class/AUDIO/Src/usbh_audio.c **** #if (USBH_USE_OS == 1)
1547:Middlewares/ST/STM32_USB_Host_Library/Class/AUDIO/Src/usbh_audio.c ****       osMessagePut ( phost->os_event, USBH_URB_EVENT, 0);
1548:Middlewares/ST/STM32_USB_Host_Library/Class/AUDIO/Src/usbh_audio.c **** #endif  
1549:Middlewares/ST/STM32_USB_Host_Library/Class/AUDIO/Src/usbh_audio.c ****     break;
1550:Middlewares/ST/STM32_USB_Host_Library/Class/AUDIO/Src/usbh_audio.c ****     
1551:Middlewares/ST/STM32_USB_Host_Library/Class/AUDIO/Src/usbh_audio.c ****   case AUDIO_PLAYBACK_SET_EP_FREQ:
1552:Middlewares/ST/STM32_USB_Host_Library/Class/AUDIO/Src/usbh_audio.c **** 
1553:Middlewares/ST/STM32_USB_Host_Library/Class/AUDIO/Src/usbh_audio.c ****     buff = (uint8_t*)AUDIO_Handle->class_desc.as_desc[AUDIO_Handle->headphone.asociated_as].FormatT
1554:Middlewares/ST/STM32_USB_Host_Library/Class/AUDIO/Src/usbh_audio.c **** 
1555:Middlewares/ST/STM32_USB_Host_Library/Class/AUDIO/Src/usbh_audio.c ****     status = USBH_AUDIO_SetEndpointControls(phost, AUDIO_Handle->headphone.Ep, buff);
1556:Middlewares/ST/STM32_USB_Host_Library/Class/AUDIO/Src/usbh_audio.c ****     if(status == USBH_OK) 
1557:Middlewares/ST/STM32_USB_Host_Library/Class/AUDIO/Src/usbh_audio.c ****     {
1558:Middlewares/ST/STM32_USB_Host_Library/Class/AUDIO/Src/usbh_audio.c ****       AUDIO_Handle->play_state = AUDIO_PLAYBACK_IDLE;    
1559:Middlewares/ST/STM32_USB_Host_Library/Class/AUDIO/Src/usbh_audio.c ****     }
1560:Middlewares/ST/STM32_USB_Host_Library/Class/AUDIO/Src/usbh_audio.c ****     break;
1561:Middlewares/ST/STM32_USB_Host_Library/Class/AUDIO/Src/usbh_audio.c ****     
1562:Middlewares/ST/STM32_USB_Host_Library/Class/AUDIO/Src/usbh_audio.c ****   case AUDIO_PLAYBACK_SET_EP:
1563:Middlewares/ST/STM32_USB_Host_Library/Class/AUDIO/Src/usbh_audio.c ****     buff = (uint8_t *)&AUDIO_Handle->headphone.frequency;    
1564:Middlewares/ST/STM32_USB_Host_Library/Class/AUDIO/Src/usbh_audio.c ****     status = USBH_AUDIO_SetEndpointControls(phost,AUDIO_Handle->headphone.Ep, buff);
ARM GAS  /tmp/cc7hx4Eu.s 			page 47


1565:Middlewares/ST/STM32_USB_Host_Library/Class/AUDIO/Src/usbh_audio.c ****     if(status == USBH_OK)
1566:Middlewares/ST/STM32_USB_Host_Library/Class/AUDIO/Src/usbh_audio.c ****     {
1567:Middlewares/ST/STM32_USB_Host_Library/Class/AUDIO/Src/usbh_audio.c ****       AUDIO_Handle->play_state = AUDIO_PLAYBACK_IDLE;
1568:Middlewares/ST/STM32_USB_Host_Library/Class/AUDIO/Src/usbh_audio.c ****       USBH_AUDIO_FrequencySet(phost);
1569:Middlewares/ST/STM32_USB_Host_Library/Class/AUDIO/Src/usbh_audio.c ****     }
1570:Middlewares/ST/STM32_USB_Host_Library/Class/AUDIO/Src/usbh_audio.c ****     break;
1571:Middlewares/ST/STM32_USB_Host_Library/Class/AUDIO/Src/usbh_audio.c ****   case AUDIO_PLAYBACK_IDLE:
1572:Middlewares/ST/STM32_USB_Host_Library/Class/AUDIO/Src/usbh_audio.c **** #if (USBH_USE_OS == 1)
1573:Middlewares/ST/STM32_USB_Host_Library/Class/AUDIO/Src/usbh_audio.c ****       osMessagePut ( phost->os_event, USBH_CLASS_EVENT, 0);
1574:Middlewares/ST/STM32_USB_Host_Library/Class/AUDIO/Src/usbh_audio.c **** #endif      
1575:Middlewares/ST/STM32_USB_Host_Library/Class/AUDIO/Src/usbh_audio.c ****     status = USBH_OK;
1576:Middlewares/ST/STM32_USB_Host_Library/Class/AUDIO/Src/usbh_audio.c ****     break;
1577:Middlewares/ST/STM32_USB_Host_Library/Class/AUDIO/Src/usbh_audio.c ****     
1578:Middlewares/ST/STM32_USB_Host_Library/Class/AUDIO/Src/usbh_audio.c ****   case AUDIO_PLAYBACK_PLAY:
1579:Middlewares/ST/STM32_USB_Host_Library/Class/AUDIO/Src/usbh_audio.c ****     USBH_AUDIO_Transmit(phost);
1580:Middlewares/ST/STM32_USB_Host_Library/Class/AUDIO/Src/usbh_audio.c ****     status = USBH_OK;
1581:Middlewares/ST/STM32_USB_Host_Library/Class/AUDIO/Src/usbh_audio.c ****     break;
1582:Middlewares/ST/STM32_USB_Host_Library/Class/AUDIO/Src/usbh_audio.c ****     
1583:Middlewares/ST/STM32_USB_Host_Library/Class/AUDIO/Src/usbh_audio.c ****   default:
1584:Middlewares/ST/STM32_USB_Host_Library/Class/AUDIO/Src/usbh_audio.c ****     break;
1585:Middlewares/ST/STM32_USB_Host_Library/Class/AUDIO/Src/usbh_audio.c ****   }  
1586:Middlewares/ST/STM32_USB_Host_Library/Class/AUDIO/Src/usbh_audio.c ****   
1587:Middlewares/ST/STM32_USB_Host_Library/Class/AUDIO/Src/usbh_audio.c ****   return status;
1588:Middlewares/ST/STM32_USB_Host_Library/Class/AUDIO/Src/usbh_audio.c **** }
1589:Middlewares/ST/STM32_USB_Host_Library/Class/AUDIO/Src/usbh_audio.c **** 
1590:Middlewares/ST/STM32_USB_Host_Library/Class/AUDIO/Src/usbh_audio.c **** /**
1591:Middlewares/ST/STM32_USB_Host_Library/Class/AUDIO/Src/usbh_audio.c ****   * @brief  Handle Transmission process
1592:Middlewares/ST/STM32_USB_Host_Library/Class/AUDIO/Src/usbh_audio.c ****   * @param  phost: Host handle
1593:Middlewares/ST/STM32_USB_Host_Library/Class/AUDIO/Src/usbh_audio.c ****   * @retval USBH Status
1594:Middlewares/ST/STM32_USB_Host_Library/Class/AUDIO/Src/usbh_audio.c ****   */
1595:Middlewares/ST/STM32_USB_Host_Library/Class/AUDIO/Src/usbh_audio.c **** static USBH_StatusTypeDef USBH_AUDIO_Transmit (USBH_HandleTypeDef *phost)
1596:Middlewares/ST/STM32_USB_Host_Library/Class/AUDIO/Src/usbh_audio.c **** {
1597:Middlewares/ST/STM32_USB_Host_Library/Class/AUDIO/Src/usbh_audio.c ****   USBH_StatusTypeDef status = USBH_BUSY ;
1598:Middlewares/ST/STM32_USB_Host_Library/Class/AUDIO/Src/usbh_audio.c ****   AUDIO_HandleTypeDef *AUDIO_Handle =  (AUDIO_HandleTypeDef*) phost->pActiveClass->pData;   
1599:Middlewares/ST/STM32_USB_Host_Library/Class/AUDIO/Src/usbh_audio.c ****   
1600:Middlewares/ST/STM32_USB_Host_Library/Class/AUDIO/Src/usbh_audio.c ****   switch(AUDIO_Handle->processing_state)
1601:Middlewares/ST/STM32_USB_Host_Library/Class/AUDIO/Src/usbh_audio.c ****   {
1602:Middlewares/ST/STM32_USB_Host_Library/Class/AUDIO/Src/usbh_audio.c ****   case AUDIO_DATA_START_OUT:
1603:Middlewares/ST/STM32_USB_Host_Library/Class/AUDIO/Src/usbh_audio.c ****     /* Sync with start of Even Frame */
1604:Middlewares/ST/STM32_USB_Host_Library/Class/AUDIO/Src/usbh_audio.c ****     if((phost->Timer & 1) == 0)
1605:Middlewares/ST/STM32_USB_Host_Library/Class/AUDIO/Src/usbh_audio.c ****     {
1606:Middlewares/ST/STM32_USB_Host_Library/Class/AUDIO/Src/usbh_audio.c ****       AUDIO_Handle->headphone.timer = phost->Timer;
1607:Middlewares/ST/STM32_USB_Host_Library/Class/AUDIO/Src/usbh_audio.c ****       AUDIO_Handle->processing_state = AUDIO_DATA_OUT;
1608:Middlewares/ST/STM32_USB_Host_Library/Class/AUDIO/Src/usbh_audio.c ****       USBH_IsocSendData(phost, 
1609:Middlewares/ST/STM32_USB_Host_Library/Class/AUDIO/Src/usbh_audio.c ****                        AUDIO_Handle->headphone.buf,
1610:Middlewares/ST/STM32_USB_Host_Library/Class/AUDIO/Src/usbh_audio.c ****                        AUDIO_Handle->headphone.frame_length,
1611:Middlewares/ST/STM32_USB_Host_Library/Class/AUDIO/Src/usbh_audio.c ****                        AUDIO_Handle->headphone.Pipe);
1612:Middlewares/ST/STM32_USB_Host_Library/Class/AUDIO/Src/usbh_audio.c ****       
1613:Middlewares/ST/STM32_USB_Host_Library/Class/AUDIO/Src/usbh_audio.c ****       AUDIO_Handle->headphone.partial_ptr = AUDIO_Handle->headphone.frame_length; 
1614:Middlewares/ST/STM32_USB_Host_Library/Class/AUDIO/Src/usbh_audio.c ****       AUDIO_Handle->headphone.global_ptr = AUDIO_Handle->headphone.frame_length; 
1615:Middlewares/ST/STM32_USB_Host_Library/Class/AUDIO/Src/usbh_audio.c ****       AUDIO_Handle->headphone.cbuf = AUDIO_Handle->headphone.buf;
1616:Middlewares/ST/STM32_USB_Host_Library/Class/AUDIO/Src/usbh_audio.c ****     }
1617:Middlewares/ST/STM32_USB_Host_Library/Class/AUDIO/Src/usbh_audio.c ****     else
1618:Middlewares/ST/STM32_USB_Host_Library/Class/AUDIO/Src/usbh_audio.c ****     {
1619:Middlewares/ST/STM32_USB_Host_Library/Class/AUDIO/Src/usbh_audio.c **** #if (USBH_USE_OS == 1)
1620:Middlewares/ST/STM32_USB_Host_Library/Class/AUDIO/Src/usbh_audio.c ****       osDelay(1);
1621:Middlewares/ST/STM32_USB_Host_Library/Class/AUDIO/Src/usbh_audio.c ****       osMessagePut ( phost->os_event, USBH_CLASS_EVENT, 0);
ARM GAS  /tmp/cc7hx4Eu.s 			page 48


1622:Middlewares/ST/STM32_USB_Host_Library/Class/AUDIO/Src/usbh_audio.c **** #endif  
1623:Middlewares/ST/STM32_USB_Host_Library/Class/AUDIO/Src/usbh_audio.c ****     }
1624:Middlewares/ST/STM32_USB_Host_Library/Class/AUDIO/Src/usbh_audio.c ****     break;
1625:Middlewares/ST/STM32_USB_Host_Library/Class/AUDIO/Src/usbh_audio.c ****     
1626:Middlewares/ST/STM32_USB_Host_Library/Class/AUDIO/Src/usbh_audio.c ****   case AUDIO_DATA_OUT:
1627:Middlewares/ST/STM32_USB_Host_Library/Class/AUDIO/Src/usbh_audio.c ****     if((USBH_LL_GetURBState(phost , AUDIO_Handle->headphone.Pipe) == USBH_URB_DONE)&&
1628:Middlewares/ST/STM32_USB_Host_Library/Class/AUDIO/Src/usbh_audio.c ****        (( phost->Timer - AUDIO_Handle->headphone.timer) >= AUDIO_Handle->headphone.Poll))
1629:Middlewares/ST/STM32_USB_Host_Library/Class/AUDIO/Src/usbh_audio.c ****     {
1630:Middlewares/ST/STM32_USB_Host_Library/Class/AUDIO/Src/usbh_audio.c ****       AUDIO_Handle->headphone.timer = phost->Timer;
1631:Middlewares/ST/STM32_USB_Host_Library/Class/AUDIO/Src/usbh_audio.c ****       
1632:Middlewares/ST/STM32_USB_Host_Library/Class/AUDIO/Src/usbh_audio.c ****       if(AUDIO_Handle->control.supported == 1)
1633:Middlewares/ST/STM32_USB_Host_Library/Class/AUDIO/Src/usbh_audio.c ****       {
1634:Middlewares/ST/STM32_USB_Host_Library/Class/AUDIO/Src/usbh_audio.c ****         USBH_AUDIO_Control (phost);
1635:Middlewares/ST/STM32_USB_Host_Library/Class/AUDIO/Src/usbh_audio.c ****       }
1636:Middlewares/ST/STM32_USB_Host_Library/Class/AUDIO/Src/usbh_audio.c ****       
1637:Middlewares/ST/STM32_USB_Host_Library/Class/AUDIO/Src/usbh_audio.c ****       if(AUDIO_Handle->headphone.global_ptr <= AUDIO_Handle->headphone.total_length)
1638:Middlewares/ST/STM32_USB_Host_Library/Class/AUDIO/Src/usbh_audio.c ****       {
1639:Middlewares/ST/STM32_USB_Host_Library/Class/AUDIO/Src/usbh_audio.c ****         USBH_IsocSendData(phost, 
1640:Middlewares/ST/STM32_USB_Host_Library/Class/AUDIO/Src/usbh_audio.c ****                           AUDIO_Handle->headphone.cbuf,
1641:Middlewares/ST/STM32_USB_Host_Library/Class/AUDIO/Src/usbh_audio.c ****                           AUDIO_Handle->headphone.frame_length,
1642:Middlewares/ST/STM32_USB_Host_Library/Class/AUDIO/Src/usbh_audio.c ****                           AUDIO_Handle->headphone.Pipe);
1643:Middlewares/ST/STM32_USB_Host_Library/Class/AUDIO/Src/usbh_audio.c ****         
1644:Middlewares/ST/STM32_USB_Host_Library/Class/AUDIO/Src/usbh_audio.c ****         AUDIO_Handle->headphone.cbuf += AUDIO_Handle->headphone.frame_length;
1645:Middlewares/ST/STM32_USB_Host_Library/Class/AUDIO/Src/usbh_audio.c ****         AUDIO_Handle->headphone.partial_ptr += AUDIO_Handle->headphone.frame_length;
1646:Middlewares/ST/STM32_USB_Host_Library/Class/AUDIO/Src/usbh_audio.c ****         AUDIO_Handle->headphone.global_ptr += AUDIO_Handle->headphone.frame_length;
1647:Middlewares/ST/STM32_USB_Host_Library/Class/AUDIO/Src/usbh_audio.c ****       }
1648:Middlewares/ST/STM32_USB_Host_Library/Class/AUDIO/Src/usbh_audio.c ****       else
1649:Middlewares/ST/STM32_USB_Host_Library/Class/AUDIO/Src/usbh_audio.c ****       {
1650:Middlewares/ST/STM32_USB_Host_Library/Class/AUDIO/Src/usbh_audio.c ****        AUDIO_Handle->headphone.partial_ptr = 0xFFFFFFFF;
1651:Middlewares/ST/STM32_USB_Host_Library/Class/AUDIO/Src/usbh_audio.c ****        AUDIO_Handle->play_state = AUDIO_PLAYBACK_IDLE;
1652:Middlewares/ST/STM32_USB_Host_Library/Class/AUDIO/Src/usbh_audio.c ****        USBH_AUDIO_BufferEmptyCallback(phost);
1653:Middlewares/ST/STM32_USB_Host_Library/Class/AUDIO/Src/usbh_audio.c ****       }
1654:Middlewares/ST/STM32_USB_Host_Library/Class/AUDIO/Src/usbh_audio.c ****     }
1655:Middlewares/ST/STM32_USB_Host_Library/Class/AUDIO/Src/usbh_audio.c ****     break;
1656:Middlewares/ST/STM32_USB_Host_Library/Class/AUDIO/Src/usbh_audio.c ****   }
1657:Middlewares/ST/STM32_USB_Host_Library/Class/AUDIO/Src/usbh_audio.c ****   return status;
1658:Middlewares/ST/STM32_USB_Host_Library/Class/AUDIO/Src/usbh_audio.c **** }
1659:Middlewares/ST/STM32_USB_Host_Library/Class/AUDIO/Src/usbh_audio.c **** 
1660:Middlewares/ST/STM32_USB_Host_Library/Class/AUDIO/Src/usbh_audio.c **** /**
1661:Middlewares/ST/STM32_USB_Host_Library/Class/AUDIO/Src/usbh_audio.c ****   * @brief  USBH_AUDIO_SetFrequency 
1662:Middlewares/ST/STM32_USB_Host_Library/Class/AUDIO/Src/usbh_audio.c ****   *         Set Audio sampling parameters
1663:Middlewares/ST/STM32_USB_Host_Library/Class/AUDIO/Src/usbh_audio.c ****   * @param  phost: Host handle
1664:Middlewares/ST/STM32_USB_Host_Library/Class/AUDIO/Src/usbh_audio.c ****   * @param  SampleRate: Sample Rate
1665:Middlewares/ST/STM32_USB_Host_Library/Class/AUDIO/Src/usbh_audio.c ****   * @param  NbrChannels: Number of Channels
1666:Middlewares/ST/STM32_USB_Host_Library/Class/AUDIO/Src/usbh_audio.c ****   * @param  BitPerSample: Bit Per Sample
1667:Middlewares/ST/STM32_USB_Host_Library/Class/AUDIO/Src/usbh_audio.c ****   * @retval USBH Status
1668:Middlewares/ST/STM32_USB_Host_Library/Class/AUDIO/Src/usbh_audio.c ****   */
1669:Middlewares/ST/STM32_USB_Host_Library/Class/AUDIO/Src/usbh_audio.c **** USBH_StatusTypeDef USBH_AUDIO_SetFrequency (USBH_HandleTypeDef *phost, 
1670:Middlewares/ST/STM32_USB_Host_Library/Class/AUDIO/Src/usbh_audio.c ****                                             uint16_t SampleRate,
1671:Middlewares/ST/STM32_USB_Host_Library/Class/AUDIO/Src/usbh_audio.c ****                                             uint8_t  NbrChannels,
1672:Middlewares/ST/STM32_USB_Host_Library/Class/AUDIO/Src/usbh_audio.c ****                                             uint8_t  BitPerSample)
1673:Middlewares/ST/STM32_USB_Host_Library/Class/AUDIO/Src/usbh_audio.c **** {
1674:Middlewares/ST/STM32_USB_Host_Library/Class/AUDIO/Src/usbh_audio.c ****   USBH_StatusTypeDef Status = USBH_BUSY;
1675:Middlewares/ST/STM32_USB_Host_Library/Class/AUDIO/Src/usbh_audio.c ****   AUDIO_HandleTypeDef *AUDIO_Handle; 
1676:Middlewares/ST/STM32_USB_Host_Library/Class/AUDIO/Src/usbh_audio.c ****   uint8_t              index; 
1677:Middlewares/ST/STM32_USB_Host_Library/Class/AUDIO/Src/usbh_audio.c ****   uint8_t              change_freq = FALSE;
1678:Middlewares/ST/STM32_USB_Host_Library/Class/AUDIO/Src/usbh_audio.c ****   uint32_t             freq_min, freq_max;
ARM GAS  /tmp/cc7hx4Eu.s 			page 49


1679:Middlewares/ST/STM32_USB_Host_Library/Class/AUDIO/Src/usbh_audio.c ****   uint8_t              num_supported_freq;
1680:Middlewares/ST/STM32_USB_Host_Library/Class/AUDIO/Src/usbh_audio.c ****   
1681:Middlewares/ST/STM32_USB_Host_Library/Class/AUDIO/Src/usbh_audio.c ****   if(phost->gState == HOST_CLASS)
1682:Middlewares/ST/STM32_USB_Host_Library/Class/AUDIO/Src/usbh_audio.c ****   {
1683:Middlewares/ST/STM32_USB_Host_Library/Class/AUDIO/Src/usbh_audio.c ****     AUDIO_Handle =  (AUDIO_HandleTypeDef*) phost->pActiveClass->pData;
1684:Middlewares/ST/STM32_USB_Host_Library/Class/AUDIO/Src/usbh_audio.c ****     if(AUDIO_Handle->play_state == AUDIO_PLAYBACK_IDLE)
1685:Middlewares/ST/STM32_USB_Host_Library/Class/AUDIO/Src/usbh_audio.c ****     {
1686:Middlewares/ST/STM32_USB_Host_Library/Class/AUDIO/Src/usbh_audio.c ****       
1687:Middlewares/ST/STM32_USB_Host_Library/Class/AUDIO/Src/usbh_audio.c ****       if(AUDIO_Handle->class_desc.as_desc[AUDIO_Handle->headphone.asociated_as].FormatTypeDesc->bSa
1688:Middlewares/ST/STM32_USB_Host_Library/Class/AUDIO/Src/usbh_audio.c ****       { 
1689:Middlewares/ST/STM32_USB_Host_Library/Class/AUDIO/Src/usbh_audio.c ****         freq_min = LE24(AUDIO_Handle->class_desc.as_desc[AUDIO_Handle->headphone.asociated_as].Form
1690:Middlewares/ST/STM32_USB_Host_Library/Class/AUDIO/Src/usbh_audio.c ****         freq_max = LE24(AUDIO_Handle->class_desc.as_desc[AUDIO_Handle->headphone.asociated_as].Form
1691:Middlewares/ST/STM32_USB_Host_Library/Class/AUDIO/Src/usbh_audio.c ****         
1692:Middlewares/ST/STM32_USB_Host_Library/Class/AUDIO/Src/usbh_audio.c ****         if(( SampleRate >= freq_min)&& (SampleRate <= freq_max))
1693:Middlewares/ST/STM32_USB_Host_Library/Class/AUDIO/Src/usbh_audio.c ****         {
1694:Middlewares/ST/STM32_USB_Host_Library/Class/AUDIO/Src/usbh_audio.c ****           change_freq = TRUE;
1695:Middlewares/ST/STM32_USB_Host_Library/Class/AUDIO/Src/usbh_audio.c ****         }
1696:Middlewares/ST/STM32_USB_Host_Library/Class/AUDIO/Src/usbh_audio.c ****       }
1697:Middlewares/ST/STM32_USB_Host_Library/Class/AUDIO/Src/usbh_audio.c ****       else
1698:Middlewares/ST/STM32_USB_Host_Library/Class/AUDIO/Src/usbh_audio.c ****       {    
1699:Middlewares/ST/STM32_USB_Host_Library/Class/AUDIO/Src/usbh_audio.c ****         
1700:Middlewares/ST/STM32_USB_Host_Library/Class/AUDIO/Src/usbh_audio.c ****         num_supported_freq = (AUDIO_Handle->class_desc.as_desc[AUDIO_Handle->headphone.asociated_as
1701:Middlewares/ST/STM32_USB_Host_Library/Class/AUDIO/Src/usbh_audio.c ****         
1702:Middlewares/ST/STM32_USB_Host_Library/Class/AUDIO/Src/usbh_audio.c ****         
1703:Middlewares/ST/STM32_USB_Host_Library/Class/AUDIO/Src/usbh_audio.c ****         for(index = 0; index < num_supported_freq; index++)
1704:Middlewares/ST/STM32_USB_Host_Library/Class/AUDIO/Src/usbh_audio.c ****         {
1705:Middlewares/ST/STM32_USB_Host_Library/Class/AUDIO/Src/usbh_audio.c ****           if(SampleRate == LE24(AUDIO_Handle->class_desc.as_desc[AUDIO_Handle->headphone.asociated_
1706:Middlewares/ST/STM32_USB_Host_Library/Class/AUDIO/Src/usbh_audio.c ****           {
1707:Middlewares/ST/STM32_USB_Host_Library/Class/AUDIO/Src/usbh_audio.c ****             change_freq = TRUE;            
1708:Middlewares/ST/STM32_USB_Host_Library/Class/AUDIO/Src/usbh_audio.c ****             break;
1709:Middlewares/ST/STM32_USB_Host_Library/Class/AUDIO/Src/usbh_audio.c ****           }
1710:Middlewares/ST/STM32_USB_Host_Library/Class/AUDIO/Src/usbh_audio.c ****         }  
1711:Middlewares/ST/STM32_USB_Host_Library/Class/AUDIO/Src/usbh_audio.c ****       }      
1712:Middlewares/ST/STM32_USB_Host_Library/Class/AUDIO/Src/usbh_audio.c ****       
1713:Middlewares/ST/STM32_USB_Host_Library/Class/AUDIO/Src/usbh_audio.c ****       if(change_freq == TRUE)
1714:Middlewares/ST/STM32_USB_Host_Library/Class/AUDIO/Src/usbh_audio.c ****       {
1715:Middlewares/ST/STM32_USB_Host_Library/Class/AUDIO/Src/usbh_audio.c ****         AUDIO_Handle->headphone.frequency = SampleRate;
1716:Middlewares/ST/STM32_USB_Host_Library/Class/AUDIO/Src/usbh_audio.c ****         AUDIO_Handle->headphone.frame_length    = (SampleRate * BitPerSample * NbrChannels) / 8000;
1717:Middlewares/ST/STM32_USB_Host_Library/Class/AUDIO/Src/usbh_audio.c ****         AUDIO_Handle->play_state = AUDIO_PLAYBACK_SET_EP;
1718:Middlewares/ST/STM32_USB_Host_Library/Class/AUDIO/Src/usbh_audio.c ****         Status = USBH_OK;  
1719:Middlewares/ST/STM32_USB_Host_Library/Class/AUDIO/Src/usbh_audio.c ****         
1720:Middlewares/ST/STM32_USB_Host_Library/Class/AUDIO/Src/usbh_audio.c ****       }
1721:Middlewares/ST/STM32_USB_Host_Library/Class/AUDIO/Src/usbh_audio.c ****     }
1722:Middlewares/ST/STM32_USB_Host_Library/Class/AUDIO/Src/usbh_audio.c ****   }
1723:Middlewares/ST/STM32_USB_Host_Library/Class/AUDIO/Src/usbh_audio.c ****    return Status;  
1724:Middlewares/ST/STM32_USB_Host_Library/Class/AUDIO/Src/usbh_audio.c **** }
1725:Middlewares/ST/STM32_USB_Host_Library/Class/AUDIO/Src/usbh_audio.c **** 
1726:Middlewares/ST/STM32_USB_Host_Library/Class/AUDIO/Src/usbh_audio.c **** /**
1727:Middlewares/ST/STM32_USB_Host_Library/Class/AUDIO/Src/usbh_audio.c ****   * @brief  USBH_AUDIO_Play 
1728:Middlewares/ST/STM32_USB_Host_Library/Class/AUDIO/Src/usbh_audio.c ****   *         Start playback process
1729:Middlewares/ST/STM32_USB_Host_Library/Class/AUDIO/Src/usbh_audio.c ****   * @param  phost: Host handle
1730:Middlewares/ST/STM32_USB_Host_Library/Class/AUDIO/Src/usbh_audio.c ****   * @param  buf: pointer to raw audio data
1731:Middlewares/ST/STM32_USB_Host_Library/Class/AUDIO/Src/usbh_audio.c ****   * @param  length: total length of the audio data
1732:Middlewares/ST/STM32_USB_Host_Library/Class/AUDIO/Src/usbh_audio.c ****   * @retval USBH Status
1733:Middlewares/ST/STM32_USB_Host_Library/Class/AUDIO/Src/usbh_audio.c ****   */
1734:Middlewares/ST/STM32_USB_Host_Library/Class/AUDIO/Src/usbh_audio.c **** USBH_StatusTypeDef USBH_AUDIO_Play (USBH_HandleTypeDef *phost, uint8_t *buf, uint32_t length)
1735:Middlewares/ST/STM32_USB_Host_Library/Class/AUDIO/Src/usbh_audio.c **** {
ARM GAS  /tmp/cc7hx4Eu.s 			page 50


1736:Middlewares/ST/STM32_USB_Host_Library/Class/AUDIO/Src/usbh_audio.c ****   USBH_StatusTypeDef Status = USBH_FAIL;
1737:Middlewares/ST/STM32_USB_Host_Library/Class/AUDIO/Src/usbh_audio.c ****   AUDIO_HandleTypeDef *AUDIO_Handle; 
1738:Middlewares/ST/STM32_USB_Host_Library/Class/AUDIO/Src/usbh_audio.c ****   
1739:Middlewares/ST/STM32_USB_Host_Library/Class/AUDIO/Src/usbh_audio.c ****   if(phost->gState == HOST_CLASS)
1740:Middlewares/ST/STM32_USB_Host_Library/Class/AUDIO/Src/usbh_audio.c ****   {
1741:Middlewares/ST/STM32_USB_Host_Library/Class/AUDIO/Src/usbh_audio.c ****     AUDIO_Handle =  (AUDIO_HandleTypeDef*) phost->pActiveClass->pData;
1742:Middlewares/ST/STM32_USB_Host_Library/Class/AUDIO/Src/usbh_audio.c ****     if(AUDIO_Handle->play_state == AUDIO_PLAYBACK_IDLE)
1743:Middlewares/ST/STM32_USB_Host_Library/Class/AUDIO/Src/usbh_audio.c ****     {
1744:Middlewares/ST/STM32_USB_Host_Library/Class/AUDIO/Src/usbh_audio.c ****       AUDIO_Handle->headphone.buf = buf;
1745:Middlewares/ST/STM32_USB_Host_Library/Class/AUDIO/Src/usbh_audio.c ****       AUDIO_Handle->headphone.total_length = length;
1746:Middlewares/ST/STM32_USB_Host_Library/Class/AUDIO/Src/usbh_audio.c ****       AUDIO_Handle->play_state = AUDIO_PLAYBACK_PLAY;
1747:Middlewares/ST/STM32_USB_Host_Library/Class/AUDIO/Src/usbh_audio.c ****       AUDIO_Handle->control_state = AUDIO_CONTROL_INIT;
1748:Middlewares/ST/STM32_USB_Host_Library/Class/AUDIO/Src/usbh_audio.c ****       AUDIO_Handle->processing_state = AUDIO_DATA_START_OUT;
1749:Middlewares/ST/STM32_USB_Host_Library/Class/AUDIO/Src/usbh_audio.c ****       Status = USBH_OK;
1750:Middlewares/ST/STM32_USB_Host_Library/Class/AUDIO/Src/usbh_audio.c **** #if (USBH_USE_OS == 1)
1751:Middlewares/ST/STM32_USB_Host_Library/Class/AUDIO/Src/usbh_audio.c ****       osMessagePut ( phost->os_event, USBH_CLASS_EVENT, 0);
1752:Middlewares/ST/STM32_USB_Host_Library/Class/AUDIO/Src/usbh_audio.c **** #endif        
1753:Middlewares/ST/STM32_USB_Host_Library/Class/AUDIO/Src/usbh_audio.c ****     }
1754:Middlewares/ST/STM32_USB_Host_Library/Class/AUDIO/Src/usbh_audio.c ****   }
1755:Middlewares/ST/STM32_USB_Host_Library/Class/AUDIO/Src/usbh_audio.c ****   return Status;  
1756:Middlewares/ST/STM32_USB_Host_Library/Class/AUDIO/Src/usbh_audio.c **** }
1757:Middlewares/ST/STM32_USB_Host_Library/Class/AUDIO/Src/usbh_audio.c **** 
1758:Middlewares/ST/STM32_USB_Host_Library/Class/AUDIO/Src/usbh_audio.c **** /**
1759:Middlewares/ST/STM32_USB_Host_Library/Class/AUDIO/Src/usbh_audio.c ****   * @brief  USBH_AUDIO_Pause 
1760:Middlewares/ST/STM32_USB_Host_Library/Class/AUDIO/Src/usbh_audio.c ****   *         Stop the playback process
1761:Middlewares/ST/STM32_USB_Host_Library/Class/AUDIO/Src/usbh_audio.c ****   * @param  phost: Host handle
1762:Middlewares/ST/STM32_USB_Host_Library/Class/AUDIO/Src/usbh_audio.c ****   * @retval USBH Status
1763:Middlewares/ST/STM32_USB_Host_Library/Class/AUDIO/Src/usbh_audio.c ****   */
1764:Middlewares/ST/STM32_USB_Host_Library/Class/AUDIO/Src/usbh_audio.c **** USBH_StatusTypeDef USBH_AUDIO_Stop (USBH_HandleTypeDef *phost)
1765:Middlewares/ST/STM32_USB_Host_Library/Class/AUDIO/Src/usbh_audio.c **** {
1766:Middlewares/ST/STM32_USB_Host_Library/Class/AUDIO/Src/usbh_audio.c ****   USBH_StatusTypeDef Status = USBH_FAIL;
1767:Middlewares/ST/STM32_USB_Host_Library/Class/AUDIO/Src/usbh_audio.c ****   Status = USBH_AUDIO_Suspend(phost);
1768:Middlewares/ST/STM32_USB_Host_Library/Class/AUDIO/Src/usbh_audio.c ****   return Status;  
1769:Middlewares/ST/STM32_USB_Host_Library/Class/AUDIO/Src/usbh_audio.c **** }
1770:Middlewares/ST/STM32_USB_Host_Library/Class/AUDIO/Src/usbh_audio.c **** 
1771:Middlewares/ST/STM32_USB_Host_Library/Class/AUDIO/Src/usbh_audio.c **** /**
1772:Middlewares/ST/STM32_USB_Host_Library/Class/AUDIO/Src/usbh_audio.c ****   * @brief  USBH_AUDIO_Suspend 
1773:Middlewares/ST/STM32_USB_Host_Library/Class/AUDIO/Src/usbh_audio.c ****   *         Suspend the playback process
1774:Middlewares/ST/STM32_USB_Host_Library/Class/AUDIO/Src/usbh_audio.c ****   * @param  phost: Host handle
1775:Middlewares/ST/STM32_USB_Host_Library/Class/AUDIO/Src/usbh_audio.c ****   * @retval USBH Status
1776:Middlewares/ST/STM32_USB_Host_Library/Class/AUDIO/Src/usbh_audio.c ****   */
1777:Middlewares/ST/STM32_USB_Host_Library/Class/AUDIO/Src/usbh_audio.c **** USBH_StatusTypeDef USBH_AUDIO_Suspend (USBH_HandleTypeDef *phost)
1778:Middlewares/ST/STM32_USB_Host_Library/Class/AUDIO/Src/usbh_audio.c **** {
1779:Middlewares/ST/STM32_USB_Host_Library/Class/AUDIO/Src/usbh_audio.c ****   USBH_StatusTypeDef Status = USBH_FAIL;
1780:Middlewares/ST/STM32_USB_Host_Library/Class/AUDIO/Src/usbh_audio.c ****   AUDIO_HandleTypeDef *AUDIO_Handle; 
1781:Middlewares/ST/STM32_USB_Host_Library/Class/AUDIO/Src/usbh_audio.c ****   
1782:Middlewares/ST/STM32_USB_Host_Library/Class/AUDIO/Src/usbh_audio.c ****   if(phost->gState == HOST_CLASS)
1783:Middlewares/ST/STM32_USB_Host_Library/Class/AUDIO/Src/usbh_audio.c ****   {
1784:Middlewares/ST/STM32_USB_Host_Library/Class/AUDIO/Src/usbh_audio.c ****     AUDIO_Handle =  (AUDIO_HandleTypeDef*) phost->pActiveClass->pData;
1785:Middlewares/ST/STM32_USB_Host_Library/Class/AUDIO/Src/usbh_audio.c ****     if(AUDIO_Handle->play_state == AUDIO_PLAYBACK_PLAY)
1786:Middlewares/ST/STM32_USB_Host_Library/Class/AUDIO/Src/usbh_audio.c ****     {
1787:Middlewares/ST/STM32_USB_Host_Library/Class/AUDIO/Src/usbh_audio.c ****       AUDIO_Handle->control_state = AUDIO_CONTROL_IDLE;
1788:Middlewares/ST/STM32_USB_Host_Library/Class/AUDIO/Src/usbh_audio.c ****       AUDIO_Handle->play_state = AUDIO_PLAYBACK_IDLE;
1789:Middlewares/ST/STM32_USB_Host_Library/Class/AUDIO/Src/usbh_audio.c ****       Status = USBH_OK;      
1790:Middlewares/ST/STM32_USB_Host_Library/Class/AUDIO/Src/usbh_audio.c ****     }
1791:Middlewares/ST/STM32_USB_Host_Library/Class/AUDIO/Src/usbh_audio.c ****   }
1792:Middlewares/ST/STM32_USB_Host_Library/Class/AUDIO/Src/usbh_audio.c ****   return Status;  
ARM GAS  /tmp/cc7hx4Eu.s 			page 51


1793:Middlewares/ST/STM32_USB_Host_Library/Class/AUDIO/Src/usbh_audio.c **** }
1794:Middlewares/ST/STM32_USB_Host_Library/Class/AUDIO/Src/usbh_audio.c **** /**
1795:Middlewares/ST/STM32_USB_Host_Library/Class/AUDIO/Src/usbh_audio.c ****   * @brief  USBH_AUDIO_Resume 
1796:Middlewares/ST/STM32_USB_Host_Library/Class/AUDIO/Src/usbh_audio.c ****   *         Resume the playback process
1797:Middlewares/ST/STM32_USB_Host_Library/Class/AUDIO/Src/usbh_audio.c ****   * @param  phost: Host handle
1798:Middlewares/ST/STM32_USB_Host_Library/Class/AUDIO/Src/usbh_audio.c ****   * @retval USBH Status
1799:Middlewares/ST/STM32_USB_Host_Library/Class/AUDIO/Src/usbh_audio.c ****   */
1800:Middlewares/ST/STM32_USB_Host_Library/Class/AUDIO/Src/usbh_audio.c **** USBH_StatusTypeDef USBH_AUDIO_Resume (USBH_HandleTypeDef *phost)
1801:Middlewares/ST/STM32_USB_Host_Library/Class/AUDIO/Src/usbh_audio.c **** {
1802:Middlewares/ST/STM32_USB_Host_Library/Class/AUDIO/Src/usbh_audio.c ****   USBH_StatusTypeDef Status = USBH_FAIL;
1803:Middlewares/ST/STM32_USB_Host_Library/Class/AUDIO/Src/usbh_audio.c ****   AUDIO_HandleTypeDef *AUDIO_Handle; 
1804:Middlewares/ST/STM32_USB_Host_Library/Class/AUDIO/Src/usbh_audio.c ****   
1805:Middlewares/ST/STM32_USB_Host_Library/Class/AUDIO/Src/usbh_audio.c ****   if(phost->gState == HOST_CLASS)
1806:Middlewares/ST/STM32_USB_Host_Library/Class/AUDIO/Src/usbh_audio.c ****   {
1807:Middlewares/ST/STM32_USB_Host_Library/Class/AUDIO/Src/usbh_audio.c ****     AUDIO_Handle =  (AUDIO_HandleTypeDef*) phost->pActiveClass->pData;
1808:Middlewares/ST/STM32_USB_Host_Library/Class/AUDIO/Src/usbh_audio.c ****     if(AUDIO_Handle->play_state == AUDIO_PLAYBACK_IDLE)
1809:Middlewares/ST/STM32_USB_Host_Library/Class/AUDIO/Src/usbh_audio.c ****     {
1810:Middlewares/ST/STM32_USB_Host_Library/Class/AUDIO/Src/usbh_audio.c ****       AUDIO_Handle->control_state = AUDIO_CONTROL_INIT;
1811:Middlewares/ST/STM32_USB_Host_Library/Class/AUDIO/Src/usbh_audio.c ****       AUDIO_Handle->play_state = AUDIO_PLAYBACK_PLAY;
1812:Middlewares/ST/STM32_USB_Host_Library/Class/AUDIO/Src/usbh_audio.c ****     }
1813:Middlewares/ST/STM32_USB_Host_Library/Class/AUDIO/Src/usbh_audio.c ****   }
1814:Middlewares/ST/STM32_USB_Host_Library/Class/AUDIO/Src/usbh_audio.c ****   return Status;  
1815:Middlewares/ST/STM32_USB_Host_Library/Class/AUDIO/Src/usbh_audio.c **** }
1816:Middlewares/ST/STM32_USB_Host_Library/Class/AUDIO/Src/usbh_audio.c **** /**
1817:Middlewares/ST/STM32_USB_Host_Library/Class/AUDIO/Src/usbh_audio.c ****   * @brief  USBH_AUDIO_GetOutOffset 
1818:Middlewares/ST/STM32_USB_Host_Library/Class/AUDIO/Src/usbh_audio.c ****   *         return the current buffer pointer for OUT process
1819:Middlewares/ST/STM32_USB_Host_Library/Class/AUDIO/Src/usbh_audio.c ****   * @param  phost: Host handle
1820:Middlewares/ST/STM32_USB_Host_Library/Class/AUDIO/Src/usbh_audio.c ****   * @retval USBH Status
1821:Middlewares/ST/STM32_USB_Host_Library/Class/AUDIO/Src/usbh_audio.c ****   */
1822:Middlewares/ST/STM32_USB_Host_Library/Class/AUDIO/Src/usbh_audio.c **** int32_t USBH_AUDIO_GetOutOffset (USBH_HandleTypeDef *phost)
1823:Middlewares/ST/STM32_USB_Host_Library/Class/AUDIO/Src/usbh_audio.c **** {
1824:Middlewares/ST/STM32_USB_Host_Library/Class/AUDIO/Src/usbh_audio.c ****   AUDIO_HandleTypeDef *AUDIO_Handle; 
1825:Middlewares/ST/STM32_USB_Host_Library/Class/AUDIO/Src/usbh_audio.c ****   
1826:Middlewares/ST/STM32_USB_Host_Library/Class/AUDIO/Src/usbh_audio.c ****   if(phost->gState == HOST_CLASS)
1827:Middlewares/ST/STM32_USB_Host_Library/Class/AUDIO/Src/usbh_audio.c ****   {
1828:Middlewares/ST/STM32_USB_Host_Library/Class/AUDIO/Src/usbh_audio.c ****     AUDIO_Handle =  (AUDIO_HandleTypeDef*) phost->pActiveClass->pData;
1829:Middlewares/ST/STM32_USB_Host_Library/Class/AUDIO/Src/usbh_audio.c ****     if(AUDIO_Handle->play_state == AUDIO_PLAYBACK_PLAY)
1830:Middlewares/ST/STM32_USB_Host_Library/Class/AUDIO/Src/usbh_audio.c ****     {
1831:Middlewares/ST/STM32_USB_Host_Library/Class/AUDIO/Src/usbh_audio.c ****       return AUDIO_Handle->headphone.partial_ptr;
1832:Middlewares/ST/STM32_USB_Host_Library/Class/AUDIO/Src/usbh_audio.c ****     }
1833:Middlewares/ST/STM32_USB_Host_Library/Class/AUDIO/Src/usbh_audio.c ****   }
1834:Middlewares/ST/STM32_USB_Host_Library/Class/AUDIO/Src/usbh_audio.c ****   return -1;  
1835:Middlewares/ST/STM32_USB_Host_Library/Class/AUDIO/Src/usbh_audio.c **** }
1836:Middlewares/ST/STM32_USB_Host_Library/Class/AUDIO/Src/usbh_audio.c **** 
1837:Middlewares/ST/STM32_USB_Host_Library/Class/AUDIO/Src/usbh_audio.c **** /**
1838:Middlewares/ST/STM32_USB_Host_Library/Class/AUDIO/Src/usbh_audio.c ****   * @brief  USBH_AUDIO_ChangeOutBuffer 
1839:Middlewares/ST/STM32_USB_Host_Library/Class/AUDIO/Src/usbh_audio.c ****   *         Change audio data buffer address
1840:Middlewares/ST/STM32_USB_Host_Library/Class/AUDIO/Src/usbh_audio.c ****   * @param  phost: Host handle
1841:Middlewares/ST/STM32_USB_Host_Library/Class/AUDIO/Src/usbh_audio.c ****   * @param  buf: buffer address
1842:Middlewares/ST/STM32_USB_Host_Library/Class/AUDIO/Src/usbh_audio.c ****   * @retval USBH Status
1843:Middlewares/ST/STM32_USB_Host_Library/Class/AUDIO/Src/usbh_audio.c ****   */
1844:Middlewares/ST/STM32_USB_Host_Library/Class/AUDIO/Src/usbh_audio.c **** USBH_StatusTypeDef USBH_AUDIO_ChangeOutBuffer (USBH_HandleTypeDef *phost, uint8_t *buf)
1845:Middlewares/ST/STM32_USB_Host_Library/Class/AUDIO/Src/usbh_audio.c **** {
1846:Middlewares/ST/STM32_USB_Host_Library/Class/AUDIO/Src/usbh_audio.c ****   USBH_StatusTypeDef Status = USBH_FAIL;
1847:Middlewares/ST/STM32_USB_Host_Library/Class/AUDIO/Src/usbh_audio.c ****   AUDIO_HandleTypeDef *AUDIO_Handle; 
1848:Middlewares/ST/STM32_USB_Host_Library/Class/AUDIO/Src/usbh_audio.c ****   
1849:Middlewares/ST/STM32_USB_Host_Library/Class/AUDIO/Src/usbh_audio.c ****   if(phost->gState == HOST_CLASS)
ARM GAS  /tmp/cc7hx4Eu.s 			page 52


1850:Middlewares/ST/STM32_USB_Host_Library/Class/AUDIO/Src/usbh_audio.c ****   {
1851:Middlewares/ST/STM32_USB_Host_Library/Class/AUDIO/Src/usbh_audio.c ****     AUDIO_Handle =  (AUDIO_HandleTypeDef*) phost->pActiveClass->pData;
1852:Middlewares/ST/STM32_USB_Host_Library/Class/AUDIO/Src/usbh_audio.c ****     if(AUDIO_Handle->play_state == AUDIO_PLAYBACK_PLAY)
1853:Middlewares/ST/STM32_USB_Host_Library/Class/AUDIO/Src/usbh_audio.c ****     {
1854:Middlewares/ST/STM32_USB_Host_Library/Class/AUDIO/Src/usbh_audio.c ****       if(AUDIO_Handle->headphone.buf <= buf)
1855:Middlewares/ST/STM32_USB_Host_Library/Class/AUDIO/Src/usbh_audio.c ****       {
1856:Middlewares/ST/STM32_USB_Host_Library/Class/AUDIO/Src/usbh_audio.c ****         AUDIO_Handle->headphone.cbuf = buf;
1857:Middlewares/ST/STM32_USB_Host_Library/Class/AUDIO/Src/usbh_audio.c ****         if ( AUDIO_Handle->headphone.buf == buf)
1858:Middlewares/ST/STM32_USB_Host_Library/Class/AUDIO/Src/usbh_audio.c ****         {
1859:Middlewares/ST/STM32_USB_Host_Library/Class/AUDIO/Src/usbh_audio.c ****           AUDIO_Handle->headphone.partial_ptr = 0;
1860:Middlewares/ST/STM32_USB_Host_Library/Class/AUDIO/Src/usbh_audio.c ****         }
1861:Middlewares/ST/STM32_USB_Host_Library/Class/AUDIO/Src/usbh_audio.c ****         Status = USBH_OK;  
1862:Middlewares/ST/STM32_USB_Host_Library/Class/AUDIO/Src/usbh_audio.c ****       }    
1863:Middlewares/ST/STM32_USB_Host_Library/Class/AUDIO/Src/usbh_audio.c ****     }
1864:Middlewares/ST/STM32_USB_Host_Library/Class/AUDIO/Src/usbh_audio.c ****   }
1865:Middlewares/ST/STM32_USB_Host_Library/Class/AUDIO/Src/usbh_audio.c ****   return Status;  
1866:Middlewares/ST/STM32_USB_Host_Library/Class/AUDIO/Src/usbh_audio.c **** }
1867:Middlewares/ST/STM32_USB_Host_Library/Class/AUDIO/Src/usbh_audio.c **** 
1868:Middlewares/ST/STM32_USB_Host_Library/Class/AUDIO/Src/usbh_audio.c **** /**
1869:Middlewares/ST/STM32_USB_Host_Library/Class/AUDIO/Src/usbh_audio.c ****   * @brief  USBH_AUDIO_SetControlAttribute 
1870:Middlewares/ST/STM32_USB_Host_Library/Class/AUDIO/Src/usbh_audio.c ****   *         Set Control Attribute
1871:Middlewares/ST/STM32_USB_Host_Library/Class/AUDIO/Src/usbh_audio.c ****   * @param  phost: Host handle
1872:Middlewares/ST/STM32_USB_Host_Library/Class/AUDIO/Src/usbh_audio.c ****   * @param  attrib: control attribute
1873:Middlewares/ST/STM32_USB_Host_Library/Class/AUDIO/Src/usbh_audio.c ****   * @retval USBH Status
1874:Middlewares/ST/STM32_USB_Host_Library/Class/AUDIO/Src/usbh_audio.c ****   */
1875:Middlewares/ST/STM32_USB_Host_Library/Class/AUDIO/Src/usbh_audio.c **** static USBH_StatusTypeDef USBH_AUDIO_SetControlAttribute (USBH_HandleTypeDef *phost, uint8_t attrib
1876:Middlewares/ST/STM32_USB_Host_Library/Class/AUDIO/Src/usbh_audio.c **** {
1877:Middlewares/ST/STM32_USB_Host_Library/Class/AUDIO/Src/usbh_audio.c ****   USBH_StatusTypeDef status = USBH_BUSY ;
1878:Middlewares/ST/STM32_USB_Host_Library/Class/AUDIO/Src/usbh_audio.c ****   AUDIO_HandleTypeDef *AUDIO_Handle; 
1879:Middlewares/ST/STM32_USB_Host_Library/Class/AUDIO/Src/usbh_audio.c **** 
1880:Middlewares/ST/STM32_USB_Host_Library/Class/AUDIO/Src/usbh_audio.c ****   
1881:Middlewares/ST/STM32_USB_Host_Library/Class/AUDIO/Src/usbh_audio.c ****   AUDIO_Handle = (AUDIO_HandleTypeDef*) phost->pActiveClass->pData;
1882:Middlewares/ST/STM32_USB_Host_Library/Class/AUDIO/Src/usbh_audio.c ****   
1883:Middlewares/ST/STM32_USB_Host_Library/Class/AUDIO/Src/usbh_audio.c ****   switch (attrib)
1884:Middlewares/ST/STM32_USB_Host_Library/Class/AUDIO/Src/usbh_audio.c ****   {
1885:Middlewares/ST/STM32_USB_Host_Library/Class/AUDIO/Src/usbh_audio.c ****   case 0x01:
1886:Middlewares/ST/STM32_USB_Host_Library/Class/AUDIO/Src/usbh_audio.c ****     AUDIO_Handle->headphone.attribute.volume += AUDIO_Handle->headphone.attribute.resolution;
1887:Middlewares/ST/STM32_USB_Host_Library/Class/AUDIO/Src/usbh_audio.c ****     break;
1888:Middlewares/ST/STM32_USB_Host_Library/Class/AUDIO/Src/usbh_audio.c ****     
1889:Middlewares/ST/STM32_USB_Host_Library/Class/AUDIO/Src/usbh_audio.c ****   case 0x02:
1890:Middlewares/ST/STM32_USB_Host_Library/Class/AUDIO/Src/usbh_audio.c ****     AUDIO_Handle->headphone.attribute.volume -= AUDIO_Handle->headphone.attribute.resolution; 
1891:Middlewares/ST/STM32_USB_Host_Library/Class/AUDIO/Src/usbh_audio.c ****     break;
1892:Middlewares/ST/STM32_USB_Host_Library/Class/AUDIO/Src/usbh_audio.c ****     
1893:Middlewares/ST/STM32_USB_Host_Library/Class/AUDIO/Src/usbh_audio.c ****   }
1894:Middlewares/ST/STM32_USB_Host_Library/Class/AUDIO/Src/usbh_audio.c ****   
1895:Middlewares/ST/STM32_USB_Host_Library/Class/AUDIO/Src/usbh_audio.c ****   if(AUDIO_Handle->headphone.attribute.volume > AUDIO_Handle->headphone.attribute.volumeMax)
1896:Middlewares/ST/STM32_USB_Host_Library/Class/AUDIO/Src/usbh_audio.c ****   {
1897:Middlewares/ST/STM32_USB_Host_Library/Class/AUDIO/Src/usbh_audio.c ****     AUDIO_Handle->headphone.attribute.volume =AUDIO_Handle->headphone.attribute.volumeMax;
1898:Middlewares/ST/STM32_USB_Host_Library/Class/AUDIO/Src/usbh_audio.c ****   }
1899:Middlewares/ST/STM32_USB_Host_Library/Class/AUDIO/Src/usbh_audio.c ****   
1900:Middlewares/ST/STM32_USB_Host_Library/Class/AUDIO/Src/usbh_audio.c ****   if(AUDIO_Handle->headphone.attribute.volume < AUDIO_Handle->headphone.attribute.volumeMin)
1901:Middlewares/ST/STM32_USB_Host_Library/Class/AUDIO/Src/usbh_audio.c ****   {
1902:Middlewares/ST/STM32_USB_Host_Library/Class/AUDIO/Src/usbh_audio.c ****     AUDIO_Handle->headphone.attribute.volume =AUDIO_Handle->headphone.attribute.volumeMin;
1903:Middlewares/ST/STM32_USB_Host_Library/Class/AUDIO/Src/usbh_audio.c ****   }
1904:Middlewares/ST/STM32_USB_Host_Library/Class/AUDIO/Src/usbh_audio.c ****   
1905:Middlewares/ST/STM32_USB_Host_Library/Class/AUDIO/Src/usbh_audio.c ****   if(AUDIO_SetVolume (phost, 
1906:Middlewares/ST/STM32_USB_Host_Library/Class/AUDIO/Src/usbh_audio.c ****                                  AUDIO_Handle->temp_feature, 
ARM GAS  /tmp/cc7hx4Eu.s 			page 53


1907:Middlewares/ST/STM32_USB_Host_Library/Class/AUDIO/Src/usbh_audio.c ****                                  AUDIO_Handle->temp_channels, 
1908:Middlewares/ST/STM32_USB_Host_Library/Class/AUDIO/Src/usbh_audio.c ****                                  AUDIO_Handle->headphone.attribute.volume) != USBH_BUSY)
1909:Middlewares/ST/STM32_USB_Host_Library/Class/AUDIO/Src/usbh_audio.c ****   {
1910:Middlewares/ST/STM32_USB_Host_Library/Class/AUDIO/Src/usbh_audio.c ****     
1911:Middlewares/ST/STM32_USB_Host_Library/Class/AUDIO/Src/usbh_audio.c ****     if(AUDIO_Handle->temp_channels ==  1)
1912:Middlewares/ST/STM32_USB_Host_Library/Class/AUDIO/Src/usbh_audio.c ****     {
1913:Middlewares/ST/STM32_USB_Host_Library/Class/AUDIO/Src/usbh_audio.c ****       AUDIO_Handle->temp_feature  = AUDIO_Handle->headphone.asociated_feature;
1914:Middlewares/ST/STM32_USB_Host_Library/Class/AUDIO/Src/usbh_audio.c ****       AUDIO_Handle->temp_channels = AUDIO_Handle->headphone.asociated_channels;
1915:Middlewares/ST/STM32_USB_Host_Library/Class/AUDIO/Src/usbh_audio.c ****       status = USBH_OK;
1916:Middlewares/ST/STM32_USB_Host_Library/Class/AUDIO/Src/usbh_audio.c ****     }
1917:Middlewares/ST/STM32_USB_Host_Library/Class/AUDIO/Src/usbh_audio.c ****     else
1918:Middlewares/ST/STM32_USB_Host_Library/Class/AUDIO/Src/usbh_audio.c ****     {
1919:Middlewares/ST/STM32_USB_Host_Library/Class/AUDIO/Src/usbh_audio.c ****       AUDIO_Handle->temp_channels--;
1920:Middlewares/ST/STM32_USB_Host_Library/Class/AUDIO/Src/usbh_audio.c ****     }
1921:Middlewares/ST/STM32_USB_Host_Library/Class/AUDIO/Src/usbh_audio.c ****     AUDIO_Handle->cs_req_state = AUDIO_REQ_GET_VOLUME;
1922:Middlewares/ST/STM32_USB_Host_Library/Class/AUDIO/Src/usbh_audio.c ****   }
1923:Middlewares/ST/STM32_USB_Host_Library/Class/AUDIO/Src/usbh_audio.c ****   
1924:Middlewares/ST/STM32_USB_Host_Library/Class/AUDIO/Src/usbh_audio.c ****  
1925:Middlewares/ST/STM32_USB_Host_Library/Class/AUDIO/Src/usbh_audio.c ****   return status;
1926:Middlewares/ST/STM32_USB_Host_Library/Class/AUDIO/Src/usbh_audio.c **** }
1927:Middlewares/ST/STM32_USB_Host_Library/Class/AUDIO/Src/usbh_audio.c **** 
1928:Middlewares/ST/STM32_USB_Host_Library/Class/AUDIO/Src/usbh_audio.c **** 
1929:Middlewares/ST/STM32_USB_Host_Library/Class/AUDIO/Src/usbh_audio.c **** /**
1930:Middlewares/ST/STM32_USB_Host_Library/Class/AUDIO/Src/usbh_audio.c ****   * @brief  USBH_AUDIO_SetVolume 
1931:Middlewares/ST/STM32_USB_Host_Library/Class/AUDIO/Src/usbh_audio.c ****   *         Set Volume
1932:Middlewares/ST/STM32_USB_Host_Library/Class/AUDIO/Src/usbh_audio.c ****   * @param  phost: Host handle
1933:Middlewares/ST/STM32_USB_Host_Library/Class/AUDIO/Src/usbh_audio.c ****   * @param  volume: VOLUME_UP/ VOLUME_DOWN
1934:Middlewares/ST/STM32_USB_Host_Library/Class/AUDIO/Src/usbh_audio.c ****   * @retval USBH Status
1935:Middlewares/ST/STM32_USB_Host_Library/Class/AUDIO/Src/usbh_audio.c ****   */
1936:Middlewares/ST/STM32_USB_Host_Library/Class/AUDIO/Src/usbh_audio.c **** USBH_StatusTypeDef USBH_AUDIO_SetVolume (USBH_HandleTypeDef *phost, AUDIO_VolumeCtrlTypeDef volume_
1937:Middlewares/ST/STM32_USB_Host_Library/Class/AUDIO/Src/usbh_audio.c **** {
1938:Middlewares/ST/STM32_USB_Host_Library/Class/AUDIO/Src/usbh_audio.c ****   AUDIO_HandleTypeDef *AUDIO_Handle = (AUDIO_HandleTypeDef*) phost->pActiveClass->pData;
1939:Middlewares/ST/STM32_USB_Host_Library/Class/AUDIO/Src/usbh_audio.c ****   
1940:Middlewares/ST/STM32_USB_Host_Library/Class/AUDIO/Src/usbh_audio.c ****   if((volume_ctl == VOLUME_UP) || (volume_ctl == VOLUME_DOWN))
1941:Middlewares/ST/STM32_USB_Host_Library/Class/AUDIO/Src/usbh_audio.c ****   {
1942:Middlewares/ST/STM32_USB_Host_Library/Class/AUDIO/Src/usbh_audio.c ****     if(phost->gState == HOST_CLASS)
1943:Middlewares/ST/STM32_USB_Host_Library/Class/AUDIO/Src/usbh_audio.c ****     {
1944:Middlewares/ST/STM32_USB_Host_Library/Class/AUDIO/Src/usbh_audio.c ****       AUDIO_Handle =  (AUDIO_HandleTypeDef*) phost->pActiveClass->pData;
1945:Middlewares/ST/STM32_USB_Host_Library/Class/AUDIO/Src/usbh_audio.c ****       if(AUDIO_Handle->play_state == AUDIO_PLAYBACK_PLAY)
1946:Middlewares/ST/STM32_USB_Host_Library/Class/AUDIO/Src/usbh_audio.c ****       {
1947:Middlewares/ST/STM32_USB_Host_Library/Class/AUDIO/Src/usbh_audio.c ****         AUDIO_Handle->control_state = (volume_ctl == VOLUME_UP)? AUDIO_CONTROL_VOLUME_UP : AUDIO_CO
1948:Middlewares/ST/STM32_USB_Host_Library/Class/AUDIO/Src/usbh_audio.c ****         return USBH_OK;  
1949:Middlewares/ST/STM32_USB_Host_Library/Class/AUDIO/Src/usbh_audio.c ****       }
1950:Middlewares/ST/STM32_USB_Host_Library/Class/AUDIO/Src/usbh_audio.c ****     }
1951:Middlewares/ST/STM32_USB_Host_Library/Class/AUDIO/Src/usbh_audio.c ****   }
1952:Middlewares/ST/STM32_USB_Host_Library/Class/AUDIO/Src/usbh_audio.c ****   return USBH_FAIL;
1953:Middlewares/ST/STM32_USB_Host_Library/Class/AUDIO/Src/usbh_audio.c **** }
1954:Middlewares/ST/STM32_USB_Host_Library/Class/AUDIO/Src/usbh_audio.c **** /**
1955:Middlewares/ST/STM32_USB_Host_Library/Class/AUDIO/Src/usbh_audio.c ****   * @brief  AUDIO_SetVolume 
1956:Middlewares/ST/STM32_USB_Host_Library/Class/AUDIO/Src/usbh_audio.c ****   *         Set Volume
1957:Middlewares/ST/STM32_USB_Host_Library/Class/AUDIO/Src/usbh_audio.c ****   * @param  phost: Host handle
1958:Middlewares/ST/STM32_USB_Host_Library/Class/AUDIO/Src/usbh_audio.c ****   * @param  feature: feature Unit index
1959:Middlewares/ST/STM32_USB_Host_Library/Class/AUDIO/Src/usbh_audio.c ****   * @param  channel: channel index
1960:Middlewares/ST/STM32_USB_Host_Library/Class/AUDIO/Src/usbh_audio.c ****   * @param  volume: new volume
1961:Middlewares/ST/STM32_USB_Host_Library/Class/AUDIO/Src/usbh_audio.c ****   * @retval USBH Status
1962:Middlewares/ST/STM32_USB_Host_Library/Class/AUDIO/Src/usbh_audio.c ****   */
1963:Middlewares/ST/STM32_USB_Host_Library/Class/AUDIO/Src/usbh_audio.c **** static USBH_StatusTypeDef AUDIO_SetVolume (USBH_HandleTypeDef *phost, uint8_t feature, uint8_t chan
ARM GAS  /tmp/cc7hx4Eu.s 			page 54


1964:Middlewares/ST/STM32_USB_Host_Library/Class/AUDIO/Src/usbh_audio.c **** {
 1030              		.loc 1 1964 0
 1031              		.cfi_startproc
 1032              		@ args = 0, pretend = 0, frame = 0
 1033              		@ frame_needed = 0, uses_anonymous_args = 0
 1034              	.LVL131:
 1035 0000 10B5     		push	{r4, lr}
 1036              	.LCFI8:
 1037              		.cfi_def_cfa_offset 8
 1038              		.cfi_offset 4, -8
 1039              		.cfi_offset 14, -4
 1040 0002 82B0     		sub	sp, sp, #8
 1041              	.LCFI9:
 1042              		.cfi_def_cfa_offset 16
 1043              	.LVL132:
1965:Middlewares/ST/STM32_USB_Host_Library/Class/AUDIO/Src/usbh_audio.c ****   USBH_StatusTypeDef status = USBH_BUSY ;
1966:Middlewares/ST/STM32_USB_Host_Library/Class/AUDIO/Src/usbh_audio.c ****   AUDIO_HandleTypeDef *AUDIO_Handle; 
1967:Middlewares/ST/STM32_USB_Host_Library/Class/AUDIO/Src/usbh_audio.c **** 
1968:Middlewares/ST/STM32_USB_Host_Library/Class/AUDIO/Src/usbh_audio.c ****   
1969:Middlewares/ST/STM32_USB_Host_Library/Class/AUDIO/Src/usbh_audio.c ****   AUDIO_Handle = (AUDIO_HandleTypeDef*) phost->pActiveClass->pData;
 1044              		.loc 1 1969 0
 1045 0004 D0F84445 		ldr	r4, [r0, #1348]
 1046 0008 E469     		ldr	r4, [r4, #28]
 1047              	.LVL133:
1970:Middlewares/ST/STM32_USB_Host_Library/Class/AUDIO/Src/usbh_audio.c **** 
1971:Middlewares/ST/STM32_USB_Host_Library/Class/AUDIO/Src/usbh_audio.c ****   AUDIO_Handle->mem[0] = volume;
 1048              		.loc 1 1971 0
 1049 000a A4F89031 		strh	r3, [r4, #400]	@ movhi
1972:Middlewares/ST/STM32_USB_Host_Library/Class/AUDIO/Src/usbh_audio.c ****   
1973:Middlewares/ST/STM32_USB_Host_Library/Class/AUDIO/Src/usbh_audio.c ****   status = USBH_AC_SetCur(phost, 
 1050              		.loc 1 1973 0
 1051 000e 0223     		movs	r3, #2
 1052              	.LVL134:
 1053 0010 0193     		str	r3, [sp, #4]
 1054              	.LVL135:
 1055 0012 0092     		str	r2, [sp]
 1056 0014 0A46     		mov	r2, r1
 1057              	.LVL136:
 1058 0016 0621     		movs	r1, #6
 1059              	.LVL137:
 1060 0018 FFF7FEFF 		bl	USBH_AC_SetCur
 1061              	.LVL138:
1974:Middlewares/ST/STM32_USB_Host_Library/Class/AUDIO/Src/usbh_audio.c ****                           UAC_FEATURE_UNIT, 
1975:Middlewares/ST/STM32_USB_Host_Library/Class/AUDIO/Src/usbh_audio.c ****                           feature,
1976:Middlewares/ST/STM32_USB_Host_Library/Class/AUDIO/Src/usbh_audio.c ****                           VOLUME_CONTROL,
1977:Middlewares/ST/STM32_USB_Host_Library/Class/AUDIO/Src/usbh_audio.c ****                           channel,
1978:Middlewares/ST/STM32_USB_Host_Library/Class/AUDIO/Src/usbh_audio.c ****                           2);
1979:Middlewares/ST/STM32_USB_Host_Library/Class/AUDIO/Src/usbh_audio.c ****     
1980:Middlewares/ST/STM32_USB_Host_Library/Class/AUDIO/Src/usbh_audio.c ****   return status; 
1981:Middlewares/ST/STM32_USB_Host_Library/Class/AUDIO/Src/usbh_audio.c **** }
 1062              		.loc 1 1981 0
 1063 001c 02B0     		add	sp, sp, #8
 1064              	.LCFI10:
 1065              		.cfi_def_cfa_offset 8
 1066              		@ sp needed
 1067 001e 10BD     		pop	{r4, pc}
 1068              		.cfi_endproc
ARM GAS  /tmp/cc7hx4Eu.s 			page 55


 1069              	.LFE158:
 1071              		.section	.text.USBH_AUDIO_SetControlAttribute,"ax",%progbits
 1072              		.align	2
 1073              		.thumb
 1074              		.thumb_func
 1076              	USBH_AUDIO_SetControlAttribute:
 1077              	.LFB156:
1876:Middlewares/ST/STM32_USB_Host_Library/Class/AUDIO/Src/usbh_audio.c ****   USBH_StatusTypeDef status = USBH_BUSY ;
 1078              		.loc 1 1876 0
 1079              		.cfi_startproc
 1080              		@ args = 0, pretend = 0, frame = 0
 1081              		@ frame_needed = 0, uses_anonymous_args = 0
 1082              	.LVL139:
 1083 0000 10B5     		push	{r4, lr}
 1084              	.LCFI11:
 1085              		.cfi_def_cfa_offset 8
 1086              		.cfi_offset 4, -8
 1087              		.cfi_offset 14, -4
 1088              	.LVL140:
1881:Middlewares/ST/STM32_USB_Host_Library/Class/AUDIO/Src/usbh_audio.c ****   
 1089              		.loc 1 1881 0
 1090 0002 D0F84435 		ldr	r3, [r0, #1348]
 1091 0006 DC69     		ldr	r4, [r3, #28]
 1092              	.LVL141:
1883:Middlewares/ST/STM32_USB_Host_Library/Class/AUDIO/Src/usbh_audio.c ****   {
 1093              		.loc 1 1883 0
 1094 0008 0129     		cmp	r1, #1
 1095 000a 02D0     		beq	.L89
 1096 000c 0229     		cmp	r1, #2
 1097 000e 08D0     		beq	.L90
 1098 0010 0EE0     		b	.L88
 1099              	.L89:
1886:Middlewares/ST/STM32_USB_Host_Library/Class/AUDIO/Src/usbh_audio.c ****     break;
 1100              		.loc 1 1886 0
 1101 0012 D4F83831 		ldr	r3, [r4, #312]
 1102 0016 D4F83421 		ldr	r2, [r4, #308]
 1103 001a 1344     		add	r3, r3, r2
 1104 001c C4F83431 		str	r3, [r4, #308]
1887:Middlewares/ST/STM32_USB_Host_Library/Class/AUDIO/Src/usbh_audio.c ****     
 1105              		.loc 1 1887 0
 1106 0020 06E0     		b	.L88
 1107              	.L90:
1890:Middlewares/ST/STM32_USB_Host_Library/Class/AUDIO/Src/usbh_audio.c ****     break;
 1108              		.loc 1 1890 0
 1109 0022 D4F83821 		ldr	r2, [r4, #312]
 1110 0026 D4F83431 		ldr	r3, [r4, #308]
 1111 002a 9B1A     		subs	r3, r3, r2
 1112 002c C4F83431 		str	r3, [r4, #308]
 1113              	.L88:
1895:Middlewares/ST/STM32_USB_Host_Library/Class/AUDIO/Src/usbh_audio.c ****   {
 1114              		.loc 1 1895 0
 1115 0030 D4F83421 		ldr	r2, [r4, #308]
 1116 0034 D4F83031 		ldr	r3, [r4, #304]
 1117 0038 9A42     		cmp	r2, r3
 1118 003a 01D9     		bls	.L91
1897:Middlewares/ST/STM32_USB_Host_Library/Class/AUDIO/Src/usbh_audio.c ****   }
 1119              		.loc 1 1897 0
ARM GAS  /tmp/cc7hx4Eu.s 			page 56


 1120 003c C4F83431 		str	r3, [r4, #308]
 1121              	.L91:
1900:Middlewares/ST/STM32_USB_Host_Library/Class/AUDIO/Src/usbh_audio.c ****   {
 1122              		.loc 1 1900 0
 1123 0040 D4F83421 		ldr	r2, [r4, #308]
 1124 0044 D4F82C31 		ldr	r3, [r4, #300]
 1125 0048 9A42     		cmp	r2, r3
 1126 004a 01D2     		bcs	.L92
1902:Middlewares/ST/STM32_USB_Host_Library/Class/AUDIO/Src/usbh_audio.c ****   }
 1127              		.loc 1 1902 0
 1128 004c C4F83431 		str	r3, [r4, #308]
 1129              	.L92:
1905:Middlewares/ST/STM32_USB_Host_Library/Class/AUDIO/Src/usbh_audio.c ****                                  AUDIO_Handle->temp_feature, 
 1130              		.loc 1 1905 0
 1131 0050 B4F83431 		ldrh	r3, [r4, #308]
 1132 0054 94F8A121 		ldrb	r2, [r4, #417]	@ zero_extendqisi2
 1133 0058 94F8A011 		ldrb	r1, [r4, #416]	@ zero_extendqisi2
 1134              	.LVL142:
 1135 005c FFF7FEFF 		bl	AUDIO_SetVolume
 1136              	.LVL143:
 1137 0060 0128     		cmp	r0, #1
 1138 0062 14D0     		beq	.L96
1911:Middlewares/ST/STM32_USB_Host_Library/Class/AUDIO/Src/usbh_audio.c ****     {
 1139              		.loc 1 1911 0
 1140 0064 94F8A131 		ldrb	r3, [r4, #417]	@ zero_extendqisi2
 1141 0068 012B     		cmp	r3, #1
 1142 006a 09D1     		bne	.L94
1913:Middlewares/ST/STM32_USB_Host_Library/Class/AUDIO/Src/usbh_audio.c ****       AUDIO_Handle->temp_channels = AUDIO_Handle->headphone.asociated_channels;
 1143              		.loc 1 1913 0
 1144 006c 94F80731 		ldrb	r3, [r4, #263]	@ zero_extendqisi2
 1145 0070 84F8A031 		strb	r3, [r4, #416]
1914:Middlewares/ST/STM32_USB_Host_Library/Class/AUDIO/Src/usbh_audio.c ****       status = USBH_OK;
 1146              		.loc 1 1914 0
 1147 0074 94F80931 		ldrb	r3, [r4, #265]	@ zero_extendqisi2
 1148 0078 84F8A131 		strb	r3, [r4, #417]
 1149              	.LVL144:
1915:Middlewares/ST/STM32_USB_Host_Library/Class/AUDIO/Src/usbh_audio.c ****     }
 1150              		.loc 1 1915 0
 1151 007c 0020     		movs	r0, #0
 1152 007e 03E0     		b	.L95
 1153              	.LVL145:
 1154              	.L94:
1919:Middlewares/ST/STM32_USB_Host_Library/Class/AUDIO/Src/usbh_audio.c ****     }
 1155              		.loc 1 1919 0
 1156 0080 013B     		subs	r3, r3, #1
 1157 0082 84F8A131 		strb	r3, [r4, #417]
1877:Middlewares/ST/STM32_USB_Host_Library/Class/AUDIO/Src/usbh_audio.c ****   AUDIO_HandleTypeDef *AUDIO_Handle; 
 1158              		.loc 1 1877 0
 1159 0086 0120     		movs	r0, #1
 1160              	.LVL146:
 1161              	.L95:
1921:Middlewares/ST/STM32_USB_Host_Library/Class/AUDIO/Src/usbh_audio.c ****   }
 1162              		.loc 1 1921 0
 1163 0088 0623     		movs	r3, #6
 1164 008a 6370     		strb	r3, [r4, #1]
 1165 008c 10BD     		pop	{r4, pc}
 1166              	.LVL147:
ARM GAS  /tmp/cc7hx4Eu.s 			page 57


 1167              	.L96:
1877:Middlewares/ST/STM32_USB_Host_Library/Class/AUDIO/Src/usbh_audio.c ****   AUDIO_HandleTypeDef *AUDIO_Handle; 
 1168              		.loc 1 1877 0
 1169 008e 0120     		movs	r0, #1
 1170              	.LVL148:
1926:Middlewares/ST/STM32_USB_Host_Library/Class/AUDIO/Src/usbh_audio.c **** 
 1171              		.loc 1 1926 0
 1172 0090 10BD     		pop	{r4, pc}
 1173              		.cfi_endproc
 1174              	.LFE156:
 1176 0092 00BF     		.section	.text.USBH_AC_GetCur,"ax",%progbits
 1177              		.align	2
 1178              		.thumb
 1179              		.thumb_func
 1181              	USBH_AC_GetCur:
 1182              	.LFB140:
1166:Middlewares/ST/STM32_USB_Host_Library/Class/AUDIO/Src/usbh_audio.c ****   uint16_t wValue = 0, wIndex = 0,wLength = 0;
 1183              		.loc 1 1166 0
 1184              		.cfi_startproc
 1185              		@ args = 8, pretend = 0, frame = 0
 1186              		@ frame_needed = 0, uses_anonymous_args = 0
 1187              	.LVL149:
 1188 0000 38B5     		push	{r3, r4, r5, lr}
 1189              	.LCFI12:
 1190              		.cfi_def_cfa_offset 16
 1191              		.cfi_offset 3, -16
 1192              		.cfi_offset 4, -12
 1193              		.cfi_offset 5, -8
 1194              		.cfi_offset 14, -4
 1195 0002 BDF81440 		ldrh	r4, [sp, #20]
 1196              	.LVL150:
1170:Middlewares/ST/STM32_USB_Host_Library/Class/AUDIO/Src/usbh_audio.c ****   
 1197              		.loc 1 1170 0
 1198 0006 D0F84455 		ldr	r5, [r0, #1348]
 1199 000a ED69     		ldr	r5, [r5, #28]
 1200              	.LVL151:
1172:Middlewares/ST/STM32_USB_Host_Library/Class/AUDIO/Src/usbh_audio.c ****   {
 1201              		.loc 1 1172 0
 1202 000c 0329     		cmp	r1, #3
 1203 000e 18D0     		beq	.L100
 1204 0010 0629     		cmp	r1, #6
 1205 0012 0BD0     		beq	.L101
 1206 0014 0229     		cmp	r1, #2
 1207 0016 1CD1     		bne	.L104
1175:Middlewares/ST/STM32_USB_Host_Library/Class/AUDIO/Src/usbh_audio.c ****     InterfaceNum = 0; /*Always zero Control Interface */
 1208              		.loc 1 1175 0
 1209 0018 2B6F     		ldr	r3, [r5, #112]
 1210              	.LVL152:
 1211 001a DA78     		ldrb	r2, [r3, #3]	@ zero_extendqisi2
 1212              	.LVL153:
1177:Middlewares/ST/STM32_USB_Host_Library/Class/AUDIO/Src/usbh_audio.c ****     wValue = (COPY_PROTECT_CONTROL << 8 ) ;
 1213              		.loc 1 1177 0
 1214 001c 1202     		lsls	r2, r2, #8
 1215              	.LVL154:
1179:Middlewares/ST/STM32_USB_Host_Library/Class/AUDIO/Src/usbh_audio.c ****     
 1216              		.loc 1 1179 0
 1217 001e 0023     		movs	r3, #0
ARM GAS  /tmp/cc7hx4Eu.s 			page 58


 1218              	.LVL155:
 1219 0020 A5F89031 		strh	r3, [r5, #400]	@ movhi
 1220              	.LVL156:
1181:Middlewares/ST/STM32_USB_Host_Library/Class/AUDIO/Src/usbh_audio.c ****     break;
 1221              		.loc 1 1181 0
 1222 0024 0124     		movs	r4, #1
1178:Middlewares/ST/STM32_USB_Host_Library/Class/AUDIO/Src/usbh_audio.c ****     AUDIO_Handle->mem[0] = 0x00;
 1223              		.loc 1 1178 0
 1224 0026 4FF48073 		mov	r3, #256
1182:Middlewares/ST/STM32_USB_Host_Library/Class/AUDIO/Src/usbh_audio.c ****   case UAC_FEATURE_UNIT:
 1225              		.loc 1 1182 0
 1226 002a 15E0     		b	.L99
 1227              	.LVL157:
 1228              	.L101:
1184:Middlewares/ST/STM32_USB_Host_Library/Class/AUDIO/Src/usbh_audio.c ****     InterfaceNum = 0; /*Always zero Control Interface */
 1229              		.loc 1 1184 0
 1230 002c 2232     		adds	r2, r2, #34
 1231              	.LVL158:
 1232 002e 05EB8202 		add	r2, r5, r2, lsl #2
 1233 0032 9268     		ldr	r2, [r2, #8]
 1234 0034 D278     		ldrb	r2, [r2, #3]	@ zero_extendqisi2
 1235              	.LVL159:
1186:Middlewares/ST/STM32_USB_Host_Library/Class/AUDIO/Src/usbh_audio.c ****     /*holds the CS(control selector ) and CN (channel number)*/
 1236              		.loc 1 1186 0
 1237 0036 1202     		lsls	r2, r2, #8
 1238              	.LVL160:
1188:Middlewares/ST/STM32_USB_Host_Library/Class/AUDIO/Src/usbh_audio.c ****     wLength = length;
 1239              		.loc 1 1188 0
 1240 0038 9DF81010 		ldrb	r1, [sp, #16]	@ zero_extendqisi2
 1241              	.LVL161:
 1242 003c 41EA0323 		orr	r3, r1, r3, lsl #8
 1243              	.LVL162:
1190:Middlewares/ST/STM32_USB_Host_Library/Class/AUDIO/Src/usbh_audio.c ****     
 1244              		.loc 1 1190 0
 1245 0040 0AE0     		b	.L99
 1246              	.LVL163:
 1247              	.L100:
1193:Middlewares/ST/STM32_USB_Host_Library/Class/AUDIO/Src/usbh_audio.c ****     InterfaceNum = 0; /*Always zero Control Interface */
 1248              		.loc 1 1193 0
 1249 0042 D5F88030 		ldr	r3, [r5, #128]
 1250              	.LVL164:
 1251 0046 DA78     		ldrb	r2, [r3, #3]	@ zero_extendqisi2
 1252              	.LVL165:
1195:Middlewares/ST/STM32_USB_Host_Library/Class/AUDIO/Src/usbh_audio.c ****     wValue = (COPY_PROTECT_CONTROL << 8 ) ; 
 1253              		.loc 1 1195 0
 1254 0048 1202     		lsls	r2, r2, #8
 1255              	.LVL166:
1197:Middlewares/ST/STM32_USB_Host_Library/Class/AUDIO/Src/usbh_audio.c ****     break;
 1256              		.loc 1 1197 0
 1257 004a 0124     		movs	r4, #1
1196:Middlewares/ST/STM32_USB_Host_Library/Class/AUDIO/Src/usbh_audio.c ****     wLength = 1; 
 1258              		.loc 1 1196 0
 1259 004c 4FF48073 		mov	r3, #256
 1260              	.LVL167:
1198:Middlewares/ST/STM32_USB_Host_Library/Class/AUDIO/Src/usbh_audio.c ****   }
 1261              		.loc 1 1198 0
 1262 0050 02E0     		b	.L99
ARM GAS  /tmp/cc7hx4Eu.s 			page 59


 1263              	.LVL168:
 1264              	.L104:
1167:Middlewares/ST/STM32_USB_Host_Library/Class/AUDIO/Src/usbh_audio.c ****   uint8_t UnitID = 0, InterfaceNum = 0;
 1265              		.loc 1 1167 0
 1266 0052 0024     		movs	r4, #0
 1267 0054 2246     		mov	r2, r4
 1268              	.LVL169:
 1269 0056 2346     		mov	r3, r4
 1270              	.LVL170:
 1271              	.L99:
1201:Middlewares/ST/STM32_USB_Host_Library/Class/AUDIO/Src/usbh_audio.c ****     USB_REQ_TYPE_CLASS;
 1272              		.loc 1 1201 0
 1273 0058 A121     		movs	r1, #161
 1274 005a 0174     		strb	r1, [r0, #16]
1204:Middlewares/ST/STM32_USB_Host_Library/Class/AUDIO/Src/usbh_audio.c ****   phost->Control.setup.b.wValue.w = wValue;
 1275              		.loc 1 1204 0
 1276 005c 8121     		movs	r1, #129
 1277 005e 4174     		strb	r1, [r0, #17]
1205:Middlewares/ST/STM32_USB_Host_Library/Class/AUDIO/Src/usbh_audio.c ****   phost->Control.setup.b.wIndex.w = wIndex;
 1278              		.loc 1 1205 0
 1279 0060 4382     		strh	r3, [r0, #18]	@ movhi
1206:Middlewares/ST/STM32_USB_Host_Library/Class/AUDIO/Src/usbh_audio.c ****   phost->Control.setup.b.wLength.w = wLength; 
 1280              		.loc 1 1206 0
 1281 0062 8282     		strh	r2, [r0, #20]	@ movhi
1207:Middlewares/ST/STM32_USB_Host_Library/Class/AUDIO/Src/usbh_audio.c ****   
 1282              		.loc 1 1207 0
 1283 0064 C482     		strh	r4, [r0, #22]	@ movhi
1209:Middlewares/ST/STM32_USB_Host_Library/Class/AUDIO/Src/usbh_audio.c ****   
 1284              		.loc 1 1209 0
 1285 0066 2246     		mov	r2, r4
 1286              	.LVL171:
 1287 0068 05F5C871 		add	r1, r5, #400
 1288 006c FFF7FEFF 		bl	USBH_CtlReq
 1289              	.LVL172:
1211:Middlewares/ST/STM32_USB_Host_Library/Class/AUDIO/Src/usbh_audio.c **** 
 1290              		.loc 1 1211 0
 1291 0070 38BD     		pop	{r3, r4, r5, pc}
 1292              		.cfi_endproc
 1293              	.LFE140:
 1295 0072 00BF     		.section	.text.USBH_AC_GetMin,"ax",%progbits
 1296              		.align	2
 1297              		.thumb
 1298              		.thumb_func
 1300              	USBH_AC_GetMin:
 1301              	.LFB143:
1358:Middlewares/ST/STM32_USB_Host_Library/Class/AUDIO/Src/usbh_audio.c ****   uint16_t wValue = 0, wIndex = 0, wLength = 0;
 1302              		.loc 1 1358 0
 1303              		.cfi_startproc
 1304              		@ args = 8, pretend = 0, frame = 0
 1305              		@ frame_needed = 0, uses_anonymous_args = 0
 1306              	.LVL173:
 1307 0000 38B5     		push	{r3, r4, r5, lr}
 1308              	.LCFI13:
 1309              		.cfi_def_cfa_offset 16
 1310              		.cfi_offset 3, -16
 1311              		.cfi_offset 4, -12
 1312              		.cfi_offset 5, -8
ARM GAS  /tmp/cc7hx4Eu.s 			page 60


 1313              		.cfi_offset 14, -4
 1314 0002 BDF81440 		ldrh	r4, [sp, #20]
 1315              	.LVL174:
1362:Middlewares/ST/STM32_USB_Host_Library/Class/AUDIO/Src/usbh_audio.c ****   
 1316              		.loc 1 1362 0
 1317 0006 D0F84455 		ldr	r5, [r0, #1348]
 1318 000a ED69     		ldr	r5, [r5, #28]
 1319              	.LVL175:
1364:Middlewares/ST/STM32_USB_Host_Library/Class/AUDIO/Src/usbh_audio.c ****   {
 1320              		.loc 1 1364 0
 1321 000c 0329     		cmp	r1, #3
 1322 000e 18D0     		beq	.L108
 1323 0010 0629     		cmp	r1, #6
 1324 0012 0BD0     		beq	.L109
 1325 0014 0229     		cmp	r1, #2
 1326 0016 1CD1     		bne	.L112
1367:Middlewares/ST/STM32_USB_Host_Library/Class/AUDIO/Src/usbh_audio.c ****     InterfaceNum = 0; /*Always zero Control Interface */
 1327              		.loc 1 1367 0
 1328 0018 2B6F     		ldr	r3, [r5, #112]
 1329              	.LVL176:
 1330 001a DA78     		ldrb	r2, [r3, #3]	@ zero_extendqisi2
 1331              	.LVL177:
1369:Middlewares/ST/STM32_USB_Host_Library/Class/AUDIO/Src/usbh_audio.c ****     wValue = (COPY_PROTECT_CONTROL << 8 ) ;
 1332              		.loc 1 1369 0
 1333 001c 1202     		lsls	r2, r2, #8
 1334              	.LVL178:
1371:Middlewares/ST/STM32_USB_Host_Library/Class/AUDIO/Src/usbh_audio.c ****     
 1335              		.loc 1 1371 0
 1336 001e 0023     		movs	r3, #0
 1337              	.LVL179:
 1338 0020 A5F89031 		strh	r3, [r5, #400]	@ movhi
 1339              	.LVL180:
1373:Middlewares/ST/STM32_USB_Host_Library/Class/AUDIO/Src/usbh_audio.c ****     break;
 1340              		.loc 1 1373 0
 1341 0024 0124     		movs	r4, #1
1370:Middlewares/ST/STM32_USB_Host_Library/Class/AUDIO/Src/usbh_audio.c ****     AUDIO_Handle->mem[0] = 0x00;
 1342              		.loc 1 1370 0
 1343 0026 4FF48073 		mov	r3, #256
1374:Middlewares/ST/STM32_USB_Host_Library/Class/AUDIO/Src/usbh_audio.c ****   case UAC_FEATURE_UNIT:
 1344              		.loc 1 1374 0
 1345 002a 15E0     		b	.L107
 1346              	.LVL181:
 1347              	.L109:
1376:Middlewares/ST/STM32_USB_Host_Library/Class/AUDIO/Src/usbh_audio.c ****     InterfaceNum = 0; /*Always zero Control Interface */
 1348              		.loc 1 1376 0
 1349 002c 2232     		adds	r2, r2, #34
 1350              	.LVL182:
 1351 002e 05EB8202 		add	r2, r5, r2, lsl #2
 1352 0032 9268     		ldr	r2, [r2, #8]
 1353 0034 D278     		ldrb	r2, [r2, #3]	@ zero_extendqisi2
 1354              	.LVL183:
1378:Middlewares/ST/STM32_USB_Host_Library/Class/AUDIO/Src/usbh_audio.c ****     /*holds the CS(control selector ) and CN (channel number)*/
 1355              		.loc 1 1378 0
 1356 0036 1202     		lsls	r2, r2, #8
 1357              	.LVL184:
1380:Middlewares/ST/STM32_USB_Host_Library/Class/AUDIO/Src/usbh_audio.c ****     wLength = length;
 1358              		.loc 1 1380 0
ARM GAS  /tmp/cc7hx4Eu.s 			page 61


 1359 0038 9DF81010 		ldrb	r1, [sp, #16]	@ zero_extendqisi2
 1360              	.LVL185:
 1361 003c 41EA0323 		orr	r3, r1, r3, lsl #8
 1362              	.LVL186:
1382:Middlewares/ST/STM32_USB_Host_Library/Class/AUDIO/Src/usbh_audio.c ****     
 1363              		.loc 1 1382 0
 1364 0040 0AE0     		b	.L107
 1365              	.LVL187:
 1366              	.L108:
1385:Middlewares/ST/STM32_USB_Host_Library/Class/AUDIO/Src/usbh_audio.c ****     InterfaceNum = 0; /*Always zero Control Interface */
 1367              		.loc 1 1385 0
 1368 0042 D5F88030 		ldr	r3, [r5, #128]
 1369              	.LVL188:
 1370 0046 DA78     		ldrb	r2, [r3, #3]	@ zero_extendqisi2
 1371              	.LVL189:
1387:Middlewares/ST/STM32_USB_Host_Library/Class/AUDIO/Src/usbh_audio.c ****     wValue = (COPY_PROTECT_CONTROL << 8 ) ; 
 1372              		.loc 1 1387 0
 1373 0048 1202     		lsls	r2, r2, #8
 1374              	.LVL190:
1389:Middlewares/ST/STM32_USB_Host_Library/Class/AUDIO/Src/usbh_audio.c ****     break;
 1375              		.loc 1 1389 0
 1376 004a 0124     		movs	r4, #1
1388:Middlewares/ST/STM32_USB_Host_Library/Class/AUDIO/Src/usbh_audio.c ****     wLength = 1; 
 1377              		.loc 1 1388 0
 1378 004c 4FF48073 		mov	r3, #256
 1379              	.LVL191:
1390:Middlewares/ST/STM32_USB_Host_Library/Class/AUDIO/Src/usbh_audio.c ****   }
 1380              		.loc 1 1390 0
 1381 0050 02E0     		b	.L107
 1382              	.LVL192:
 1383              	.L112:
1359:Middlewares/ST/STM32_USB_Host_Library/Class/AUDIO/Src/usbh_audio.c ****   uint8_t UnitID = 0, InterfaceNum = 0;
 1384              		.loc 1 1359 0
 1385 0052 0024     		movs	r4, #0
 1386 0054 2246     		mov	r2, r4
 1387              	.LVL193:
 1388 0056 2346     		mov	r3, r4
 1389              	.LVL194:
 1390              	.L107:
1393:Middlewares/ST/STM32_USB_Host_Library/Class/AUDIO/Src/usbh_audio.c ****     USB_REQ_TYPE_CLASS;
 1391              		.loc 1 1393 0
 1392 0058 A121     		movs	r1, #161
 1393 005a 0174     		strb	r1, [r0, #16]
1396:Middlewares/ST/STM32_USB_Host_Library/Class/AUDIO/Src/usbh_audio.c ****   phost->Control.setup.b.wValue.w = wValue;
 1394              		.loc 1 1396 0
 1395 005c 8221     		movs	r1, #130
 1396 005e 4174     		strb	r1, [r0, #17]
1397:Middlewares/ST/STM32_USB_Host_Library/Class/AUDIO/Src/usbh_audio.c ****   phost->Control.setup.b.wIndex.w = wIndex;
 1397              		.loc 1 1397 0
 1398 0060 4382     		strh	r3, [r0, #18]	@ movhi
1398:Middlewares/ST/STM32_USB_Host_Library/Class/AUDIO/Src/usbh_audio.c ****   phost->Control.setup.b.wLength.w = wLength; 
 1399              		.loc 1 1398 0
 1400 0062 8282     		strh	r2, [r0, #20]	@ movhi
1399:Middlewares/ST/STM32_USB_Host_Library/Class/AUDIO/Src/usbh_audio.c ****   
 1401              		.loc 1 1399 0
 1402 0064 C482     		strh	r4, [r0, #22]	@ movhi
1401:Middlewares/ST/STM32_USB_Host_Library/Class/AUDIO/Src/usbh_audio.c ****   
ARM GAS  /tmp/cc7hx4Eu.s 			page 62


 1403              		.loc 1 1401 0
 1404 0066 2246     		mov	r2, r4
 1405              	.LVL195:
 1406 0068 05F5C871 		add	r1, r5, #400
 1407 006c FFF7FEFF 		bl	USBH_CtlReq
 1408              	.LVL196:
1403:Middlewares/ST/STM32_USB_Host_Library/Class/AUDIO/Src/usbh_audio.c **** 
 1409              		.loc 1 1403 0
 1410 0070 38BD     		pop	{r3, r4, r5, pc}
 1411              		.cfi_endproc
 1412              	.LFE143:
 1414 0072 00BF     		.section	.text.USBH_AC_GetMax,"ax",%progbits
 1415              		.align	2
 1416              		.thumb
 1417              		.thumb_func
 1419              	USBH_AC_GetMax:
 1420              	.LFB141:
1230:Middlewares/ST/STM32_USB_Host_Library/Class/AUDIO/Src/usbh_audio.c ****   uint16_t wValue = 0, wIndex = 0, wLength = 0;
 1421              		.loc 1 1230 0
 1422              		.cfi_startproc
 1423              		@ args = 8, pretend = 0, frame = 0
 1424              		@ frame_needed = 0, uses_anonymous_args = 0
 1425              	.LVL197:
 1426 0000 38B5     		push	{r3, r4, r5, lr}
 1427              	.LCFI14:
 1428              		.cfi_def_cfa_offset 16
 1429              		.cfi_offset 3, -16
 1430              		.cfi_offset 4, -12
 1431              		.cfi_offset 5, -8
 1432              		.cfi_offset 14, -4
 1433 0002 BDF81440 		ldrh	r4, [sp, #20]
 1434              	.LVL198:
1234:Middlewares/ST/STM32_USB_Host_Library/Class/AUDIO/Src/usbh_audio.c ****   
 1435              		.loc 1 1234 0
 1436 0006 D0F84455 		ldr	r5, [r0, #1348]
 1437 000a ED69     		ldr	r5, [r5, #28]
 1438              	.LVL199:
1236:Middlewares/ST/STM32_USB_Host_Library/Class/AUDIO/Src/usbh_audio.c ****   {
 1439              		.loc 1 1236 0
 1440 000c 0329     		cmp	r1, #3
 1441 000e 18D0     		beq	.L116
 1442 0010 0629     		cmp	r1, #6
 1443 0012 0BD0     		beq	.L117
 1444 0014 0229     		cmp	r1, #2
 1445 0016 1CD1     		bne	.L120
1239:Middlewares/ST/STM32_USB_Host_Library/Class/AUDIO/Src/usbh_audio.c ****     InterfaceNum = 0; /*Always zero Control Interface */
 1446              		.loc 1 1239 0
 1447 0018 2B6F     		ldr	r3, [r5, #112]
 1448              	.LVL200:
 1449 001a DA78     		ldrb	r2, [r3, #3]	@ zero_extendqisi2
 1450              	.LVL201:
1241:Middlewares/ST/STM32_USB_Host_Library/Class/AUDIO/Src/usbh_audio.c ****     wValue = (COPY_PROTECT_CONTROL << 8 ) ;
 1451              		.loc 1 1241 0
 1452 001c 1202     		lsls	r2, r2, #8
 1453              	.LVL202:
1243:Middlewares/ST/STM32_USB_Host_Library/Class/AUDIO/Src/usbh_audio.c ****     
 1454              		.loc 1 1243 0
ARM GAS  /tmp/cc7hx4Eu.s 			page 63


 1455 001e 0023     		movs	r3, #0
 1456              	.LVL203:
 1457 0020 A5F89031 		strh	r3, [r5, #400]	@ movhi
 1458              	.LVL204:
1245:Middlewares/ST/STM32_USB_Host_Library/Class/AUDIO/Src/usbh_audio.c ****     break;
 1459              		.loc 1 1245 0
 1460 0024 0124     		movs	r4, #1
1242:Middlewares/ST/STM32_USB_Host_Library/Class/AUDIO/Src/usbh_audio.c ****     AUDIO_Handle->mem[0] = 0x00;
 1461              		.loc 1 1242 0
 1462 0026 4FF48073 		mov	r3, #256
1246:Middlewares/ST/STM32_USB_Host_Library/Class/AUDIO/Src/usbh_audio.c ****   case UAC_FEATURE_UNIT:
 1463              		.loc 1 1246 0
 1464 002a 15E0     		b	.L115
 1465              	.LVL205:
 1466              	.L117:
1248:Middlewares/ST/STM32_USB_Host_Library/Class/AUDIO/Src/usbh_audio.c ****     InterfaceNum = 0; /*Always zero Control Interface */
 1467              		.loc 1 1248 0
 1468 002c 2232     		adds	r2, r2, #34
 1469              	.LVL206:
 1470 002e 05EB8202 		add	r2, r5, r2, lsl #2
 1471 0032 9268     		ldr	r2, [r2, #8]
 1472 0034 D278     		ldrb	r2, [r2, #3]	@ zero_extendqisi2
 1473              	.LVL207:
1250:Middlewares/ST/STM32_USB_Host_Library/Class/AUDIO/Src/usbh_audio.c ****     /*holds the CS(control selector ) and CN (channel number)*/
 1474              		.loc 1 1250 0
 1475 0036 1202     		lsls	r2, r2, #8
 1476              	.LVL208:
1252:Middlewares/ST/STM32_USB_Host_Library/Class/AUDIO/Src/usbh_audio.c ****     wLength = length;
 1477              		.loc 1 1252 0
 1478 0038 9DF81010 		ldrb	r1, [sp, #16]	@ zero_extendqisi2
 1479              	.LVL209:
 1480 003c 41EA0323 		orr	r3, r1, r3, lsl #8
 1481              	.LVL210:
1254:Middlewares/ST/STM32_USB_Host_Library/Class/AUDIO/Src/usbh_audio.c ****     
 1482              		.loc 1 1254 0
 1483 0040 0AE0     		b	.L115
 1484              	.LVL211:
 1485              	.L116:
1257:Middlewares/ST/STM32_USB_Host_Library/Class/AUDIO/Src/usbh_audio.c ****     InterfaceNum = 0; /*Always zero Control Interface */
 1486              		.loc 1 1257 0
 1487 0042 D5F88030 		ldr	r3, [r5, #128]
 1488              	.LVL212:
 1489 0046 DA78     		ldrb	r2, [r3, #3]	@ zero_extendqisi2
 1490              	.LVL213:
1259:Middlewares/ST/STM32_USB_Host_Library/Class/AUDIO/Src/usbh_audio.c ****     wValue = (COPY_PROTECT_CONTROL << 8 ) ; 
 1491              		.loc 1 1259 0
 1492 0048 1202     		lsls	r2, r2, #8
 1493              	.LVL214:
1261:Middlewares/ST/STM32_USB_Host_Library/Class/AUDIO/Src/usbh_audio.c ****     break;
 1494              		.loc 1 1261 0
 1495 004a 0124     		movs	r4, #1
1260:Middlewares/ST/STM32_USB_Host_Library/Class/AUDIO/Src/usbh_audio.c ****     wLength = 1; 
 1496              		.loc 1 1260 0
 1497 004c 4FF48073 		mov	r3, #256
 1498              	.LVL215:
1262:Middlewares/ST/STM32_USB_Host_Library/Class/AUDIO/Src/usbh_audio.c ****   }
 1499              		.loc 1 1262 0
ARM GAS  /tmp/cc7hx4Eu.s 			page 64


 1500 0050 02E0     		b	.L115
 1501              	.LVL216:
 1502              	.L120:
1231:Middlewares/ST/STM32_USB_Host_Library/Class/AUDIO/Src/usbh_audio.c ****   uint8_t UnitID = 0, InterfaceNum = 0;
 1503              		.loc 1 1231 0
 1504 0052 0024     		movs	r4, #0
 1505 0054 2246     		mov	r2, r4
 1506              	.LVL217:
 1507 0056 2346     		mov	r3, r4
 1508              	.LVL218:
 1509              	.L115:
1265:Middlewares/ST/STM32_USB_Host_Library/Class/AUDIO/Src/usbh_audio.c ****     USB_REQ_TYPE_CLASS;
 1510              		.loc 1 1265 0
 1511 0058 A121     		movs	r1, #161
 1512 005a 0174     		strb	r1, [r0, #16]
1268:Middlewares/ST/STM32_USB_Host_Library/Class/AUDIO/Src/usbh_audio.c ****   phost->Control.setup.b.wValue.w = wValue;
 1513              		.loc 1 1268 0
 1514 005c 8321     		movs	r1, #131
 1515 005e 4174     		strb	r1, [r0, #17]
1269:Middlewares/ST/STM32_USB_Host_Library/Class/AUDIO/Src/usbh_audio.c ****   phost->Control.setup.b.wIndex.w = wIndex;
 1516              		.loc 1 1269 0
 1517 0060 4382     		strh	r3, [r0, #18]	@ movhi
1270:Middlewares/ST/STM32_USB_Host_Library/Class/AUDIO/Src/usbh_audio.c ****   phost->Control.setup.b.wLength.w = wLength; 
 1518              		.loc 1 1270 0
 1519 0062 8282     		strh	r2, [r0, #20]	@ movhi
1271:Middlewares/ST/STM32_USB_Host_Library/Class/AUDIO/Src/usbh_audio.c ****   
 1520              		.loc 1 1271 0
 1521 0064 C482     		strh	r4, [r0, #22]	@ movhi
1273:Middlewares/ST/STM32_USB_Host_Library/Class/AUDIO/Src/usbh_audio.c ****   
 1522              		.loc 1 1273 0
 1523 0066 2246     		mov	r2, r4
 1524              	.LVL219:
 1525 0068 05F5C871 		add	r1, r5, #400
 1526 006c FFF7FEFF 		bl	USBH_CtlReq
 1527              	.LVL220:
1275:Middlewares/ST/STM32_USB_Host_Library/Class/AUDIO/Src/usbh_audio.c **** 
 1528              		.loc 1 1275 0
 1529 0070 38BD     		pop	{r3, r4, r5, pc}
 1530              		.cfi_endproc
 1531              	.LFE141:
 1533 0072 00BF     		.section	.text.USBH_AC_GetRes,"ax",%progbits
 1534              		.align	2
 1535              		.thumb
 1536              		.thumb_func
 1538              	USBH_AC_GetRes:
 1539              	.LFB142:
1295:Middlewares/ST/STM32_USB_Host_Library/Class/AUDIO/Src/usbh_audio.c ****   uint16_t wValue = 0, wIndex = 0, wLength = 0;
 1540              		.loc 1 1295 0
 1541              		.cfi_startproc
 1542              		@ args = 8, pretend = 0, frame = 0
 1543              		@ frame_needed = 0, uses_anonymous_args = 0
 1544              	.LVL221:
 1545 0000 38B5     		push	{r3, r4, r5, lr}
 1546              	.LCFI15:
 1547              		.cfi_def_cfa_offset 16
 1548              		.cfi_offset 3, -16
 1549              		.cfi_offset 4, -12
ARM GAS  /tmp/cc7hx4Eu.s 			page 65


 1550              		.cfi_offset 5, -8
 1551              		.cfi_offset 14, -4
 1552 0002 BDF81440 		ldrh	r4, [sp, #20]
 1553              	.LVL222:
1299:Middlewares/ST/STM32_USB_Host_Library/Class/AUDIO/Src/usbh_audio.c ****   
 1554              		.loc 1 1299 0
 1555 0006 D0F84455 		ldr	r5, [r0, #1348]
 1556 000a ED69     		ldr	r5, [r5, #28]
 1557              	.LVL223:
1301:Middlewares/ST/STM32_USB_Host_Library/Class/AUDIO/Src/usbh_audio.c ****   {
 1558              		.loc 1 1301 0
 1559 000c 0329     		cmp	r1, #3
 1560 000e 18D0     		beq	.L124
 1561 0010 0629     		cmp	r1, #6
 1562 0012 0BD0     		beq	.L125
 1563 0014 0229     		cmp	r1, #2
 1564 0016 1CD1     		bne	.L128
1304:Middlewares/ST/STM32_USB_Host_Library/Class/AUDIO/Src/usbh_audio.c ****     InterfaceNum = 0; /*Always zero Control Interface */
 1565              		.loc 1 1304 0
 1566 0018 2B6F     		ldr	r3, [r5, #112]
 1567              	.LVL224:
 1568 001a DA78     		ldrb	r2, [r3, #3]	@ zero_extendqisi2
 1569              	.LVL225:
1306:Middlewares/ST/STM32_USB_Host_Library/Class/AUDIO/Src/usbh_audio.c ****     wValue = (COPY_PROTECT_CONTROL << 8 ) ;
 1570              		.loc 1 1306 0
 1571 001c 1202     		lsls	r2, r2, #8
 1572              	.LVL226:
1308:Middlewares/ST/STM32_USB_Host_Library/Class/AUDIO/Src/usbh_audio.c ****     
 1573              		.loc 1 1308 0
 1574 001e 0023     		movs	r3, #0
 1575              	.LVL227:
 1576 0020 A5F89031 		strh	r3, [r5, #400]	@ movhi
 1577              	.LVL228:
1310:Middlewares/ST/STM32_USB_Host_Library/Class/AUDIO/Src/usbh_audio.c ****     break;
 1578              		.loc 1 1310 0
 1579 0024 0124     		movs	r4, #1
1307:Middlewares/ST/STM32_USB_Host_Library/Class/AUDIO/Src/usbh_audio.c ****     AUDIO_Handle->mem[0] = 0x00;
 1580              		.loc 1 1307 0
 1581 0026 4FF48073 		mov	r3, #256
1311:Middlewares/ST/STM32_USB_Host_Library/Class/AUDIO/Src/usbh_audio.c ****   case UAC_FEATURE_UNIT:
 1582              		.loc 1 1311 0
 1583 002a 15E0     		b	.L123
 1584              	.LVL229:
 1585              	.L125:
1313:Middlewares/ST/STM32_USB_Host_Library/Class/AUDIO/Src/usbh_audio.c ****     InterfaceNum = 0; /*Always zero Control Interface */
 1586              		.loc 1 1313 0
 1587 002c 2232     		adds	r2, r2, #34
 1588              	.LVL230:
 1589 002e 05EB8202 		add	r2, r5, r2, lsl #2
 1590 0032 9268     		ldr	r2, [r2, #8]
 1591 0034 D278     		ldrb	r2, [r2, #3]	@ zero_extendqisi2
 1592              	.LVL231:
1315:Middlewares/ST/STM32_USB_Host_Library/Class/AUDIO/Src/usbh_audio.c ****     /*holds the CS(control selector ) and CN (channel number)*/
 1593              		.loc 1 1315 0
 1594 0036 1202     		lsls	r2, r2, #8
 1595              	.LVL232:
1317:Middlewares/ST/STM32_USB_Host_Library/Class/AUDIO/Src/usbh_audio.c ****     wLength = length;
ARM GAS  /tmp/cc7hx4Eu.s 			page 66


 1596              		.loc 1 1317 0
 1597 0038 9DF81010 		ldrb	r1, [sp, #16]	@ zero_extendqisi2
 1598              	.LVL233:
 1599 003c 41EA0323 		orr	r3, r1, r3, lsl #8
 1600              	.LVL234:
1319:Middlewares/ST/STM32_USB_Host_Library/Class/AUDIO/Src/usbh_audio.c ****     
 1601              		.loc 1 1319 0
 1602 0040 0AE0     		b	.L123
 1603              	.LVL235:
 1604              	.L124:
1322:Middlewares/ST/STM32_USB_Host_Library/Class/AUDIO/Src/usbh_audio.c ****     InterfaceNum = 0; /*Always zero Control Interface */
 1605              		.loc 1 1322 0
 1606 0042 D5F88030 		ldr	r3, [r5, #128]
 1607              	.LVL236:
 1608 0046 DA78     		ldrb	r2, [r3, #3]	@ zero_extendqisi2
 1609              	.LVL237:
1324:Middlewares/ST/STM32_USB_Host_Library/Class/AUDIO/Src/usbh_audio.c ****     wValue = (COPY_PROTECT_CONTROL << 8 ) ; 
 1610              		.loc 1 1324 0
 1611 0048 1202     		lsls	r2, r2, #8
 1612              	.LVL238:
1326:Middlewares/ST/STM32_USB_Host_Library/Class/AUDIO/Src/usbh_audio.c ****     break;
 1613              		.loc 1 1326 0
 1614 004a 0124     		movs	r4, #1
1325:Middlewares/ST/STM32_USB_Host_Library/Class/AUDIO/Src/usbh_audio.c ****     wLength = 1; 
 1615              		.loc 1 1325 0
 1616 004c 4FF48073 		mov	r3, #256
 1617              	.LVL239:
1327:Middlewares/ST/STM32_USB_Host_Library/Class/AUDIO/Src/usbh_audio.c ****   }
 1618              		.loc 1 1327 0
 1619 0050 02E0     		b	.L123
 1620              	.LVL240:
 1621              	.L128:
1296:Middlewares/ST/STM32_USB_Host_Library/Class/AUDIO/Src/usbh_audio.c ****   uint8_t UnitID = 0, InterfaceNum = 0;
 1622              		.loc 1 1296 0
 1623 0052 0024     		movs	r4, #0
 1624 0054 2246     		mov	r2, r4
 1625              	.LVL241:
 1626 0056 2346     		mov	r3, r4
 1627              	.LVL242:
 1628              	.L123:
1330:Middlewares/ST/STM32_USB_Host_Library/Class/AUDIO/Src/usbh_audio.c ****     USB_REQ_TYPE_CLASS;
 1629              		.loc 1 1330 0
 1630 0058 A121     		movs	r1, #161
 1631 005a 0174     		strb	r1, [r0, #16]
1333:Middlewares/ST/STM32_USB_Host_Library/Class/AUDIO/Src/usbh_audio.c ****   phost->Control.setup.b.wValue.w = wValue;
 1632              		.loc 1 1333 0
 1633 005c 8421     		movs	r1, #132
 1634 005e 4174     		strb	r1, [r0, #17]
1334:Middlewares/ST/STM32_USB_Host_Library/Class/AUDIO/Src/usbh_audio.c ****   phost->Control.setup.b.wIndex.w = wIndex;
 1635              		.loc 1 1334 0
 1636 0060 4382     		strh	r3, [r0, #18]	@ movhi
1335:Middlewares/ST/STM32_USB_Host_Library/Class/AUDIO/Src/usbh_audio.c ****   phost->Control.setup.b.wLength.w = wLength; 
 1637              		.loc 1 1335 0
 1638 0062 8282     		strh	r2, [r0, #20]	@ movhi
1336:Middlewares/ST/STM32_USB_Host_Library/Class/AUDIO/Src/usbh_audio.c ****   
 1639              		.loc 1 1336 0
 1640 0064 C482     		strh	r4, [r0, #22]	@ movhi
ARM GAS  /tmp/cc7hx4Eu.s 			page 67


1338:Middlewares/ST/STM32_USB_Host_Library/Class/AUDIO/Src/usbh_audio.c ****   
 1641              		.loc 1 1338 0
 1642 0066 2246     		mov	r2, r4
 1643              	.LVL243:
 1644 0068 05F5C871 		add	r1, r5, #400
 1645 006c FFF7FEFF 		bl	USBH_CtlReq
 1646              	.LVL244:
1340:Middlewares/ST/STM32_USB_Host_Library/Class/AUDIO/Src/usbh_audio.c **** 
 1647              		.loc 1 1340 0
 1648 0070 38BD     		pop	{r3, r4, r5, pc}
 1649              		.cfi_endproc
 1650              	.LFE142:
 1652 0072 00BF     		.section	.text.USBH_AUDIO_CSRequest,"ax",%progbits
 1653              		.align	2
 1654              		.thumb
 1655              		.thumb_func
 1657              	USBH_AUDIO_CSRequest:
 1658              	.LFB127:
 516:Middlewares/ST/STM32_USB_Host_Library/Class/AUDIO/Src/usbh_audio.c ****   AUDIO_HandleTypeDef *AUDIO_Handle =  (AUDIO_HandleTypeDef *) phost->pActiveClass->pData;  
 1659              		.loc 1 516 0
 1660              		.cfi_startproc
 1661              		@ args = 0, pretend = 0, frame = 0
 1662              		@ frame_needed = 0, uses_anonymous_args = 0
 1663              	.LVL245:
 1664 0000 10B5     		push	{r4, lr}
 1665              	.LCFI16:
 1666              		.cfi_def_cfa_offset 8
 1667              		.cfi_offset 4, -8
 1668              		.cfi_offset 14, -4
 1669 0002 82B0     		sub	sp, sp, #8
 1670              	.LCFI17:
 1671              		.cfi_def_cfa_offset 16
 517:Middlewares/ST/STM32_USB_Host_Library/Class/AUDIO/Src/usbh_audio.c ****   USBH_StatusTypeDef status = USBH_BUSY;
 1672              		.loc 1 517 0
 1673 0004 D0F84435 		ldr	r3, [r0, #1348]
 1674 0008 DC69     		ldr	r4, [r3, #28]
 1675              	.LVL246:
 522:Middlewares/ST/STM32_USB_Host_Library/Class/AUDIO/Src/usbh_audio.c ****   {
 1676              		.loc 1 522 0
 1677 000a 6378     		ldrb	r3, [r4, #1]	@ zero_extendqisi2
 1678 000c 043B     		subs	r3, r3, #4
 1679 000e 042B     		cmp	r3, #4
 1680 0010 04D8     		bhi	.L131
 1681 0012 DFE803F0 		tbb	[pc, r3]
 1682              	.L133:
 1683 0016 1A       		.byte	(.L132-.L133)/2
 1684 0017 2F       		.byte	(.L134-.L133)/2
 1685 0018 05       		.byte	(.L135-.L133)/2
 1686 0019 4C       		.byte	(.L136-.L133)/2
 1687 001a 61       		.byte	(.L138-.L133)/2
 1688 001b 00       		.p2align 1
 1689              	.L131:
 518:Middlewares/ST/STM32_USB_Host_Library/Class/AUDIO/Src/usbh_audio.c ****   USBH_StatusTypeDef req_status = USBH_BUSY;
 1690              		.loc 1 518 0
 1691 001c 0120     		movs	r0, #1
 1692              	.LVL247:
 1693 001e 66E0     		b	.L137
ARM GAS  /tmp/cc7hx4Eu.s 			page 68


 1694              	.LVL248:
 1695              	.L135:
 525:Middlewares/ST/STM32_USB_Host_Library/Class/AUDIO/Src/usbh_audio.c ****                                 UAC_FEATURE_UNIT,     /* subtype  */
 1696              		.loc 1 525 0
 1697 0020 0223     		movs	r3, #2
 1698 0022 0193     		str	r3, [sp, #4]
 1699 0024 0092     		str	r2, [sp]
 1700 0026 0A46     		mov	r2, r1
 1701              	.LVL249:
 1702 0028 0621     		movs	r1, #6
 1703              	.LVL250:
 1704 002a FFF7FEFF 		bl	USBH_AC_GetCur
 1705              	.LVL251:
 531:Middlewares/ST/STM32_USB_Host_Library/Class/AUDIO/Src/usbh_audio.c ****     {
 1706              		.loc 1 531 0
 1707 002e 0128     		cmp	r0, #1
 1708 0030 54D0     		beq	.L139
 533:Middlewares/ST/STM32_USB_Host_Library/Class/AUDIO/Src/usbh_audio.c ****       AUDIO_Handle->headphone.attribute.volume = LE16(&(AUDIO_Handle->mem[0]));
 1709              		.loc 1 533 0
 1710 0032 0423     		movs	r3, #4
 1711 0034 6370     		strb	r3, [r4, #1]
 534:Middlewares/ST/STM32_USB_Host_Library/Class/AUDIO/Src/usbh_audio.c ****     }
 1712              		.loc 1 534 0
 1713 0036 94F89031 		ldrb	r3, [r4, #400]	@ zero_extendqisi2
 1714 003a 94F89121 		ldrb	r2, [r4, #401]	@ zero_extendqisi2
 1715 003e 03EB0223 		add	r3, r3, r2, lsl #8
 1716 0042 C4F83431 		str	r3, [r4, #308]
 518:Middlewares/ST/STM32_USB_Host_Library/Class/AUDIO/Src/usbh_audio.c ****   USBH_StatusTypeDef req_status = USBH_BUSY;
 1717              		.loc 1 518 0
 1718 0046 0120     		movs	r0, #1
 1719              	.LVL252:
 1720 0048 51E0     		b	.L137
 1721              	.LVL253:
 1722              	.L132:
 539:Middlewares/ST/STM32_USB_Host_Library/Class/AUDIO/Src/usbh_audio.c ****                                 UAC_FEATURE_UNIT,     /* subtype  */
 1723              		.loc 1 539 0
 1724 004a 0223     		movs	r3, #2
 1725 004c 0193     		str	r3, [sp, #4]
 1726 004e 0092     		str	r2, [sp]
 1727 0050 0A46     		mov	r2, r1
 1728              	.LVL254:
 1729 0052 0621     		movs	r1, #6
 1730              	.LVL255:
 1731 0054 FFF7FEFF 		bl	USBH_AC_GetMin
 1732              	.LVL256:
 545:Middlewares/ST/STM32_USB_Host_Library/Class/AUDIO/Src/usbh_audio.c ****     {
 1733              		.loc 1 545 0
 1734 0058 0128     		cmp	r0, #1
 1735 005a 41D0     		beq	.L140
 547:Middlewares/ST/STM32_USB_Host_Library/Class/AUDIO/Src/usbh_audio.c ****       AUDIO_Handle->headphone.attribute.volumeMin = LE16(&AUDIO_Handle->mem[0]);
 1736              		.loc 1 547 0
 1737 005c 0523     		movs	r3, #5
 1738 005e 6370     		strb	r3, [r4, #1]
 548:Middlewares/ST/STM32_USB_Host_Library/Class/AUDIO/Src/usbh_audio.c ****     }
 1739              		.loc 1 548 0
 1740 0060 94F89031 		ldrb	r3, [r4, #400]	@ zero_extendqisi2
 1741 0064 94F89121 		ldrb	r2, [r4, #401]	@ zero_extendqisi2
ARM GAS  /tmp/cc7hx4Eu.s 			page 69


 1742 0068 03EB0223 		add	r3, r3, r2, lsl #8
 1743 006c C4F82C31 		str	r3, [r4, #300]
 518:Middlewares/ST/STM32_USB_Host_Library/Class/AUDIO/Src/usbh_audio.c ****   USBH_StatusTypeDef req_status = USBH_BUSY;
 1744              		.loc 1 518 0
 1745 0070 0120     		movs	r0, #1
 1746              	.LVL257:
 1747 0072 3CE0     		b	.L137
 1748              	.LVL258:
 1749              	.L134:
 553:Middlewares/ST/STM32_USB_Host_Library/Class/AUDIO/Src/usbh_audio.c ****                                 UAC_FEATURE_UNIT,     /* subtype  */
 1750              		.loc 1 553 0
 1751 0074 0223     		movs	r3, #2
 1752 0076 0193     		str	r3, [sp, #4]
 1753 0078 0092     		str	r2, [sp]
 1754 007a 0A46     		mov	r2, r1
 1755              	.LVL259:
 1756 007c 0621     		movs	r1, #6
 1757              	.LVL260:
 1758 007e FFF7FEFF 		bl	USBH_AC_GetMax
 1759              	.LVL261:
 559:Middlewares/ST/STM32_USB_Host_Library/Class/AUDIO/Src/usbh_audio.c ****     {
 1760              		.loc 1 559 0
 1761 0082 0128     		cmp	r0, #1
 1762 0084 2ED0     		beq	.L141
 561:Middlewares/ST/STM32_USB_Host_Library/Class/AUDIO/Src/usbh_audio.c ****       AUDIO_Handle->headphone.attribute.volumeMax = LE16(&AUDIO_Handle->mem[0]);   
 1763              		.loc 1 561 0
 1764 0086 0723     		movs	r3, #7
 1765 0088 6370     		strb	r3, [r4, #1]
 562:Middlewares/ST/STM32_USB_Host_Library/Class/AUDIO/Src/usbh_audio.c ****       
 1766              		.loc 1 562 0
 1767 008a 94F89031 		ldrb	r3, [r4, #400]	@ zero_extendqisi2
 1768 008e 94F89121 		ldrb	r2, [r4, #401]	@ zero_extendqisi2
 1769 0092 03EB0223 		add	r3, r3, r2, lsl #8
 1770 0096 C4F83031 		str	r3, [r4, #304]
 564:Middlewares/ST/STM32_USB_Host_Library/Class/AUDIO/Src/usbh_audio.c ****       {
 1771              		.loc 1 564 0
 1772 009a D4F82C21 		ldr	r2, [r4, #300]
 1773 009e 9342     		cmp	r3, r2
 1774 00a0 22D2     		bcs	.L142
 566:Middlewares/ST/STM32_USB_Host_Library/Class/AUDIO/Src/usbh_audio.c ****       }
 1775              		.loc 1 566 0
 1776 00a2 4FF47F43 		mov	r3, #65280
 1777 00a6 C4F83031 		str	r3, [r4, #304]
 518:Middlewares/ST/STM32_USB_Host_Library/Class/AUDIO/Src/usbh_audio.c ****   USBH_StatusTypeDef req_status = USBH_BUSY;
 1778              		.loc 1 518 0
 1779 00aa 0120     		movs	r0, #1
 1780              	.LVL262:
 1781 00ac 1FE0     		b	.L137
 1782              	.LVL263:
 1783              	.L136:
 572:Middlewares/ST/STM32_USB_Host_Library/Class/AUDIO/Src/usbh_audio.c ****                                 UAC_FEATURE_UNIT,     /* subtype  */
 1784              		.loc 1 572 0
 1785 00ae 0223     		movs	r3, #2
 1786 00b0 0193     		str	r3, [sp, #4]
 1787 00b2 0092     		str	r2, [sp]
 1788 00b4 0A46     		mov	r2, r1
 1789              	.LVL264:
ARM GAS  /tmp/cc7hx4Eu.s 			page 70


 1790 00b6 0621     		movs	r1, #6
 1791              	.LVL265:
 1792 00b8 FFF7FEFF 		bl	USBH_AC_GetRes
 1793              	.LVL266:
 578:Middlewares/ST/STM32_USB_Host_Library/Class/AUDIO/Src/usbh_audio.c ****     {
 1794              		.loc 1 578 0
 1795 00bc 0128     		cmp	r0, #1
 1796 00be 15D0     		beq	.L143
 580:Middlewares/ST/STM32_USB_Host_Library/Class/AUDIO/Src/usbh_audio.c ****       AUDIO_Handle->headphone.attribute.resolution = LE16(&AUDIO_Handle->mem[0]);    
 1797              		.loc 1 580 0
 1798 00c0 0823     		movs	r3, #8
 1799 00c2 6370     		strb	r3, [r4, #1]
 581:Middlewares/ST/STM32_USB_Host_Library/Class/AUDIO/Src/usbh_audio.c ****     }
 1800              		.loc 1 581 0
 1801 00c4 94F89031 		ldrb	r3, [r4, #400]	@ zero_extendqisi2
 1802 00c8 94F89121 		ldrb	r2, [r4, #401]	@ zero_extendqisi2
 1803 00cc 03EB0223 		add	r3, r3, r2, lsl #8
 1804 00d0 C4F83831 		str	r3, [r4, #312]
 518:Middlewares/ST/STM32_USB_Host_Library/Class/AUDIO/Src/usbh_audio.c ****   USBH_StatusTypeDef req_status = USBH_BUSY;
 1805              		.loc 1 518 0
 1806 00d4 0120     		movs	r0, #1
 1807              	.LVL267:
 1808 00d6 0AE0     		b	.L137
 1809              	.LVL268:
 1810              	.L138:
 587:Middlewares/ST/STM32_USB_Host_Library/Class/AUDIO/Src/usbh_audio.c ****   default:
 1811              		.loc 1 587 0
 1812 00d8 0020     		movs	r0, #0
 1813              	.LVL269:
 1814 00da 08E0     		b	.L137
 1815              	.LVL270:
 1816              	.L139:
 518:Middlewares/ST/STM32_USB_Host_Library/Class/AUDIO/Src/usbh_audio.c ****   USBH_StatusTypeDef req_status = USBH_BUSY;
 1817              		.loc 1 518 0
 1818 00dc 0120     		movs	r0, #1
 1819              	.LVL271:
 1820 00de 06E0     		b	.L137
 1821              	.LVL272:
 1822              	.L140:
 1823 00e0 0120     		movs	r0, #1
 1824              	.LVL273:
 1825 00e2 04E0     		b	.L137
 1826              	.LVL274:
 1827              	.L141:
 1828 00e4 0120     		movs	r0, #1
 1829              	.LVL275:
 1830 00e6 02E0     		b	.L137
 1831              	.LVL276:
 1832              	.L142:
 1833 00e8 0120     		movs	r0, #1
 1834              	.LVL277:
 1835 00ea 00E0     		b	.L137
 1836              	.LVL278:
 1837              	.L143:
 1838 00ec 0120     		movs	r0, #1
 1839              	.LVL279:
 1840              	.L137:
ARM GAS  /tmp/cc7hx4Eu.s 			page 71


 592:Middlewares/ST/STM32_USB_Host_Library/Class/AUDIO/Src/usbh_audio.c **** 
 1841              		.loc 1 592 0
 1842 00ee 02B0     		add	sp, sp, #8
 1843              	.LCFI18:
 1844              		.cfi_def_cfa_offset 8
 1845              		@ sp needed
 1846 00f0 10BD     		pop	{r4, pc}
 1847              		.cfi_endproc
 1848              	.LFE127:
 1850 00f2 00BF     		.section	.text.USBH_AUDIO_HandleCSRequest,"ax",%progbits
 1851              		.align	2
 1852              		.thumb
 1853              		.thumb_func
 1855              	USBH_AUDIO_HandleCSRequest:
 1856              	.LFB128:
 602:Middlewares/ST/STM32_USB_Host_Library/Class/AUDIO/Src/usbh_audio.c **** 
 1857              		.loc 1 602 0
 1858              		.cfi_startproc
 1859              		@ args = 0, pretend = 0, frame = 0
 1860              		@ frame_needed = 0, uses_anonymous_args = 0
 1861              	.LVL280:
 1862 0000 10B5     		push	{r4, lr}
 1863              	.LCFI19:
 1864              		.cfi_def_cfa_offset 8
 1865              		.cfi_offset 4, -8
 1866              		.cfi_offset 14, -4
 1867              	.LVL281:
 606:Middlewares/ST/STM32_USB_Host_Library/Class/AUDIO/Src/usbh_audio.c ****         
 1868              		.loc 1 606 0
 1869 0002 D0F84435 		ldr	r3, [r0, #1348]
 1870 0006 DC69     		ldr	r4, [r3, #28]
 1871              	.LVL282:
 608:Middlewares/ST/STM32_USB_Host_Library/Class/AUDIO/Src/usbh_audio.c ****                                    AUDIO_Handle->temp_feature, 
 1872              		.loc 1 608 0
 1873 0008 94F8A121 		ldrb	r2, [r4, #417]	@ zero_extendqisi2
 1874 000c 94F8A011 		ldrb	r1, [r4, #416]	@ zero_extendqisi2
 1875 0010 FFF7FEFF 		bl	USBH_AUDIO_CSRequest
 1876              	.LVL283:
 612:Middlewares/ST/STM32_USB_Host_Library/Class/AUDIO/Src/usbh_audio.c ****   {
 1877              		.loc 1 612 0
 1878 0014 0128     		cmp	r0, #1
 1879 0016 12D0     		beq	.L149
 615:Middlewares/ST/STM32_USB_Host_Library/Class/AUDIO/Src/usbh_audio.c ****     {
 1880              		.loc 1 615 0
 1881 0018 94F8A131 		ldrb	r3, [r4, #417]	@ zero_extendqisi2
 1882 001c 012B     		cmp	r3, #1
 1883 001e 07D1     		bne	.L147
 617:Middlewares/ST/STM32_USB_Host_Library/Class/AUDIO/Src/usbh_audio.c ****         AUDIO_Handle->temp_channels = 0;
 1884              		.loc 1 617 0
 1885 0020 94F80731 		ldrb	r3, [r4, #263]	@ zero_extendqisi2
 1886 0024 84F8A031 		strb	r3, [r4, #416]
 618:Middlewares/ST/STM32_USB_Host_Library/Class/AUDIO/Src/usbh_audio.c ****         status = USBH_OK; 
 1887              		.loc 1 618 0
 1888 0028 0020     		movs	r0, #0
 1889              	.LVL284:
 1890 002a 84F8A101 		strb	r0, [r4, #417]
 1891              	.LVL285:
ARM GAS  /tmp/cc7hx4Eu.s 			page 72


 1892 002e 03E0     		b	.L148
 1893              	.LVL286:
 1894              	.L147:
 623:Middlewares/ST/STM32_USB_Host_Library/Class/AUDIO/Src/usbh_audio.c ****     }
 1895              		.loc 1 623 0
 1896 0030 013B     		subs	r3, r3, #1
 1897 0032 84F8A131 		strb	r3, [r4, #417]
 604:Middlewares/ST/STM32_USB_Host_Library/Class/AUDIO/Src/usbh_audio.c ****   USBH_StatusTypeDef cs_status = USBH_BUSY;
 1898              		.loc 1 604 0
 1899 0036 0120     		movs	r0, #1
 1900              	.LVL287:
 1901              	.L148:
 625:Middlewares/ST/STM32_USB_Host_Library/Class/AUDIO/Src/usbh_audio.c **** #if (USBH_USE_OS == 1)
 1902              		.loc 1 625 0
 1903 0038 0623     		movs	r3, #6
 1904 003a 6370     		strb	r3, [r4, #1]
 1905 003c 10BD     		pop	{r4, pc}
 1906              	.LVL288:
 1907              	.L149:
 604:Middlewares/ST/STM32_USB_Host_Library/Class/AUDIO/Src/usbh_audio.c ****   USBH_StatusTypeDef cs_status = USBH_BUSY;
 1908              		.loc 1 604 0
 1909 003e 0120     		movs	r0, #1
 1910              	.LVL289:
 632:Middlewares/ST/STM32_USB_Host_Library/Class/AUDIO/Src/usbh_audio.c **** 
 1911              		.loc 1 632 0
 1912 0040 10BD     		pop	{r4, pc}
 1913              		.cfi_endproc
 1914              	.LFE128:
 1916 0042 00BF     		.section	.text.USBH_AUDIO_Control,"ax",%progbits
 1917              		.align	2
 1918              		.thumb
 1919              		.thumb_func
 1921              	USBH_AUDIO_Control:
 1922              	.LFB146:
1453:Middlewares/ST/STM32_USB_Host_Library/Class/AUDIO/Src/usbh_audio.c ****   USBH_StatusTypeDef status = USBH_BUSY ;
 1923              		.loc 1 1453 0
 1924              		.cfi_startproc
 1925              		@ args = 0, pretend = 0, frame = 0
 1926              		@ frame_needed = 0, uses_anonymous_args = 0
 1927              	.LVL290:
 1928 0000 38B5     		push	{r3, r4, r5, lr}
 1929              	.LCFI20:
 1930              		.cfi_def_cfa_offset 16
 1931              		.cfi_offset 3, -16
 1932              		.cfi_offset 4, -12
 1933              		.cfi_offset 5, -8
 1934              		.cfi_offset 14, -4
 1935 0002 0546     		mov	r5, r0
 1936              	.LVL291:
1455:Middlewares/ST/STM32_USB_Host_Library/Class/AUDIO/Src/usbh_audio.c ****   uint16_t attribute  = 0; 
 1937              		.loc 1 1455 0
 1938 0004 D0F84435 		ldr	r3, [r0, #1348]
 1939 0008 DC69     		ldr	r4, [r3, #28]
 1940              	.LVL292:
1459:Middlewares/ST/STM32_USB_Host_Library/Class/AUDIO/Src/usbh_audio.c ****   {
 1941              		.loc 1 1459 0
 1942 000a E378     		ldrb	r3, [r4, #3]	@ zero_extendqisi2
ARM GAS  /tmp/cc7hx4Eu.s 			page 73


 1943 000c 013B     		subs	r3, r3, #1
 1944 000e 042B     		cmp	r3, #4
 1945 0010 54D8     		bhi	.L159
 1946 0012 DFE803F0 		tbb	[pc, r3]
 1947              	.L154:
 1948 0016 03       		.byte	(.L153-.L154)/2
 1949 0017 20       		.byte	(.L155-.L154)/2
 1950 0018 53       		.byte	(.L159-.L154)/2
 1951 0019 45       		.byte	(.L156-.L154)/2
 1952 001a 4C       		.byte	(.L157-.L154)/2
 1953 001b 00       		.p2align 1
 1954              	.L153:
1462:Middlewares/ST/STM32_USB_Host_Library/Class/AUDIO/Src/usbh_audio.c ****     {
 1955              		.loc 1 1462 0
 1956 001c D0F88835 		ldr	r3, [r0, #1416]
 1957 0020 13F0010F 		tst	r3, #1
 1958 0024 4CD1     		bne	.L160
1464:Middlewares/ST/STM32_USB_Host_Library/Class/AUDIO/Src/usbh_audio.c ****       USBH_InterruptReceiveData(phost, 
 1959              		.loc 1 1464 0
 1960 0026 D0F88835 		ldr	r3, [r0, #1416]
 1961 002a C4F88C31 		str	r3, [r4, #396]
1465:Middlewares/ST/STM32_USB_Host_Library/Class/AUDIO/Src/usbh_audio.c ****                                 (uint8_t *)(AUDIO_Handle->mem),
 1962              		.loc 1 1465 0
 1963 002e 94F88A31 		ldrb	r3, [r4, #394]	@ zero_extendqisi2
 1964 0032 94F88621 		ldrb	r2, [r4, #390]	@ zero_extendqisi2
 1965 0036 04F5C871 		add	r1, r4, #400
 1966 003a FFF7FEFF 		bl	USBH_InterruptReceiveData
 1967              	.LVL293:
1470:Middlewares/ST/STM32_USB_Host_Library/Class/AUDIO/Src/usbh_audio.c ****       AUDIO_Handle->temp_channels = AUDIO_Handle->headphone.asociated_channels;
 1968              		.loc 1 1470 0
 1969 003e 94F80731 		ldrb	r3, [r4, #263]	@ zero_extendqisi2
 1970 0042 84F8A031 		strb	r3, [r4, #416]
1471:Middlewares/ST/STM32_USB_Host_Library/Class/AUDIO/Src/usbh_audio.c ****       
 1971              		.loc 1 1471 0
 1972 0046 94F80931 		ldrb	r3, [r4, #265]	@ zero_extendqisi2
 1973 004a 84F8A131 		strb	r3, [r4, #417]
1473:Middlewares/ST/STM32_USB_Host_Library/Class/AUDIO/Src/usbh_audio.c ****     }
 1974              		.loc 1 1473 0
 1975 004e 0223     		movs	r3, #2
 1976 0050 E370     		strb	r3, [r4, #3]
1454:Middlewares/ST/STM32_USB_Host_Library/Class/AUDIO/Src/usbh_audio.c ****   AUDIO_HandleTypeDef *AUDIO_Handle =  (AUDIO_HandleTypeDef*) phost->pActiveClass->pData; 
 1977              		.loc 1 1454 0
 1978 0052 0120     		movs	r0, #1
 1979 0054 38BD     		pop	{r3, r4, r5, pc}
 1980              	.LVL294:
 1981              	.L155:
1477:Middlewares/ST/STM32_USB_Host_Library/Class/AUDIO/Src/usbh_audio.c ****     {
 1982              		.loc 1 1477 0
 1983 0056 94F88A11 		ldrb	r1, [r4, #394]	@ zero_extendqisi2
 1984 005a FFF7FEFF 		bl	USBH_LL_GetURBState
 1985              	.LVL295:
 1986 005e 0128     		cmp	r0, #1
 1987 0060 06D1     		bne	.L158
 1988              	.LVL296:
1480:Middlewares/ST/STM32_USB_Host_Library/Class/AUDIO/Src/usbh_audio.c ****       {
 1989              		.loc 1 1480 0
 1990 0062 94F89011 		ldrb	r1, [r4, #400]	@ zero_extendqisi2
ARM GAS  /tmp/cc7hx4Eu.s 			page 74


 1991 0066 2846     		mov	r0, r5
 1992 0068 FFF7FEFF 		bl	USBH_AUDIO_SetControlAttribute
 1993              	.LVL297:
 1994 006c 0128     		cmp	r0, #1
 1995 006e 29D0     		beq	.L161
 1996              	.L158:
1486:Middlewares/ST/STM32_USB_Host_Library/Class/AUDIO/Src/usbh_audio.c ****     {
 1997              		.loc 1 1486 0
 1998 0070 D5F88835 		ldr	r3, [r5, #1416]
 1999 0074 D4F88C21 		ldr	r2, [r4, #396]
 2000 0078 9B1A     		subs	r3, r3, r2
 2001 007a 94F88B21 		ldrb	r2, [r4, #395]	@ zero_extendqisi2
 2002 007e 9342     		cmp	r3, r2
 2003 0080 22D3     		bcc	.L162
1488:Middlewares/ST/STM32_USB_Host_Library/Class/AUDIO/Src/usbh_audio.c ****       
 2004              		.loc 1 1488 0
 2005 0082 D5F88835 		ldr	r3, [r5, #1416]
 2006 0086 C4F88C31 		str	r3, [r4, #396]
1490:Middlewares/ST/STM32_USB_Host_Library/Class/AUDIO/Src/usbh_audio.c ****                                 (uint8_t *)(AUDIO_Handle->mem),
 2007              		.loc 1 1490 0
 2008 008a 94F88A31 		ldrb	r3, [r4, #394]	@ zero_extendqisi2
 2009 008e 94F88621 		ldrb	r2, [r4, #390]	@ zero_extendqisi2
 2010 0092 04F5C871 		add	r1, r4, #400
 2011 0096 2846     		mov	r0, r5
 2012 0098 FFF7FEFF 		bl	USBH_InterruptReceiveData
 2013              	.LVL298:
1454:Middlewares/ST/STM32_USB_Host_Library/Class/AUDIO/Src/usbh_audio.c ****   AUDIO_HandleTypeDef *AUDIO_Handle =  (AUDIO_HandleTypeDef*) phost->pActiveClass->pData; 
 2014              		.loc 1 1454 0
 2015 009c 0120     		movs	r0, #1
 2016 009e 38BD     		pop	{r3, r4, r5, pc}
 2017              	.LVL299:
 2018              	.L156:
1499:Middlewares/ST/STM32_USB_Host_Library/Class/AUDIO/Src/usbh_audio.c ****        {
 2019              		.loc 1 1499 0
 2020 00a0 0121     		movs	r1, #1
 2021 00a2 FFF7FEFF 		bl	USBH_AUDIO_SetControlAttribute
 2022              	.LVL300:
 2023 00a6 88B9     		cbnz	r0, .L163
1501:Middlewares/ST/STM32_USB_Host_Library/Class/AUDIO/Src/usbh_audio.c ****         status = USBH_OK; 
 2024              		.loc 1 1501 0
 2025 00a8 0123     		movs	r3, #1
 2026 00aa E370     		strb	r3, [r4, #3]
 2027              	.LVL301:
 2028 00ac 38BD     		pop	{r3, r4, r5, pc}
 2029              	.LVL302:
 2030              	.L157:
1507:Middlewares/ST/STM32_USB_Host_Library/Class/AUDIO/Src/usbh_audio.c ****        {
 2031              		.loc 1 1507 0
 2032 00ae 0221     		movs	r1, #2
 2033 00b0 FFF7FEFF 		bl	USBH_AUDIO_SetControlAttribute
 2034              	.LVL303:
 2035 00b4 60B9     		cbnz	r0, .L164
1509:Middlewares/ST/STM32_USB_Host_Library/Class/AUDIO/Src/usbh_audio.c ****          status = USBH_OK; 
 2036              		.loc 1 1509 0
 2037 00b6 0123     		movs	r3, #1
 2038 00b8 E370     		strb	r3, [r4, #3]
 2039              	.LVL304:
ARM GAS  /tmp/cc7hx4Eu.s 			page 75


 2040 00ba 38BD     		pop	{r3, r4, r5, pc}
 2041              	.LVL305:
 2042              	.L159:
1454:Middlewares/ST/STM32_USB_Host_Library/Class/AUDIO/Src/usbh_audio.c ****   AUDIO_HandleTypeDef *AUDIO_Handle =  (AUDIO_HandleTypeDef*) phost->pActiveClass->pData; 
 2043              		.loc 1 1454 0
 2044 00bc 0120     		movs	r0, #1
 2045              	.LVL306:
 2046 00be 38BD     		pop	{r3, r4, r5, pc}
 2047              	.LVL307:
 2048              	.L160:
 2049 00c0 0120     		movs	r0, #1
 2050              	.LVL308:
 2051 00c2 38BD     		pop	{r3, r4, r5, pc}
 2052              	.LVL309:
 2053              	.L161:
 2054 00c4 0120     		movs	r0, #1
 2055 00c6 38BD     		pop	{r3, r4, r5, pc}
 2056              	.LVL310:
 2057              	.L162:
 2058 00c8 0120     		movs	r0, #1
 2059 00ca 38BD     		pop	{r3, r4, r5, pc}
 2060              	.LVL311:
 2061              	.L163:
 2062 00cc 0120     		movs	r0, #1
 2063 00ce 38BD     		pop	{r3, r4, r5, pc}
 2064              	.LVL312:
 2065              	.L164:
 2066 00d0 0120     		movs	r0, #1
 2067              	.LVL313:
1520:Middlewares/ST/STM32_USB_Host_Library/Class/AUDIO/Src/usbh_audio.c **** 
 2068              		.loc 1 1520 0
 2069 00d2 38BD     		pop	{r3, r4, r5, pc}
 2070              		.cfi_endproc
 2071              	.LFE146:
 2073              		.section	.text.USBH_AUDIO_ClassRequest,"ax",%progbits
 2074              		.align	2
 2075              		.thumb
 2076              		.thumb_func
 2078              	USBH_AUDIO_ClassRequest:
 2079              	.LFB126:
 390:Middlewares/ST/STM32_USB_Host_Library/Class/AUDIO/Src/usbh_audio.c ****   AUDIO_HandleTypeDef *AUDIO_Handle =  (AUDIO_HandleTypeDef *) phost->pActiveClass->pData;  
 2080              		.loc 1 390 0
 2081              		.cfi_startproc
 2082              		@ args = 0, pretend = 0, frame = 0
 2083              		@ frame_needed = 0, uses_anonymous_args = 0
 2084              	.LVL314:
 2085 0000 10B5     		push	{r4, lr}
 2086              	.LCFI21:
 2087              		.cfi_def_cfa_offset 8
 2088              		.cfi_offset 4, -8
 2089              		.cfi_offset 14, -4
 391:Middlewares/ST/STM32_USB_Host_Library/Class/AUDIO/Src/usbh_audio.c ****   USBH_StatusTypeDef status = USBH_BUSY;
 2090              		.loc 1 391 0
 2091 0002 D0F84435 		ldr	r3, [r0, #1348]
 2092 0006 DC69     		ldr	r4, [r3, #28]
 2093              	.LVL315:
 396:Middlewares/ST/STM32_USB_Host_Library/Class/AUDIO/Src/usbh_audio.c ****   {
ARM GAS  /tmp/cc7hx4Eu.s 			page 76


 2094              		.loc 1 396 0
 2095 0008 2378     		ldrb	r3, [r4]	@ zero_extendqisi2
 2096 000a 013B     		subs	r3, r3, #1
 2097 000c 062B     		cmp	r3, #6
 2098 000e 6DD8     		bhi	.L179
 2099 0010 DFE803F0 		tbb	[pc, r3]
 2100              	.L169:
 2101 0014 04       		.byte	(.L168-.L169)/2
 2102 0015 64       		.byte	(.L170-.L169)/2
 2103 0016 04       		.byte	(.L168-.L169)/2
 2104 0017 17       		.byte	(.L171-.L169)/2
 2105 0018 3E       		.byte	(.L172-.L169)/2
 2106 0019 51       		.byte	(.L173-.L169)/2
 2107 001a 36       		.byte	(.L174-.L169)/2
 2108 001b 00       		.p2align 1
 2109              	.L168:
 400:Middlewares/ST/STM32_USB_Host_Library/Class/AUDIO/Src/usbh_audio.c ****     {
 2110              		.loc 1 400 0
 2111 001c 94F84231 		ldrb	r3, [r4, #322]	@ zero_extendqisi2
 2112 0020 012B     		cmp	r3, #1
 2113 0022 0AD1     		bne	.L175
 402:Middlewares/ST/STM32_USB_Host_Library/Class/AUDIO/Src/usbh_audio.c ****                                      AUDIO_Handle->microphone.interface, 
 2114              		.loc 1 402 0
 2115 0024 0022     		movs	r2, #0
 2116 0026 94F84011 		ldrb	r1, [r4, #320]	@ zero_extendqisi2
 2117 002a FFF7FEFF 		bl	USBH_SetInterface
 2118              	.LVL316:
 406:Middlewares/ST/STM32_USB_Host_Library/Class/AUDIO/Src/usbh_audio.c ****       {
 2119              		.loc 1 406 0
 2120 002e 0028     		cmp	r0, #0
 2121 0030 5ED1     		bne	.L180
 408:Middlewares/ST/STM32_USB_Host_Library/Class/AUDIO/Src/usbh_audio.c ****       }
 2122              		.loc 1 408 0
 2123 0032 0423     		movs	r3, #4
 2124 0034 2370     		strb	r3, [r4]
 392:Middlewares/ST/STM32_USB_Host_Library/Class/AUDIO/Src/usbh_audio.c ****   USBH_StatusTypeDef req_status = USBH_BUSY;
 2125              		.loc 1 392 0
 2126 0036 0120     		movs	r0, #1
 2127              	.LVL317:
 2128 0038 10BD     		pop	{r4, pc}
 2129              	.LVL318:
 2130              	.L175:
 414:Middlewares/ST/STM32_USB_Host_Library/Class/AUDIO/Src/usbh_audio.c **** #if (USBH_USE_OS == 1)
 2131              		.loc 1 414 0
 2132 003a 0423     		movs	r3, #4
 2133 003c 2370     		strb	r3, [r4]
 392:Middlewares/ST/STM32_USB_Host_Library/Class/AUDIO/Src/usbh_audio.c ****   USBH_StatusTypeDef req_status = USBH_BUSY;
 2134              		.loc 1 392 0
 2135 003e 0120     		movs	r0, #1
 2136              	.LVL319:
 2137 0040 10BD     		pop	{r4, pc}
 2138              	.LVL320:
 2139              	.L171:
 422:Middlewares/ST/STM32_USB_Host_Library/Class/AUDIO/Src/usbh_audio.c ****     {
 2140              		.loc 1 422 0
 2141 0042 94F8FA30 		ldrb	r3, [r4, #250]	@ zero_extendqisi2
 2142 0046 012B     		cmp	r3, #1
ARM GAS  /tmp/cc7hx4Eu.s 			page 77


 2143 0048 14D1     		bne	.L176
 424:Middlewares/ST/STM32_USB_Host_Library/Class/AUDIO/Src/usbh_audio.c ****                                      AUDIO_Handle->headphone.interface, 
 2144              		.loc 1 424 0
 2145 004a 0022     		movs	r2, #0
 2146 004c 94F8F810 		ldrb	r1, [r4, #248]	@ zero_extendqisi2
 2147 0050 FFF7FEFF 		bl	USBH_SetInterface
 2148              	.LVL321:
 428:Middlewares/ST/STM32_USB_Host_Library/Class/AUDIO/Src/usbh_audio.c ****       {
 2149              		.loc 1 428 0
 2150 0054 0028     		cmp	r0, #0
 2151 0056 4DD1     		bne	.L181
 430:Middlewares/ST/STM32_USB_Host_Library/Class/AUDIO/Src/usbh_audio.c ****         AUDIO_Handle->cs_req_state = AUDIO_REQ_GET_VOLUME;
 2152              		.loc 1 430 0
 2153 0058 0723     		movs	r3, #7
 2154 005a 2370     		strb	r3, [r4]
 431:Middlewares/ST/STM32_USB_Host_Library/Class/AUDIO/Src/usbh_audio.c ****         
 2155              		.loc 1 431 0
 2156 005c 0623     		movs	r3, #6
 2157 005e 6370     		strb	r3, [r4, #1]
 433:Middlewares/ST/STM32_USB_Host_Library/Class/AUDIO/Src/usbh_audio.c ****         AUDIO_Handle->temp_channels = AUDIO_Handle->headphone.asociated_channels;
 2158              		.loc 1 433 0
 2159 0060 94F80731 		ldrb	r3, [r4, #263]	@ zero_extendqisi2
 2160 0064 84F8A031 		strb	r3, [r4, #416]
 434:Middlewares/ST/STM32_USB_Host_Library/Class/AUDIO/Src/usbh_audio.c ****       }
 2161              		.loc 1 434 0
 2162 0068 94F80931 		ldrb	r3, [r4, #265]	@ zero_extendqisi2
 2163 006c 84F8A131 		strb	r3, [r4, #417]
 392:Middlewares/ST/STM32_USB_Host_Library/Class/AUDIO/Src/usbh_audio.c ****   USBH_StatusTypeDef req_status = USBH_BUSY;
 2164              		.loc 1 392 0
 2165 0070 0120     		movs	r0, #1
 2166              	.LVL322:
 2167 0072 10BD     		pop	{r4, pc}
 2168              	.LVL323:
 2169              	.L176:
 439:Middlewares/ST/STM32_USB_Host_Library/Class/AUDIO/Src/usbh_audio.c ****         AUDIO_Handle->cs_req_state = AUDIO_REQ_GET_VOLUME;
 2170              		.loc 1 439 0
 2171 0074 0723     		movs	r3, #7
 2172 0076 2370     		strb	r3, [r4]
 440:Middlewares/ST/STM32_USB_Host_Library/Class/AUDIO/Src/usbh_audio.c **** #if (USBH_USE_OS == 1)
 2173              		.loc 1 440 0
 2174 0078 0623     		movs	r3, #6
 2175 007a 6370     		strb	r3, [r4, #1]
 392:Middlewares/ST/STM32_USB_Host_Library/Class/AUDIO/Src/usbh_audio.c ****   USBH_StatusTypeDef req_status = USBH_BUSY;
 2176              		.loc 1 392 0
 2177 007c 0120     		movs	r0, #1
 2178              	.LVL324:
 2179 007e 10BD     		pop	{r4, pc}
 2180              	.LVL325:
 2181              	.L174:
 448:Middlewares/ST/STM32_USB_Host_Library/Class/AUDIO/Src/usbh_audio.c ****     {
 2182              		.loc 1 448 0
 2183 0080 FFF7FEFF 		bl	USBH_AUDIO_HandleCSRequest
 2184              	.LVL326:
 2185 0084 0028     		cmp	r0, #0
 2186 0086 37D1     		bne	.L182
 450:Middlewares/ST/STM32_USB_Host_Library/Class/AUDIO/Src/usbh_audio.c ****     }
 2187              		.loc 1 450 0
ARM GAS  /tmp/cc7hx4Eu.s 			page 78


 2188 0088 0523     		movs	r3, #5
 2189 008a 2370     		strb	r3, [r4]
 392:Middlewares/ST/STM32_USB_Host_Library/Class/AUDIO/Src/usbh_audio.c ****   USBH_StatusTypeDef req_status = USBH_BUSY;
 2190              		.loc 1 392 0
 2191 008c 0120     		movs	r0, #1
 2192 008e 10BD     		pop	{r4, pc}
 2193              	.LVL327:
 2194              	.L172:
 455:Middlewares/ST/STM32_USB_Host_Library/Class/AUDIO/Src/usbh_audio.c ****     {
 2195              		.loc 1 455 0
 2196 0090 94F84231 		ldrb	r3, [r4, #322]	@ zero_extendqisi2
 2197 0094 012B     		cmp	r3, #1
 2198 0096 0AD1     		bne	.L177
 457:Middlewares/ST/STM32_USB_Host_Library/Class/AUDIO/Src/usbh_audio.c ****                                      AUDIO_Handle->microphone.interface, 
 2199              		.loc 1 457 0
 2200 0098 94F84121 		ldrb	r2, [r4, #321]	@ zero_extendqisi2
 2201 009c 94F84011 		ldrb	r1, [r4, #320]	@ zero_extendqisi2
 2202 00a0 FFF7FEFF 		bl	USBH_SetInterface
 2203              	.LVL328:
 461:Middlewares/ST/STM32_USB_Host_Library/Class/AUDIO/Src/usbh_audio.c ****       {
 2204              		.loc 1 461 0
 2205 00a4 50BB     		cbnz	r0, .L183
 463:Middlewares/ST/STM32_USB_Host_Library/Class/AUDIO/Src/usbh_audio.c ****       }
 2206              		.loc 1 463 0
 2207 00a6 0623     		movs	r3, #6
 2208 00a8 2370     		strb	r3, [r4]
 392:Middlewares/ST/STM32_USB_Host_Library/Class/AUDIO/Src/usbh_audio.c ****   USBH_StatusTypeDef req_status = USBH_BUSY;
 2209              		.loc 1 392 0
 2210 00aa 0120     		movs	r0, #1
 2211              	.LVL329:
 2212 00ac 10BD     		pop	{r4, pc}
 2213              	.LVL330:
 2214              	.L177:
 468:Middlewares/ST/STM32_USB_Host_Library/Class/AUDIO/Src/usbh_audio.c **** #if (USBH_USE_OS == 1)
 2215              		.loc 1 468 0
 2216 00ae 0623     		movs	r3, #6
 2217 00b0 2370     		strb	r3, [r4]
 392:Middlewares/ST/STM32_USB_Host_Library/Class/AUDIO/Src/usbh_audio.c ****   USBH_StatusTypeDef req_status = USBH_BUSY;
 2218              		.loc 1 392 0
 2219 00b2 0120     		movs	r0, #1
 2220              	.LVL331:
 2221 00b4 10BD     		pop	{r4, pc}
 2222              	.LVL332:
 2223              	.L173:
 475:Middlewares/ST/STM32_USB_Host_Library/Class/AUDIO/Src/usbh_audio.c ****     {
 2224              		.loc 1 475 0
 2225 00b6 94F8FA30 		ldrb	r3, [r4, #250]	@ zero_extendqisi2
 2226 00ba 012B     		cmp	r3, #1
 2227 00bc 0AD1     		bne	.L178
 477:Middlewares/ST/STM32_USB_Host_Library/Class/AUDIO/Src/usbh_audio.c ****                                      AUDIO_Handle->headphone.interface, 
 2228              		.loc 1 477 0
 2229 00be 94F8F920 		ldrb	r2, [r4, #249]	@ zero_extendqisi2
 2230 00c2 94F8F810 		ldrb	r1, [r4, #248]	@ zero_extendqisi2
 2231 00c6 FFF7FEFF 		bl	USBH_SetInterface
 2232              	.LVL333:
 481:Middlewares/ST/STM32_USB_Host_Library/Class/AUDIO/Src/usbh_audio.c ****       {
 2233              		.loc 1 481 0
ARM GAS  /tmp/cc7hx4Eu.s 			page 79


 2234 00ca C8B9     		cbnz	r0, .L184
 483:Middlewares/ST/STM32_USB_Host_Library/Class/AUDIO/Src/usbh_audio.c ****       }
 2235              		.loc 1 483 0
 2236 00cc 0223     		movs	r3, #2
 2237 00ce 2370     		strb	r3, [r4]
 392:Middlewares/ST/STM32_USB_Host_Library/Class/AUDIO/Src/usbh_audio.c ****   USBH_StatusTypeDef req_status = USBH_BUSY;
 2238              		.loc 1 392 0
 2239 00d0 0120     		movs	r0, #1
 2240              	.LVL334:
 2241 00d2 10BD     		pop	{r4, pc}
 2242              	.LVL335:
 2243              	.L178:
 489:Middlewares/ST/STM32_USB_Host_Library/Class/AUDIO/Src/usbh_audio.c **** #if (USBH_USE_OS == 1)
 2244              		.loc 1 489 0
 2245 00d4 0223     		movs	r3, #2
 2246 00d6 2370     		strb	r3, [r4]
 392:Middlewares/ST/STM32_USB_Host_Library/Class/AUDIO/Src/usbh_audio.c ****   USBH_StatusTypeDef req_status = USBH_BUSY;
 2247              		.loc 1 392 0
 2248 00d8 0120     		movs	r0, #1
 2249              	.LVL336:
 2250 00da 10BD     		pop	{r4, pc}
 2251              	.LVL337:
 2252              	.L170:
 496:Middlewares/ST/STM32_USB_Host_Library/Class/AUDIO/Src/usbh_audio.c ****     phost->pUser(phost, HOST_USER_CLASS_ACTIVE); 
 2253              		.loc 1 496 0
 2254 00dc 0123     		movs	r3, #1
 2255 00de A370     		strb	r3, [r4, #2]
 497:Middlewares/ST/STM32_USB_Host_Library/Class/AUDIO/Src/usbh_audio.c ****     status  = USBH_OK;    
 2256              		.loc 1 497 0
 2257 00e0 D0F89435 		ldr	r3, [r0, #1428]
 2258 00e4 0221     		movs	r1, #2
 2259 00e6 9847     		blx	r3
 2260              	.LVL338:
 498:Middlewares/ST/STM32_USB_Host_Library/Class/AUDIO/Src/usbh_audio.c **** #if (USBH_USE_OS == 1)
 2261              		.loc 1 498 0
 2262 00e8 0020     		movs	r0, #0
 2263 00ea 10BD     		pop	{r4, pc}
 2264              	.LVL339:
 2265              	.L179:
 392:Middlewares/ST/STM32_USB_Host_Library/Class/AUDIO/Src/usbh_audio.c ****   USBH_StatusTypeDef req_status = USBH_BUSY;
 2266              		.loc 1 392 0
 2267 00ec 0120     		movs	r0, #1
 2268              	.LVL340:
 2269 00ee 10BD     		pop	{r4, pc}
 2270              	.LVL341:
 2271              	.L180:
 2272 00f0 0120     		movs	r0, #1
 2273              	.LVL342:
 2274 00f2 10BD     		pop	{r4, pc}
 2275              	.LVL343:
 2276              	.L181:
 2277 00f4 0120     		movs	r0, #1
 2278              	.LVL344:
 2279 00f6 10BD     		pop	{r4, pc}
 2280              	.LVL345:
 2281              	.L182:
 2282 00f8 0120     		movs	r0, #1
ARM GAS  /tmp/cc7hx4Eu.s 			page 80


 2283 00fa 10BD     		pop	{r4, pc}
 2284              	.LVL346:
 2285              	.L183:
 2286 00fc 0120     		movs	r0, #1
 2287              	.LVL347:
 2288 00fe 10BD     		pop	{r4, pc}
 2289              	.LVL348:
 2290              	.L184:
 2291 0100 0120     		movs	r0, #1
 2292              	.LVL349:
 506:Middlewares/ST/STM32_USB_Host_Library/Class/AUDIO/Src/usbh_audio.c **** 
 2293              		.loc 1 506 0
 2294 0102 10BD     		pop	{r4, pc}
 2295              		.cfi_endproc
 2296              	.LFE126:
 2298              		.section	.text.USBH_AUDIO_InterfaceDeInit,"ax",%progbits
 2299              		.align	2
 2300              		.thumb
 2301              		.thumb_func
 2303              	USBH_AUDIO_InterfaceDeInit:
 2304              	.LFB125:
 350:Middlewares/ST/STM32_USB_Host_Library/Class/AUDIO/Src/usbh_audio.c ****   AUDIO_HandleTypeDef *AUDIO_Handle =  (AUDIO_HandleTypeDef *) phost->pActiveClass->pData; 
 2305              		.loc 1 350 0
 2306              		.cfi_startproc
 2307              		@ args = 0, pretend = 0, frame = 0
 2308              		@ frame_needed = 0, uses_anonymous_args = 0
 2309              	.LVL350:
 2310 0000 38B5     		push	{r3, r4, r5, lr}
 2311              	.LCFI22:
 2312              		.cfi_def_cfa_offset 16
 2313              		.cfi_offset 3, -16
 2314              		.cfi_offset 4, -12
 2315              		.cfi_offset 5, -8
 2316              		.cfi_offset 14, -4
 2317 0002 0546     		mov	r5, r0
 351:Middlewares/ST/STM32_USB_Host_Library/Class/AUDIO/Src/usbh_audio.c ****   
 2318              		.loc 1 351 0
 2319 0004 D0F84435 		ldr	r3, [r0, #1348]
 2320 0008 DC69     		ldr	r4, [r3, #28]
 2321              	.LVL351:
 353:Middlewares/ST/STM32_USB_Host_Library/Class/AUDIO/Src/usbh_audio.c ****   {   
 2322              		.loc 1 353 0
 2323 000a 94F84311 		ldrb	r1, [r4, #323]	@ zero_extendqisi2
 2324 000e 49B1     		cbz	r1, .L187
 355:Middlewares/ST/STM32_USB_Host_Library/Class/AUDIO/Src/usbh_audio.c ****     USBH_FreePipe  (phost, AUDIO_Handle->microphone.Pipe);
 2325              		.loc 1 355 0
 2326 0010 FFF7FEFF 		bl	USBH_ClosePipe
 2327              	.LVL352:
 356:Middlewares/ST/STM32_USB_Host_Library/Class/AUDIO/Src/usbh_audio.c ****     AUDIO_Handle->microphone.Pipe = 0;     /* Reset the pipe as Free */  
 2328              		.loc 1 356 0
 2329 0014 94F84311 		ldrb	r1, [r4, #323]	@ zero_extendqisi2
 2330 0018 2846     		mov	r0, r5
 2331 001a FFF7FEFF 		bl	USBH_FreePipe
 2332              	.LVL353:
 357:Middlewares/ST/STM32_USB_Host_Library/Class/AUDIO/Src/usbh_audio.c ****   }
 2333              		.loc 1 357 0
 2334 001e 0023     		movs	r3, #0
ARM GAS  /tmp/cc7hx4Eu.s 			page 81


 2335 0020 84F84331 		strb	r3, [r4, #323]
 2336              	.L187:
 360:Middlewares/ST/STM32_USB_Host_Library/Class/AUDIO/Src/usbh_audio.c ****   {   
 2337              		.loc 1 360 0
 2338 0024 94F8FB10 		ldrb	r1, [r4, #251]	@ zero_extendqisi2
 2339 0028 51B1     		cbz	r1, .L188
 362:Middlewares/ST/STM32_USB_Host_Library/Class/AUDIO/Src/usbh_audio.c ****     USBH_FreePipe  (phost,  AUDIO_Handle->headphone.Pipe);
 2340              		.loc 1 362 0
 2341 002a 2846     		mov	r0, r5
 2342 002c FFF7FEFF 		bl	USBH_ClosePipe
 2343              	.LVL354:
 363:Middlewares/ST/STM32_USB_Host_Library/Class/AUDIO/Src/usbh_audio.c ****     AUDIO_Handle->headphone.Pipe = 0;     /* Reset the pipe as Free */  
 2344              		.loc 1 363 0
 2345 0030 94F8FB10 		ldrb	r1, [r4, #251]	@ zero_extendqisi2
 2346 0034 2846     		mov	r0, r5
 2347 0036 FFF7FEFF 		bl	USBH_FreePipe
 2348              	.LVL355:
 364:Middlewares/ST/STM32_USB_Host_Library/Class/AUDIO/Src/usbh_audio.c ****   }
 2349              		.loc 1 364 0
 2350 003a 0023     		movs	r3, #0
 2351 003c 84F8FB30 		strb	r3, [r4, #251]
 2352              	.L188:
 367:Middlewares/ST/STM32_USB_Host_Library/Class/AUDIO/Src/usbh_audio.c ****   {   
 2353              		.loc 1 367 0
 2354 0040 94F88A11 		ldrb	r1, [r4, #394]	@ zero_extendqisi2
 2355 0044 51B1     		cbz	r1, .L189
 369:Middlewares/ST/STM32_USB_Host_Library/Class/AUDIO/Src/usbh_audio.c ****     USBH_FreePipe  (phost,  AUDIO_Handle->control.Pipe);
 2356              		.loc 1 369 0
 2357 0046 2846     		mov	r0, r5
 2358 0048 FFF7FEFF 		bl	USBH_ClosePipe
 2359              	.LVL356:
 370:Middlewares/ST/STM32_USB_Host_Library/Class/AUDIO/Src/usbh_audio.c ****     AUDIO_Handle->control.Pipe = 0;     /* Reset the pipe as Free */  
 2360              		.loc 1 370 0
 2361 004c 94F88A11 		ldrb	r1, [r4, #394]	@ zero_extendqisi2
 2362 0050 2846     		mov	r0, r5
 2363 0052 FFF7FEFF 		bl	USBH_FreePipe
 2364              	.LVL357:
 371:Middlewares/ST/STM32_USB_Host_Library/Class/AUDIO/Src/usbh_audio.c ****   }
 2365              		.loc 1 371 0
 2366 0056 0023     		movs	r3, #0
 2367 0058 84F88A31 		strb	r3, [r4, #394]
 2368              	.L189:
 374:Middlewares/ST/STM32_USB_Host_Library/Class/AUDIO/Src/usbh_audio.c ****   {
 2369              		.loc 1 374 0
 2370 005c D5F84435 		ldr	r3, [r5, #1348]
 2371 0060 D869     		ldr	r0, [r3, #28]
 2372 0062 28B1     		cbz	r0, .L190
 376:Middlewares/ST/STM32_USB_Host_Library/Class/AUDIO/Src/usbh_audio.c ****     phost->pActiveClass->pData = 0;
 2373              		.loc 1 376 0
 2374 0064 FFF7FEFF 		bl	free
 2375              	.LVL358:
 377:Middlewares/ST/STM32_USB_Host_Library/Class/AUDIO/Src/usbh_audio.c ****   }  
 2376              		.loc 1 377 0
 2377 0068 D5F84435 		ldr	r3, [r5, #1348]
 2378 006c 0022     		movs	r2, #0
 2379 006e DA61     		str	r2, [r3, #28]
 2380              	.L190:
ARM GAS  /tmp/cc7hx4Eu.s 			page 82


 380:Middlewares/ST/STM32_USB_Host_Library/Class/AUDIO/Src/usbh_audio.c **** 
 2381              		.loc 1 380 0
 2382 0070 0020     		movs	r0, #0
 2383 0072 38BD     		pop	{r3, r4, r5, pc}
 2384              		.cfi_endproc
 2385              	.LFE125:
 2387              		.section	.text.USBH_AUDIO_FindHIDControl,"ax",%progbits
 2388              		.align	2
 2389              		.thumb
 2390              		.thumb_func
 2392              	USBH_AUDIO_FindHIDControl:
 2393              	.LFB133:
 758:Middlewares/ST/STM32_USB_Host_Library/Class/AUDIO/Src/usbh_audio.c ****   uint8_t interface;
 2394              		.loc 1 758 0
 2395              		.cfi_startproc
 2396              		@ args = 0, pretend = 0, frame = 0
 2397              		@ frame_needed = 0, uses_anonymous_args = 0
 2398              	.LVL359:
 2399 0000 38B5     		push	{r3, r4, r5, lr}
 2400              	.LCFI23:
 2401              		.cfi_def_cfa_offset 16
 2402              		.cfi_offset 3, -16
 2403              		.cfi_offset 4, -12
 2404              		.cfi_offset 5, -8
 2405              		.cfi_offset 14, -4
 2406 0002 0446     		mov	r4, r0
 2407              	.LVL360:
 763:Middlewares/ST/STM32_USB_Host_Library/Class/AUDIO/Src/usbh_audio.c **** 
 2408              		.loc 1 763 0
 2409 0004 D0F84435 		ldr	r3, [r0, #1348]
 2410 0008 DD69     		ldr	r5, [r3, #28]
 2411              	.LVL361:
 766:Middlewares/ST/STM32_USB_Host_Library/Class/AUDIO/Src/usbh_audio.c ****   if(interface != 0xFF)
 2412              		.loc 1 766 0
 2413 000a FF23     		movs	r3, #255
 2414 000c 0122     		movs	r2, #1
 2415 000e 1146     		mov	r1, r2
 2416 0010 FFF7FEFF 		bl	USBH_FindInterface
 2417              	.LVL362:
 767:Middlewares/ST/STM32_USB_Host_Library/Class/AUDIO/Src/usbh_audio.c ****   {
 2418              		.loc 1 767 0
 2419 0014 FF28     		cmp	r0, #255
 2420 0016 30D1     		bne	.L197
 760:Middlewares/ST/STM32_USB_Host_Library/Class/AUDIO/Src/usbh_audio.c ****   AUDIO_HandleTypeDef *AUDIO_Handle;
 2421              		.loc 1 760 0
 2422 0018 0220     		movs	r0, #2
 2423              	.LVL363:
 2424 001a 38BD     		pop	{r3, r4, r5, pc}
 2425              	.LVL364:
 2426              	.L196:
 771:Middlewares/ST/STM32_USB_Host_Library/Class/AUDIO/Src/usbh_audio.c ****         (phost->device.CfgDesc.Itf_Desc[interface].Ep_Desc[0].wMaxPacketSize > 0))
 2427              		.loc 1 771 0
 2428 001c 1946     		mov	r1, r3
 2429 001e 3222     		movs	r2, #50
 2430 0020 02FB0342 		mla	r2, r2, r3, r4
 2431 0024 92F84123 		ldrb	r2, [r2, #833]	@ zero_extendqisi2
 2432 0028 032A     		cmp	r2, #3
ARM GAS  /tmp/cc7hx4Eu.s 			page 83


 2433 002a 23D1     		bne	.L195
 772:Middlewares/ST/STM32_USB_Host_Library/Class/AUDIO/Src/usbh_audio.c ****       {
 2434              		.loc 1 772 0 discriminator 1
 2435 002c 3222     		movs	r2, #50
 2436 002e 02FB0342 		mla	r2, r2, r3, r4
 2437 0032 B2F84A23 		ldrh	r2, [r2, #842]
 771:Middlewares/ST/STM32_USB_Host_Library/Class/AUDIO/Src/usbh_audio.c ****         (phost->device.CfgDesc.Itf_Desc[interface].Ep_Desc[0].wMaxPacketSize > 0))
 2438              		.loc 1 771 0 discriminator 1
 2439 0036 EAB1     		cbz	r2, .L195
 774:Middlewares/ST/STM32_USB_Host_Library/Class/AUDIO/Src/usbh_audio.c ****         {
 2440              		.loc 1 774 0
 2441 0038 3222     		movs	r2, #50
 2442 003a 02FB0342 		mla	r2, r2, r3, r4
 2443 003e 92F84823 		ldrb	r2, [r2, #840]	@ zero_extendqisi2
 2444 0042 12F0800F 		tst	r2, #128
 2445 0046 15D0     		beq	.L195
 776:Middlewares/ST/STM32_USB_Host_Library/Class/AUDIO/Src/usbh_audio.c ****           AUDIO_Handle->control.EpSize = phost->device.CfgDesc.Itf_Desc[interface].Ep_Desc[0].wMaxP
 2446              		.loc 1 776 0
 2447 0048 85F88421 		strb	r2, [r5, #388]
 777:Middlewares/ST/STM32_USB_Host_Library/Class/AUDIO/Src/usbh_audio.c ****           AUDIO_Handle->control.interface = phost->device.CfgDesc.Itf_Desc[interface].bInterfaceNum
 2448              		.loc 1 777 0
 2449 004c 3223     		movs	r3, #50
 2450              	.LVL365:
 2451 004e 03FB0141 		mla	r1, r3, r1, r4
 2452 0052 B1F84A33 		ldrh	r3, [r1, #842]
 2453 0056 A5F88631 		strh	r3, [r5, #390]	@ movhi
 778:Middlewares/ST/STM32_USB_Host_Library/Class/AUDIO/Src/usbh_audio.c ****           AUDIO_Handle->control.Poll = phost->device.CfgDesc.Itf_Desc[interface].Ep_Desc[0].bInterv
 2454              		.loc 1 778 0
 2455 005a 91F83E33 		ldrb	r3, [r1, #830]	@ zero_extendqisi2
 2456 005e 85F88831 		strb	r3, [r5, #392]
 779:Middlewares/ST/STM32_USB_Host_Library/Class/AUDIO/Src/usbh_audio.c ****           AUDIO_Handle->control.supported = 1;
 2457              		.loc 1 779 0
 2458 0062 91F84C33 		ldrb	r3, [r1, #844]	@ zero_extendqisi2
 2459 0066 85F88B31 		strb	r3, [r5, #395]
 780:Middlewares/ST/STM32_USB_Host_Library/Class/AUDIO/Src/usbh_audio.c ****           status = USBH_OK;
 2460              		.loc 1 780 0
 2461 006a 0123     		movs	r3, #1
 2462 006c 85F88931 		strb	r3, [r5, #393]
 2463              	.LVL366:
 781:Middlewares/ST/STM32_USB_Host_Library/Class/AUDIO/Src/usbh_audio.c ****           break;
 2464              		.loc 1 781 0
 2465 0070 0020     		movs	r0, #0
 782:Middlewares/ST/STM32_USB_Host_Library/Class/AUDIO/Src/usbh_audio.c ****         }
 2466              		.loc 1 782 0
 2467 0072 38BD     		pop	{r3, r4, r5, pc}
 2468              	.LVL367:
 2469              	.L195:
 769:Middlewares/ST/STM32_USB_Host_Library/Class/AUDIO/Src/usbh_audio.c ****     {
 2470              		.loc 1 769 0 discriminator 2
 2471 0074 0133     		adds	r3, r3, #1
 2472              	.LVL368:
 2473 0076 DBB2     		uxtb	r3, r3
 2474              	.LVL369:
 2475 0078 00E0     		b	.L193
 2476              	.LVL370:
 2477              	.L197:
 2478 007a 0023     		movs	r3, #0
ARM GAS  /tmp/cc7hx4Eu.s 			page 84


 2479              	.LVL371:
 2480              	.L193:
 769:Middlewares/ST/STM32_USB_Host_Library/Class/AUDIO/Src/usbh_audio.c ****     {
 2481              		.loc 1 769 0 is_stmt 0 discriminator 1
 2482 007c 092B     		cmp	r3, #9
 2483 007e CDD9     		bls	.L196
 760:Middlewares/ST/STM32_USB_Host_Library/Class/AUDIO/Src/usbh_audio.c ****   AUDIO_HandleTypeDef *AUDIO_Handle;
 2484              		.loc 1 760 0 is_stmt 1
 2485 0080 0220     		movs	r0, #2
 2486              	.LVL372:
 788:Middlewares/ST/STM32_USB_Host_Library/Class/AUDIO/Src/usbh_audio.c **** 
 2487              		.loc 1 788 0
 2488 0082 38BD     		pop	{r3, r4, r5, pc}
 2489              		.cfi_endproc
 2490              	.LFE133:
 2492              		.section	.text.USBH_AUDIO_ParseCSDescriptors,"ax",%progbits
 2493              		.align	2
 2494              		.thumb
 2495              		.thumb_func
 2497              	USBH_AUDIO_ParseCSDescriptors:
 2498              	.LFB134:
 796:Middlewares/ST/STM32_USB_Host_Library/Class/AUDIO/Src/usbh_audio.c ****   USBH_DescHeader_t            *pdesc ;
 2499              		.loc 1 796 0
 2500              		.cfi_startproc
 2501              		@ args = 0, pretend = 0, frame = 8
 2502              		@ frame_needed = 0, uses_anonymous_args = 0
 2503              	.LVL373:
 2504 0000 2DE9F041 		push	{r4, r5, r6, r7, r8, lr}
 2505              	.LCFI24:
 2506              		.cfi_def_cfa_offset 24
 2507              		.cfi_offset 4, -24
 2508              		.cfi_offset 5, -20
 2509              		.cfi_offset 6, -16
 2510              		.cfi_offset 7, -12
 2511              		.cfi_offset 8, -8
 2512              		.cfi_offset 14, -4
 2513 0004 82B0     		sub	sp, sp, #8
 2514              	.LCFI25:
 2515              		.cfi_def_cfa_offset 32
 2516 0006 0546     		mov	r5, r0
 2517              	.LVL374:
 804:Middlewares/ST/STM32_USB_Host_Library/Class/AUDIO/Src/usbh_audio.c ****   pdesc   = (USBH_DescHeader_t *)(phost->device.CfgDesc_Raw);
 2518              		.loc 1 804 0
 2519 0008 D0F84435 		ldr	r3, [r0, #1348]
 2520 000c DF69     		ldr	r7, [r3, #28]
 2521              	.LVL375:
 805:Middlewares/ST/STM32_USB_Host_Library/Class/AUDIO/Src/usbh_audio.c ****   ptr = USB_LEN_CFG_DESC;
 2522              		.loc 1 805 0
 2523 000e 00F11C04 		add	r4, r0, #28
 2524              	.LVL376:
 806:Middlewares/ST/STM32_USB_Host_Library/Class/AUDIO/Src/usbh_audio.c ****   
 2525              		.loc 1 806 0
 2526 0012 0923     		movs	r3, #9
 2527 0014 ADF80630 		strh	r3, [sp, #6]	@ movhi
 808:Middlewares/ST/STM32_USB_Host_Library/Class/AUDIO/Src/usbh_audio.c ****   AUDIO_Handle->class_desc.InputTerminalNum = 0;
 2528              		.loc 1 808 0
 2529 0018 0020     		movs	r0, #0
ARM GAS  /tmp/cc7hx4Eu.s 			page 85


 2530              	.LVL377:
 2531 001a A7F8EE00 		strh	r0, [r7, #238]	@ movhi
 809:Middlewares/ST/STM32_USB_Host_Library/Class/AUDIO/Src/usbh_audio.c ****   AUDIO_Handle->class_desc.OutputTerminalNum = 0;  
 2532              		.loc 1 809 0
 2533 001e A7F8EA00 		strh	r0, [r7, #234]	@ movhi
 810:Middlewares/ST/STM32_USB_Host_Library/Class/AUDIO/Src/usbh_audio.c ****   AUDIO_Handle->class_desc.ASNum = 0;
 2534              		.loc 1 810 0
 2535 0022 A7F8EC00 		strh	r0, [r7, #236]	@ movhi
 811:Middlewares/ST/STM32_USB_Host_Library/Class/AUDIO/Src/usbh_audio.c ****   
 2536              		.loc 1 811 0
 2537 0026 A7F8E800 		strh	r0, [r7, #232]	@ movhi
 800:Middlewares/ST/STM32_USB_Host_Library/Class/AUDIO/Src/usbh_audio.c ****   int8_t                        alt_setting;   
 2538              		.loc 1 800 0
 2539 002a 0646     		mov	r6, r0
 799:Middlewares/ST/STM32_USB_Host_Library/Class/AUDIO/Src/usbh_audio.c ****   int8_t                        itf_number = 0; 
 2540              		.loc 1 799 0
 2541 002c 8046     		mov	r8, r0
 813:Middlewares/ST/STM32_USB_Host_Library/Class/AUDIO/Src/usbh_audio.c ****   {
 2542              		.loc 1 813 0
 2543 002e 22E0     		b	.L200
 2544              	.LVL378:
 2545              	.L204:
 815:Middlewares/ST/STM32_USB_Host_Library/Class/AUDIO/Src/usbh_audio.c ****     
 2546              		.loc 1 815 0
 2547 0030 0DF10601 		add	r1, sp, #6
 2548 0034 2046     		mov	r0, r4
 2549 0036 FFF7FEFF 		bl	USBH_GetNextDesc
 2550              	.LVL379:
 2551 003a 0446     		mov	r4, r0
 2552              	.LVL380:
 817:Middlewares/ST/STM32_USB_Host_Library/Class/AUDIO/Src/usbh_audio.c ****     {
 2553              		.loc 1 817 0
 2554 003c 4378     		ldrb	r3, [r0, #1]	@ zero_extendqisi2
 2555 003e 042B     		cmp	r3, #4
 2556 0040 02D0     		beq	.L202
 2557 0042 242B     		cmp	r3, #36
 2558 0044 09D0     		beq	.L203
 2559 0046 16E0     		b	.L200
 2560              	.L202:
 821:Middlewares/ST/STM32_USB_Host_Library/Class/AUDIO/Src/usbh_audio.c ****       alt_setting = *((uint8_t *)pdesc + 3);
 2561              		.loc 1 821 0
 2562 0048 8178     		ldrb	r1, [r0, #2]	@ zero_extendqisi2
 2563 004a 4EB2     		sxtb	r6, r1
 2564              	.LVL381:
 823:Middlewares/ST/STM32_USB_Host_Library/Class/AUDIO/Src/usbh_audio.c ****       break;
 2565              		.loc 1 823 0
 2566 004c C278     		ldrb	r2, [r0, #3]	@ zero_extendqisi2
 2567 004e 2846     		mov	r0, r5
 2568              	.LVL382:
 2569 0050 FFF7FEFF 		bl	USBH_FindInterfaceIndex
 2570              	.LVL383:
 2571 0054 4FFA80F8 		sxtb	r8, r0
 2572              	.LVL384:
 824:Middlewares/ST/STM32_USB_Host_Library/Class/AUDIO/Src/usbh_audio.c ****       
 2573              		.loc 1 824 0
 2574 0058 0DE0     		b	.L200
 2575              	.LVL385:
ARM GAS  /tmp/cc7hx4Eu.s 			page 86


 2576              	.L203:
 827:Middlewares/ST/STM32_USB_Host_Library/Class/AUDIO/Src/usbh_audio.c ****       {
 2577              		.loc 1 827 0
 2578 005a 95F83633 		ldrb	r3, [r5, #822]	@ zero_extendqisi2
 2579 005e 9E42     		cmp	r6, r3
 2580 0060 09DC     		bgt	.L200
 830:Middlewares/ST/STM32_USB_Host_Library/Class/AUDIO/Src/usbh_audio.c ****                            phost->device.CfgDesc.Itf_Desc[itf_index].bInterfaceSubClass, 
 2581              		.loc 1 830 0
 2582 0062 3223     		movs	r3, #50
 2583 0064 03FB0853 		mla	r3, r3, r8, r5
 2584 0068 0246     		mov	r2, r0
 2585 006a 93F84213 		ldrb	r1, [r3, #834]	@ zero_extendqisi2
 2586 006e 07F16C00 		add	r0, r7, #108
 2587              	.LVL386:
 2588 0072 FFF7FEFF 		bl	ParseCSDescriptors
 2589              	.LVL387:
 2590              	.L200:
 813:Middlewares/ST/STM32_USB_Host_Library/Class/AUDIO/Src/usbh_audio.c ****   {
 2591              		.loc 1 813 0
 2592 0076 B5F83423 		ldrh	r2, [r5, #820]
 2593 007a BDF80630 		ldrh	r3, [sp, #6]
 2594 007e 9A42     		cmp	r2, r3
 2595 0080 D6D8     		bhi	.L204
 841:Middlewares/ST/STM32_USB_Host_Library/Class/AUDIO/Src/usbh_audio.c **** 
 2596              		.loc 1 841 0
 2597 0082 0020     		movs	r0, #0
 2598 0084 02B0     		add	sp, sp, #8
 2599              	.LCFI26:
 2600              		.cfi_def_cfa_offset 24
 2601              		@ sp needed
 2602 0086 BDE8F081 		pop	{r4, r5, r6, r7, r8, pc}
 2603              		.cfi_endproc
 2604              	.LFE134:
 2606 008a 00BF     		.section	.text.USBH_AUDIO_InterfaceInit,"ax",%progbits
 2607              		.align	2
 2608              		.thumb
 2609              		.thumb_func
 2611              	USBH_AUDIO_InterfaceInit:
 2612              	.LFB124:
 202:Middlewares/ST/STM32_USB_Host_Library/Class/AUDIO/Src/usbh_audio.c ****   USBH_StatusTypeDef status = USBH_FAIL ;
 2613              		.loc 1 202 0
 2614              		.cfi_startproc
 2615              		@ args = 0, pretend = 0, frame = 0
 2616              		@ frame_needed = 0, uses_anonymous_args = 0
 2617              	.LVL388:
 2618 0000 F0B5     		push	{r4, r5, r6, r7, lr}
 2619              	.LCFI27:
 2620              		.cfi_def_cfa_offset 20
 2621              		.cfi_offset 4, -20
 2622              		.cfi_offset 5, -16
 2623              		.cfi_offset 6, -12
 2624              		.cfi_offset 7, -8
 2625              		.cfi_offset 14, -4
 2626 0002 85B0     		sub	sp, sp, #20
 2627              	.LCFI28:
 2628              		.cfi_def_cfa_offset 40
 2629 0004 0546     		mov	r5, r0
ARM GAS  /tmp/cc7hx4Eu.s 			page 87


 2630              	.LVL389:
 210:Middlewares/ST/STM32_USB_Host_Library/Class/AUDIO/Src/usbh_audio.c ****   
 2631              		.loc 1 210 0
 2632 0006 0023     		movs	r3, #0
 2633 0008 0122     		movs	r2, #1
 2634 000a 1146     		mov	r1, r2
 2635 000c FFF7FEFF 		bl	USBH_FindInterface
 2636              	.LVL390:
 212:Middlewares/ST/STM32_USB_Host_Library/Class/AUDIO/Src/usbh_audio.c ****   {
 2637              		.loc 1 212 0
 2638 0010 FF28     		cmp	r0, #255
 2639 0012 00F0F980 		beq	.L216
 221:Middlewares/ST/STM32_USB_Host_Library/Class/AUDIO/Src/usbh_audio.c ****     AUDIO_Handle =  (AUDIO_HandleTypeDef *) phost->pActiveClass->pData; 
 2640              		.loc 1 221 0
 2641 0016 D5F84445 		ldr	r4, [r5, #1348]
 2642 001a 4FF4D270 		mov	r0, #420
 2643              	.LVL391:
 2644 001e FFF7FEFF 		bl	malloc
 2645              	.LVL392:
 2646 0022 E061     		str	r0, [r4, #28]
 222:Middlewares/ST/STM32_USB_Host_Library/Class/AUDIO/Src/usbh_audio.c ****     USBH_memset(AUDIO_Handle, 0, sizeof(AUDIO_HandleTypeDef));
 2647              		.loc 1 222 0
 2648 0024 D5F84435 		ldr	r3, [r5, #1348]
 2649 0028 DC69     		ldr	r4, [r3, #28]
 2650              	.LVL393:
 223:Middlewares/ST/STM32_USB_Host_Library/Class/AUDIO/Src/usbh_audio.c ****     
 2651              		.loc 1 223 0
 2652 002a 4FF4D272 		mov	r2, #420
 2653 002e 0021     		movs	r1, #0
 2654 0030 2046     		mov	r0, r4
 2655 0032 FFF7FEFF 		bl	memset
 2656              	.LVL394:
 227:Middlewares/ST/STM32_USB_Host_Library/Class/AUDIO/Src/usbh_audio.c ****     
 2657              		.loc 1 227 0
 2658 0036 2846     		mov	r0, r5
 2659 0038 FFF7FEFF 		bl	USBH_AUDIO_FindAudioStreamingIN
 2660              	.LVL395:
 2661 003c 0646     		mov	r6, r0
 2662              	.LVL396:
 229:Middlewares/ST/STM32_USB_Host_Library/Class/AUDIO/Src/usbh_audio.c ****     
 2663              		.loc 1 229 0
 2664 003e 2846     		mov	r0, r5
 2665 0040 FFF7FEFF 		bl	USBH_AUDIO_FindAudioStreamingOUT
 2666              	.LVL397:
 231:Middlewares/ST/STM32_USB_Host_Library/Class/AUDIO/Src/usbh_audio.c ****     {
 2667              		.loc 1 231 0
 2668 0044 022E     		cmp	r6, #2
 2669 0046 62D1     		bne	.L217
 231:Middlewares/ST/STM32_USB_Host_Library/Class/AUDIO/Src/usbh_audio.c ****     {
 2670              		.loc 1 231 0 is_stmt 0 discriminator 1
 2671 0048 0228     		cmp	r0, #2
 2672 004a 00F0DF80 		beq	.L218
 2673 004e 0027     		movs	r7, #0
 2674 0050 3E46     		mov	r6, r7
 2675              	.LVL398:
 2676 0052 3B46     		mov	r3, r7
 2677 0054 5EE0     		b	.L208
ARM GAS  /tmp/cc7hx4Eu.s 			page 88


 2678              	.LVL399:
 2679              	.L211:
 240:Middlewares/ST/STM32_USB_Host_Library/Class/AUDIO/Src/usbh_audio.c ****         {
 2680              		.loc 1 240 0 is_stmt 1
 2681 0056 1946     		mov	r1, r3
 2682 0058 03EB8300 		add	r0, r3, r3, lsl #2
 2683 005c 4200     		lsls	r2, r0, #1
 2684 005e 2244     		add	r2, r2, r4
 2685 0060 92F83E20 		ldrb	r2, [r2, #62]	@ zero_extendqisi2
 2686 0064 012A     		cmp	r2, #1
 2687 0066 21D1     		bne	.L209
 242:Middlewares/ST/STM32_USB_Host_Library/Class/AUDIO/Src/usbh_audio.c ****           {
 2688              		.loc 1 242 0
 2689 0068 03EB8300 		add	r0, r3, r3, lsl #2
 2690 006c 4200     		lsls	r2, r0, #1
 2691 006e 2244     		add	r2, r2, r4
 2692 0070 508F     		ldrh	r0, [r2, #58]
 2693 0072 8642     		cmp	r6, r0
 2694 0074 1AD2     		bcs	.L209
 2695              	.LVL400:
 245:Middlewares/ST/STM32_USB_Host_Library/Class/AUDIO/Src/usbh_audio.c ****             AUDIO_Handle->headphone.AltSettings = AUDIO_Handle->stream_out[index].AltSettings;     
 2696              		.loc 1 245 0
 2697 0076 9E00     		lsls	r6, r3, #2
 2698 0078 1E44     		add	r6, r6, r3
 2699 007a 7200     		lsls	r2, r6, #1
 2700 007c 2244     		add	r2, r2, r4
 2701 007e 92F83D60 		ldrb	r6, [r2, #61]	@ zero_extendqisi2
 2702 0082 84F8F860 		strb	r6, [r4, #248]
 246:Middlewares/ST/STM32_USB_Host_Library/Class/AUDIO/Src/usbh_audio.c ****             AUDIO_Handle->headphone.Ep = AUDIO_Handle->stream_out[index].Ep;
 2703              		.loc 1 246 0
 2704 0086 92F83C60 		ldrb	r6, [r2, #60]	@ zero_extendqisi2
 2705 008a 84F8F960 		strb	r6, [r4, #249]
 247:Middlewares/ST/STM32_USB_Host_Library/Class/AUDIO/Src/usbh_audio.c ****             AUDIO_Handle->headphone.EpSize = AUDIO_Handle->stream_out[index].EpSize; 
 2706              		.loc 1 247 0
 2707 008e 92F83860 		ldrb	r6, [r2, #56]	@ zero_extendqisi2
 2708 0092 84F8F460 		strb	r6, [r4, #244]
 248:Middlewares/ST/STM32_USB_Host_Library/Class/AUDIO/Src/usbh_audio.c ****             AUDIO_Handle->headphone.Poll = AUDIO_Handle->stream_out[index].Poll;
 2709              		.loc 1 248 0
 2710 0096 568F     		ldrh	r6, [r2, #58]
 2711 0098 A4F8F660 		strh	r6, [r4, #246]	@ movhi
 249:Middlewares/ST/STM32_USB_Host_Library/Class/AUDIO/Src/usbh_audio.c ****             AUDIO_Handle->headphone.supported = 1;  
 2712              		.loc 1 249 0
 2713 009c B2F84020 		ldrh	r2, [r2, #64]
 2714 00a0 84F8FC20 		strb	r2, [r4, #252]
 250:Middlewares/ST/STM32_USB_Host_Library/Class/AUDIO/Src/usbh_audio.c ****           }
 2715              		.loc 1 250 0
 2716 00a4 0122     		movs	r2, #1
 2717 00a6 84F8FA20 		strb	r2, [r4, #250]
 244:Middlewares/ST/STM32_USB_Host_Library/Class/AUDIO/Src/usbh_audio.c ****             AUDIO_Handle->headphone.interface = AUDIO_Handle->stream_out[index].interface;
 2718              		.loc 1 244 0
 2719 00aa 0646     		mov	r6, r0
 2720              	.LVL401:
 2721              	.L209:
 254:Middlewares/ST/STM32_USB_Host_Library/Class/AUDIO/Src/usbh_audio.c ****         {
 2722              		.loc 1 254 0
 2723 00ac 01EB8100 		add	r0, r1, r1, lsl #2
 2724 00b0 4200     		lsls	r2, r0, #1
ARM GAS  /tmp/cc7hx4Eu.s 			page 89


 2725 00b2 2244     		add	r2, r2, r4
 2726 00b4 127B     		ldrb	r2, [r2, #12]	@ zero_extendqisi2
 2727 00b6 012A     		cmp	r2, #1
 2728 00b8 26D1     		bne	.L210
 256:Middlewares/ST/STM32_USB_Host_Library/Class/AUDIO/Src/usbh_audio.c ****           {
 2729              		.loc 1 256 0
 2730 00ba 01EB8100 		add	r0, r1, r1, lsl #2
 2731 00be 4200     		lsls	r2, r0, #1
 2732 00c0 2244     		add	r2, r2, r4
 2733 00c2 1089     		ldrh	r0, [r2, #8]
 2734 00c4 8742     		cmp	r7, r0
 2735 00c6 1FD2     		bcs	.L210
 2736              	.LVL402:
 259:Middlewares/ST/STM32_USB_Host_Library/Class/AUDIO/Src/usbh_audio.c ****             AUDIO_Handle->microphone.AltSettings = AUDIO_Handle->stream_in[index].AltSettings;     
 2737              		.loc 1 259 0
 2738 00c8 8F00     		lsls	r7, r1, #2
 2739 00ca 07EB010E 		add	lr, r7, r1
 2740 00ce 4FEA4E02 		lsl	r2, lr, #1
 2741 00d2 2244     		add	r2, r2, r4
 2742 00d4 92F80BE0 		ldrb	lr, [r2, #11]	@ zero_extendqisi2
 2743 00d8 84F840E1 		strb	lr, [r4, #320]
 260:Middlewares/ST/STM32_USB_Host_Library/Class/AUDIO/Src/usbh_audio.c ****             AUDIO_Handle->microphone.Ep = AUDIO_Handle->stream_in[index].Ep;
 2744              		.loc 1 260 0
 2745 00dc 92F80AE0 		ldrb	lr, [r2, #10]	@ zero_extendqisi2
 2746 00e0 84F841E1 		strb	lr, [r4, #321]
 261:Middlewares/ST/STM32_USB_Host_Library/Class/AUDIO/Src/usbh_audio.c ****             AUDIO_Handle->microphone.EpSize = AUDIO_Handle->stream_in[index].EpSize;
 2747              		.loc 1 261 0
 2748 00e4 92F806E0 		ldrb	lr, [r2, #6]	@ zero_extendqisi2
 2749 00e8 84F83CE1 		strb	lr, [r4, #316]
 262:Middlewares/ST/STM32_USB_Host_Library/Class/AUDIO/Src/usbh_audio.c ****             AUDIO_Handle->microphone.Poll = AUDIO_Handle->stream_out[index].Poll;         
 2750              		.loc 1 262 0
 2751 00ec 1289     		ldrh	r2, [r2, #8]
 2752 00ee A4F83E21 		strh	r2, [r4, #318]	@ movhi
 263:Middlewares/ST/STM32_USB_Host_Library/Class/AUDIO/Src/usbh_audio.c ****             AUDIO_Handle->microphone.supported = 1;       
 2753              		.loc 1 263 0
 2754 00f2 3944     		add	r1, r1, r7
 2755 00f4 4A00     		lsls	r2, r1, #1
 2756 00f6 2244     		add	r2, r2, r4
 2757 00f8 B2F84020 		ldrh	r2, [r2, #64]
 2758 00fc 84F84421 		strb	r2, [r4, #324]
 264:Middlewares/ST/STM32_USB_Host_Library/Class/AUDIO/Src/usbh_audio.c ****           }
 2759              		.loc 1 264 0
 2760 0100 0122     		movs	r2, #1
 2761 0102 84F84221 		strb	r2, [r4, #322]
 258:Middlewares/ST/STM32_USB_Host_Library/Class/AUDIO/Src/usbh_audio.c ****             AUDIO_Handle->microphone.interface = AUDIO_Handle->stream_in[index].interface;
 2762              		.loc 1 258 0
 2763 0106 0746     		mov	r7, r0
 2764              	.LVL403:
 2765              	.L210:
 238:Middlewares/ST/STM32_USB_Host_Library/Class/AUDIO/Src/usbh_audio.c ****       {
 2766              		.loc 1 238 0 discriminator 2
 2767 0108 0133     		adds	r3, r3, #1
 2768              	.LVL404:
 2769 010a DBB2     		uxtb	r3, r3
 2770              	.LVL405:
 2771 010c 02E0     		b	.L208
 2772              	.LVL406:
ARM GAS  /tmp/cc7hx4Eu.s 			page 90


 2773              	.L217:
 2774 010e 0027     		movs	r7, #0
 2775 0110 3E46     		mov	r6, r7
 2776              	.LVL407:
 2777 0112 3B46     		mov	r3, r7
 2778              	.LVL408:
 2779              	.L208:
 238:Middlewares/ST/STM32_USB_Host_Library/Class/AUDIO/Src/usbh_audio.c ****       {
 2780              		.loc 1 238 0 is_stmt 0 discriminator 1
 2781 0114 042B     		cmp	r3, #4
 2782 0116 9ED9     		bls	.L211
 269:Middlewares/ST/STM32_USB_Host_Library/Class/AUDIO/Src/usbh_audio.c ****       {
 2783              		.loc 1 269 0 is_stmt 1
 2784 0118 2846     		mov	r0, r5
 2785 011a FFF7FEFF 		bl	USBH_AUDIO_FindHIDControl
 2786              	.LVL409:
 2787 011e 10B9     		cbnz	r0, .L212
 271:Middlewares/ST/STM32_USB_Host_Library/Class/AUDIO/Src/usbh_audio.c ****       }
 2788              		.loc 1 271 0
 2789 0120 0123     		movs	r3, #1
 2790 0122 84F88931 		strb	r3, [r4, #393]
 2791              	.L212:
 275:Middlewares/ST/STM32_USB_Host_Library/Class/AUDIO/Src/usbh_audio.c ****      
 2792              		.loc 1 275 0
 2793 0126 2846     		mov	r0, r5
 2794 0128 FFF7FEFF 		bl	USBH_AUDIO_ParseCSDescriptors
 2795              	.LVL410:
 279:Middlewares/ST/STM32_USB_Host_Library/Class/AUDIO/Src/usbh_audio.c ****       {
 2796              		.loc 1 279 0
 2797 012c 94F8FA30 		ldrb	r3, [r4, #250]	@ zero_extendqisi2
 2798 0130 012B     		cmp	r3, #1
 2799 0132 1FD1     		bne	.L213
 281:Middlewares/ST/STM32_USB_Host_Library/Class/AUDIO/Src/usbh_audio.c ****          
 2800              		.loc 1 281 0
 2801 0134 2846     		mov	r0, r5
 2802 0136 FFF7FEFF 		bl	USBH_AUDIO_BuildHeadphonePath
 2803              	.LVL411:
 283:Middlewares/ST/STM32_USB_Host_Library/Class/AUDIO/Src/usbh_audio.c ****         
 2804              		.loc 1 283 0
 2805 013a 94F8F410 		ldrb	r1, [r4, #244]	@ zero_extendqisi2
 2806 013e 2846     		mov	r0, r5
 2807 0140 FFF7FEFF 		bl	USBH_AllocPipe
 2808              	.LVL412:
 2809 0144 0146     		mov	r1, r0
 2810 0146 84F8FB00 		strb	r0, [r4, #251]
 286:Middlewares/ST/STM32_USB_Host_Library/Class/AUDIO/Src/usbh_audio.c ****                         AUDIO_Handle->headphone.Pipe,
 2811              		.loc 1 286 0
 2812 014a 95F81C33 		ldrb	r3, [r5, #796]	@ zero_extendqisi2
 2813 014e 94F8F420 		ldrb	r2, [r4, #244]	@ zero_extendqisi2
 2814 0152 B4F8F600 		ldrh	r0, [r4, #246]
 2815 0156 0290     		str	r0, [sp, #8]
 2816 0158 0120     		movs	r0, #1
 2817 015a 0190     		str	r0, [sp, #4]
 2818 015c 95F81D03 		ldrb	r0, [r5, #797]	@ zero_extendqisi2
 2819 0160 0090     		str	r0, [sp]
 2820 0162 2846     		mov	r0, r5
 2821 0164 FFF7FEFF 		bl	USBH_OpenPipe
ARM GAS  /tmp/cc7hx4Eu.s 			page 91


 2822              	.LVL413:
 294:Middlewares/ST/STM32_USB_Host_Library/Class/AUDIO/Src/usbh_audio.c ****         
 2823              		.loc 1 294 0
 2824 0168 0022     		movs	r2, #0
 2825 016a 94F8FB10 		ldrb	r1, [r4, #251]	@ zero_extendqisi2
 2826 016e 2846     		mov	r0, r5
 2827 0170 FFF7FEFF 		bl	USBH_LL_SetToggle
 2828              	.LVL414:
 2829              	.L213:
 298:Middlewares/ST/STM32_USB_Host_Library/Class/AUDIO/Src/usbh_audio.c ****       {
 2830              		.loc 1 298 0
 2831 0174 94F84231 		ldrb	r3, [r4, #322]	@ zero_extendqisi2
 2832 0178 012B     		cmp	r3, #1
 2833 017a 1FD1     		bne	.L214
 300:Middlewares/ST/STM32_USB_Host_Library/Class/AUDIO/Src/usbh_audio.c ****         AUDIO_Handle->microphone.Pipe  = USBH_AllocPipe(phost, AUDIO_Handle->microphone.Ep);
 2834              		.loc 1 300 0
 2835 017c 2846     		mov	r0, r5
 2836 017e FFF7FEFF 		bl	USBH_AUDIO_BuildMicrophonePath
 2837              	.LVL415:
 301:Middlewares/ST/STM32_USB_Host_Library/Class/AUDIO/Src/usbh_audio.c ****         
 2838              		.loc 1 301 0
 2839 0182 94F83C11 		ldrb	r1, [r4, #316]	@ zero_extendqisi2
 2840 0186 2846     		mov	r0, r5
 2841 0188 FFF7FEFF 		bl	USBH_AllocPipe
 2842              	.LVL416:
 2843 018c 0146     		mov	r1, r0
 2844 018e 84F84301 		strb	r0, [r4, #323]
 304:Middlewares/ST/STM32_USB_Host_Library/Class/AUDIO/Src/usbh_audio.c ****                         AUDIO_Handle->microphone.Pipe,
 2845              		.loc 1 304 0
 2846 0192 95F81C33 		ldrb	r3, [r5, #796]	@ zero_extendqisi2
 2847 0196 94F83C21 		ldrb	r2, [r4, #316]	@ zero_extendqisi2
 2848 019a B4F83E01 		ldrh	r0, [r4, #318]
 2849 019e 0290     		str	r0, [sp, #8]
 2850 01a0 0120     		movs	r0, #1
 2851 01a2 0190     		str	r0, [sp, #4]
 2852 01a4 95F81D03 		ldrb	r0, [r5, #797]	@ zero_extendqisi2
 2853 01a8 0090     		str	r0, [sp]
 2854 01aa 2846     		mov	r0, r5
 2855 01ac FFF7FEFF 		bl	USBH_OpenPipe
 2856              	.LVL417:
 312:Middlewares/ST/STM32_USB_Host_Library/Class/AUDIO/Src/usbh_audio.c ****       }
 2857              		.loc 1 312 0
 2858 01b0 0022     		movs	r2, #0
 2859 01b2 94F84311 		ldrb	r1, [r4, #323]	@ zero_extendqisi2
 2860 01b6 2846     		mov	r0, r5
 2861 01b8 FFF7FEFF 		bl	USBH_LL_SetToggle
 2862              	.LVL418:
 2863              	.L214:
 315:Middlewares/ST/STM32_USB_Host_Library/Class/AUDIO/Src/usbh_audio.c ****       {     
 2864              		.loc 1 315 0
 2865 01bc 94F88931 		ldrb	r3, [r4, #393]	@ zero_extendqisi2
 2866 01c0 012B     		cmp	r3, #1
 2867 01c2 1CD1     		bne	.L215
 317:Middlewares/ST/STM32_USB_Host_Library/Class/AUDIO/Src/usbh_audio.c ****         
 2868              		.loc 1 317 0
 2869 01c4 94F88411 		ldrb	r1, [r4, #388]	@ zero_extendqisi2
 2870 01c8 2846     		mov	r0, r5
ARM GAS  /tmp/cc7hx4Eu.s 			page 92


 2871 01ca FFF7FEFF 		bl	USBH_AllocPipe
 2872              	.LVL419:
 2873 01ce 0146     		mov	r1, r0
 2874 01d0 84F88A01 		strb	r0, [r4, #394]
 320:Middlewares/ST/STM32_USB_Host_Library/Class/AUDIO/Src/usbh_audio.c ****                         AUDIO_Handle->control.Pipe,
 2875              		.loc 1 320 0
 2876 01d4 95F81C33 		ldrb	r3, [r5, #796]	@ zero_extendqisi2
 2877 01d8 94F88421 		ldrb	r2, [r4, #388]	@ zero_extendqisi2
 2878 01dc B4F88601 		ldrh	r0, [r4, #390]
 2879 01e0 0290     		str	r0, [sp, #8]
 2880 01e2 0320     		movs	r0, #3
 2881 01e4 0190     		str	r0, [sp, #4]
 2882 01e6 95F81D03 		ldrb	r0, [r5, #797]	@ zero_extendqisi2
 2883 01ea 0090     		str	r0, [sp]
 2884 01ec 2846     		mov	r0, r5
 2885 01ee FFF7FEFF 		bl	USBH_OpenPipe
 2886              	.LVL420:
 328:Middlewares/ST/STM32_USB_Host_Library/Class/AUDIO/Src/usbh_audio.c ****    
 2887              		.loc 1 328 0
 2888 01f2 0022     		movs	r2, #0
 2889 01f4 94F88A11 		ldrb	r1, [r4, #394]	@ zero_extendqisi2
 2890 01f8 2846     		mov	r0, r5
 2891 01fa FFF7FEFF 		bl	USBH_LL_SetToggle
 2892              	.LVL421:
 2893              	.L215:
 332:Middlewares/ST/STM32_USB_Host_Library/Class/AUDIO/Src/usbh_audio.c ****       AUDIO_Handle->control_state = AUDIO_CONTROL_INIT;
 2894              		.loc 1 332 0
 2895 01fe 0123     		movs	r3, #1
 2896 0200 2370     		strb	r3, [r4]
 333:Middlewares/ST/STM32_USB_Host_Library/Class/AUDIO/Src/usbh_audio.c ****       
 2897              		.loc 1 333 0
 2898 0202 E370     		strb	r3, [r4, #3]
 2899              	.LVL422:
 335:Middlewares/ST/STM32_USB_Host_Library/Class/AUDIO/Src/usbh_audio.c ****     }
 2900              		.loc 1 335 0
 2901 0204 0020     		movs	r0, #0
 2902 0206 02E0     		b	.L207
 2903              	.LVL423:
 2904              	.L216:
 215:Middlewares/ST/STM32_USB_Host_Library/Class/AUDIO/Src/usbh_audio.c ****   }
 2905              		.loc 1 215 0
 2906 0208 0220     		movs	r0, #2
 2907              	.LVL424:
 2908 020a 00E0     		b	.L207
 2909              	.LVL425:
 2910              	.L218:
 203:Middlewares/ST/STM32_USB_Host_Library/Class/AUDIO/Src/usbh_audio.c ****   USBH_StatusTypeDef out_status, in_status ;    
 2911              		.loc 1 203 0
 2912 020c 0220     		movs	r0, #2
 2913              	.LVL426:
 2914              	.L207:
 339:Middlewares/ST/STM32_USB_Host_Library/Class/AUDIO/Src/usbh_audio.c **** 
 2915              		.loc 1 339 0
 2916 020e 05B0     		add	sp, sp, #20
 2917              	.LCFI29:
 2918              		.cfi_def_cfa_offset 20
 2919              		@ sp needed
ARM GAS  /tmp/cc7hx4Eu.s 			page 93


 2920 0210 F0BD     		pop	{r4, r5, r6, r7, pc}
 2921              		.cfi_endproc
 2922              	.LFE124:
 2924 0212 00BF     		.section	.text.USBH_AUDIO_SetFrequency,"ax",%progbits
 2925              		.align	2
 2926              		.global	USBH_AUDIO_SetFrequency
 2927              		.thumb
 2928              		.thumb_func
 2930              	USBH_AUDIO_SetFrequency:
 2931              	.LFB149:
1673:Middlewares/ST/STM32_USB_Host_Library/Class/AUDIO/Src/usbh_audio.c ****   USBH_StatusTypeDef Status = USBH_BUSY;
 2932              		.loc 1 1673 0
 2933              		.cfi_startproc
 2934              		@ args = 0, pretend = 0, frame = 0
 2935              		@ frame_needed = 0, uses_anonymous_args = 0
 2936              	.LVL427:
 2937 0000 F0B5     		push	{r4, r5, r6, r7, lr}
 2938              	.LCFI30:
 2939              		.cfi_def_cfa_offset 20
 2940              		.cfi_offset 4, -20
 2941              		.cfi_offset 5, -16
 2942              		.cfi_offset 6, -12
 2943              		.cfi_offset 7, -8
 2944              		.cfi_offset 14, -4
 2945              	.LVL428:
1681:Middlewares/ST/STM32_USB_Host_Library/Class/AUDIO/Src/usbh_audio.c ****   {
 2946              		.loc 1 1681 0
 2947 0002 0478     		ldrb	r4, [r0]	@ zero_extendqisi2
 2948 0004 E4B2     		uxtb	r4, r4
 2949 0006 0A2C     		cmp	r4, #10
 2950 0008 59D1     		bne	.L226
1683:Middlewares/ST/STM32_USB_Host_Library/Class/AUDIO/Src/usbh_audio.c ****     if(AUDIO_Handle->play_state == AUDIO_PLAYBACK_IDLE)
 2951              		.loc 1 1683 0
 2952 000a D0F84405 		ldr	r0, [r0, #1348]
 2953              	.LVL429:
 2954 000e D0F81CE0 		ldr	lr, [r0, #28]
 2955              	.LVL430:
1684:Middlewares/ST/STM32_USB_Host_Library/Class/AUDIO/Src/usbh_audio.c ****     {
 2956              		.loc 1 1684 0
 2957 0012 9EF80200 		ldrb	r0, [lr, #2]	@ zero_extendqisi2
 2958 0016 0528     		cmp	r0, #5
 2959 0018 53D1     		bne	.L227
1687:Middlewares/ST/STM32_USB_Host_Library/Class/AUDIO/Src/usbh_audio.c ****       { 
 2960              		.loc 1 1687 0
 2961 001a 9EF80401 		ldrb	r0, [lr, #260]	@ zero_extendqisi2
 2962 001e 1730     		adds	r0, r0, #23
 2963 0020 0EEBC000 		add	r0, lr, r0, lsl #3
 2964 0024 C668     		ldr	r6, [r0, #12]
 2965 0026 F079     		ldrb	r0, [r6, #7]	@ zero_extendqisi2
 2966 0028 98B9     		cbnz	r0, .L222
1689:Middlewares/ST/STM32_USB_Host_Library/Class/AUDIO/Src/usbh_audio.c ****         freq_max = LE24(AUDIO_Handle->class_desc.as_desc[AUDIO_Handle->headphone.asociated_as].Form
 2967              		.loc 1 1689 0
 2968 002a 307A     		ldrb	r0, [r6, #8]	@ zero_extendqisi2
 2969 002c 747A     		ldrb	r4, [r6, #9]	@ zero_extendqisi2
 2970 002e 00EB0420 		add	r0, r0, r4, lsl #8
 2971 0032 B47A     		ldrb	r4, [r6, #10]	@ zero_extendqisi2
 2972 0034 00EB0440 		add	r0, r0, r4, lsl #16
ARM GAS  /tmp/cc7hx4Eu.s 			page 94


 2973              	.LVL431:
1690:Middlewares/ST/STM32_USB_Host_Library/Class/AUDIO/Src/usbh_audio.c ****         
 2974              		.loc 1 1690 0
 2975 0038 F47A     		ldrb	r4, [r6, #11]	@ zero_extendqisi2
 2976 003a 357B     		ldrb	r5, [r6, #12]	@ zero_extendqisi2
 2977 003c 04EB0524 		add	r4, r4, r5, lsl #8
 2978 0040 757B     		ldrb	r5, [r6, #13]	@ zero_extendqisi2
 2979 0042 04EB0544 		add	r4, r4, r5, lsl #16
 2980              	.LVL432:
1692:Middlewares/ST/STM32_USB_Host_Library/Class/AUDIO/Src/usbh_audio.c ****         {
 2981              		.loc 1 1692 0
 2982 0046 8842     		cmp	r0, r1
 2983 0048 20D8     		bhi	.L228
1692:Middlewares/ST/STM32_USB_Host_Library/Class/AUDIO/Src/usbh_audio.c ****         {
 2984              		.loc 1 1692 0 is_stmt 0 discriminator 1
 2985 004a 8C42     		cmp	r4, r1
 2986 004c 20D2     		bcs	.L229
1677:Middlewares/ST/STM32_USB_Host_Library/Class/AUDIO/Src/usbh_audio.c ****   uint32_t             freq_min, freq_max;
 2987              		.loc 1 1677 0 is_stmt 1
 2988 004e 0020     		movs	r0, #0
 2989              	.LVL433:
 2990 0050 21E0     		b	.L223
 2991              	.LVL434:
 2992              	.L222:
1700:Middlewares/ST/STM32_USB_Host_Library/Class/AUDIO/Src/usbh_audio.c ****         
 2993              		.loc 1 1700 0
 2994 0052 3778     		ldrb	r7, [r6]	@ zero_extendqisi2
 2995 0054 083F     		subs	r7, r7, #8
 2996 0056 1D48     		ldr	r0, .L233
 2997 0058 80FB0740 		smull	r4, r0, r0, r7
 2998 005c A0EBE777 		sub	r7, r0, r7, asr #31
 2999 0060 FFB2     		uxtb	r7, r7
 3000              	.LVL435:
1703:Middlewares/ST/STM32_USB_Host_Library/Class/AUDIO/Src/usbh_audio.c ****         {
 3001              		.loc 1 1703 0
 3002 0062 0020     		movs	r0, #0
 3003 0064 0EE0     		b	.L224
 3004              	.LVL436:
 3005              	.L225:
1705:Middlewares/ST/STM32_USB_Host_Library/Class/AUDIO/Src/usbh_audio.c ****           {
 3006              		.loc 1 1705 0
 3007 0066 00EB4005 		add	r5, r0, r0, lsl #1
 3008 006a 3544     		add	r5, r5, r6
 3009 006c 2C7A     		ldrb	r4, [r5, #8]	@ zero_extendqisi2
 3010 006e 95F809C0 		ldrb	ip, [r5, #9]	@ zero_extendqisi2
 3011 0072 04EB0C24 		add	r4, r4, ip, lsl #8
 3012 0076 AD7A     		ldrb	r5, [r5, #10]	@ zero_extendqisi2
 3013 0078 04EB0544 		add	r4, r4, r5, lsl #16
 3014 007c A142     		cmp	r1, r4
 3015 007e 09D0     		beq	.L230
1703:Middlewares/ST/STM32_USB_Host_Library/Class/AUDIO/Src/usbh_audio.c ****         {
 3016              		.loc 1 1703 0 discriminator 2
 3017 0080 0130     		adds	r0, r0, #1
 3018              	.LVL437:
 3019 0082 C0B2     		uxtb	r0, r0
 3020              	.LVL438:
 3021              	.L224:
ARM GAS  /tmp/cc7hx4Eu.s 			page 95


1703:Middlewares/ST/STM32_USB_Host_Library/Class/AUDIO/Src/usbh_audio.c ****         {
 3022              		.loc 1 1703 0 is_stmt 0 discriminator 1
 3023 0084 B842     		cmp	r0, r7
 3024 0086 EED3     		bcc	.L225
1677:Middlewares/ST/STM32_USB_Host_Library/Class/AUDIO/Src/usbh_audio.c ****   uint32_t             freq_min, freq_max;
 3025              		.loc 1 1677 0 is_stmt 1
 3026 0088 0020     		movs	r0, #0
 3027              	.LVL439:
 3028 008a 04E0     		b	.L223
 3029              	.LVL440:
 3030              	.L228:
 3031 008c 0020     		movs	r0, #0
 3032              	.LVL441:
 3033 008e 02E0     		b	.L223
 3034              	.LVL442:
 3035              	.L229:
1694:Middlewares/ST/STM32_USB_Host_Library/Class/AUDIO/Src/usbh_audio.c ****         }
 3036              		.loc 1 1694 0
 3037 0090 0120     		movs	r0, #1
 3038              	.LVL443:
 3039 0092 00E0     		b	.L223
 3040              	.LVL444:
 3041              	.L230:
1707:Middlewares/ST/STM32_USB_Host_Library/Class/AUDIO/Src/usbh_audio.c ****             break;
 3042              		.loc 1 1707 0
 3043 0094 0120     		movs	r0, #1
 3044              	.LVL445:
 3045              	.L223:
1713:Middlewares/ST/STM32_USB_Host_Library/Class/AUDIO/Src/usbh_audio.c ****       {
 3046              		.loc 1 1713 0
 3047 0096 B0B1     		cbz	r0, .L231
1715:Middlewares/ST/STM32_USB_Host_Library/Class/AUDIO/Src/usbh_audio.c ****         AUDIO_Handle->headphone.frame_length    = (SampleRate * BitPerSample * NbrChannels) / 8000;
 3048              		.loc 1 1715 0
 3049 0098 CEF80C11 		str	r1, [lr, #268]
1716:Middlewares/ST/STM32_USB_Host_Library/Class/AUDIO/Src/usbh_audio.c ****         AUDIO_Handle->play_state = AUDIO_PLAYBACK_SET_EP;
 3050              		.loc 1 1716 0
 3051 009c 03FB01F1 		mul	r1, r3, r1
 3052              	.LVL446:
 3053 00a0 01FB02F2 		mul	r2, r1, r2
 3054              	.LVL447:
 3055 00a4 0A4B     		ldr	r3, .L233+4
 3056              	.LVL448:
 3057 00a6 83FB0213 		smull	r1, r3, r3, r2
 3058 00aa D217     		asrs	r2, r2, #31
 3059 00ac C2EB6322 		rsb	r2, r2, r3, asr #9
 3060 00b0 AEF82021 		strh	r2, [lr, #288]	@ movhi
1717:Middlewares/ST/STM32_USB_Host_Library/Class/AUDIO/Src/usbh_audio.c ****         Status = USBH_OK;  
 3061              		.loc 1 1717 0
 3062 00b4 0223     		movs	r3, #2
 3063 00b6 8EF80230 		strb	r3, [lr, #2]
 3064              	.LVL449:
1718:Middlewares/ST/STM32_USB_Host_Library/Class/AUDIO/Src/usbh_audio.c ****         
 3065              		.loc 1 1718 0
 3066 00ba 0020     		movs	r0, #0
 3067              	.LVL450:
 3068 00bc F0BD     		pop	{r4, r5, r6, r7, pc}
 3069              	.LVL451:
ARM GAS  /tmp/cc7hx4Eu.s 			page 96


 3070              	.L226:
1674:Middlewares/ST/STM32_USB_Host_Library/Class/AUDIO/Src/usbh_audio.c ****   AUDIO_HandleTypeDef *AUDIO_Handle; 
 3071              		.loc 1 1674 0
 3072 00be 0120     		movs	r0, #1
 3073              	.LVL452:
 3074 00c0 F0BD     		pop	{r4, r5, r6, r7, pc}
 3075              	.LVL453:
 3076              	.L227:
 3077 00c2 0120     		movs	r0, #1
 3078 00c4 F0BD     		pop	{r4, r5, r6, r7, pc}
 3079              	.LVL454:
 3080              	.L231:
 3081 00c6 0120     		movs	r0, #1
 3082              	.LVL455:
1724:Middlewares/ST/STM32_USB_Host_Library/Class/AUDIO/Src/usbh_audio.c **** 
 3083              		.loc 1 1724 0
 3084 00c8 F0BD     		pop	{r4, r5, r6, r7, pc}
 3085              	.L234:
 3086 00ca 00BF     		.align	2
 3087              	.L233:
 3088 00cc 56555555 		.word	1431655766
 3089 00d0 D34D6210 		.word	274877907
 3090              		.cfi_endproc
 3091              	.LFE149:
 3093              		.section	.text.USBH_AUDIO_Play,"ax",%progbits
 3094              		.align	2
 3095              		.global	USBH_AUDIO_Play
 3096              		.thumb
 3097              		.thumb_func
 3099              	USBH_AUDIO_Play:
 3100              	.LFB150:
1735:Middlewares/ST/STM32_USB_Host_Library/Class/AUDIO/Src/usbh_audio.c ****   USBH_StatusTypeDef Status = USBH_FAIL;
 3101              		.loc 1 1735 0
 3102              		.cfi_startproc
 3103              		@ args = 0, pretend = 0, frame = 0
 3104              		@ frame_needed = 0, uses_anonymous_args = 0
 3105              		@ link register save eliminated.
 3106              	.LVL456:
1739:Middlewares/ST/STM32_USB_Host_Library/Class/AUDIO/Src/usbh_audio.c ****   {
 3107              		.loc 1 1739 0
 3108 0000 0378     		ldrb	r3, [r0]	@ zero_extendqisi2
 3109 0002 DBB2     		uxtb	r3, r3
 3110 0004 0A2B     		cmp	r3, #10
 3111 0006 10D1     		bne	.L237
1741:Middlewares/ST/STM32_USB_Host_Library/Class/AUDIO/Src/usbh_audio.c ****     if(AUDIO_Handle->play_state == AUDIO_PLAYBACK_IDLE)
 3112              		.loc 1 1741 0
 3113 0008 D0F84435 		ldr	r3, [r0, #1348]
 3114 000c DB69     		ldr	r3, [r3, #28]
 3115              	.LVL457:
1742:Middlewares/ST/STM32_USB_Host_Library/Class/AUDIO/Src/usbh_audio.c ****     {
 3116              		.loc 1 1742 0
 3117 000e 9878     		ldrb	r0, [r3, #2]	@ zero_extendqisi2
 3118              	.LVL458:
 3119 0010 0528     		cmp	r0, #5
 3120 0012 0CD1     		bne	.L238
1744:Middlewares/ST/STM32_USB_Host_Library/Class/AUDIO/Src/usbh_audio.c ****       AUDIO_Handle->headphone.total_length = length;
 3121              		.loc 1 1744 0
ARM GAS  /tmp/cc7hx4Eu.s 			page 97


 3122 0014 C3F81011 		str	r1, [r3, #272]
1745:Middlewares/ST/STM32_USB_Host_Library/Class/AUDIO/Src/usbh_audio.c ****       AUDIO_Handle->play_state = AUDIO_PLAYBACK_PLAY;
 3123              		.loc 1 1745 0
 3124 0018 C3F82421 		str	r2, [r3, #292]
1746:Middlewares/ST/STM32_USB_Host_Library/Class/AUDIO/Src/usbh_audio.c ****       AUDIO_Handle->control_state = AUDIO_CONTROL_INIT;
 3125              		.loc 1 1746 0
 3126 001c 0422     		movs	r2, #4
 3127              	.LVL459:
 3128 001e 9A70     		strb	r2, [r3, #2]
1747:Middlewares/ST/STM32_USB_Host_Library/Class/AUDIO/Src/usbh_audio.c ****       AUDIO_Handle->processing_state = AUDIO_DATA_START_OUT;
 3129              		.loc 1 1747 0
 3130 0020 0122     		movs	r2, #1
 3131 0022 DA70     		strb	r2, [r3, #3]
1748:Middlewares/ST/STM32_USB_Host_Library/Class/AUDIO/Src/usbh_audio.c ****       Status = USBH_OK;
 3132              		.loc 1 1748 0
 3133 0024 1A71     		strb	r2, [r3, #4]
 3134              	.LVL460:
1749:Middlewares/ST/STM32_USB_Host_Library/Class/AUDIO/Src/usbh_audio.c **** #if (USBH_USE_OS == 1)
 3135              		.loc 1 1749 0
 3136 0026 0020     		movs	r0, #0
 3137 0028 7047     		bx	lr
 3138              	.LVL461:
 3139              	.L237:
1736:Middlewares/ST/STM32_USB_Host_Library/Class/AUDIO/Src/usbh_audio.c ****   AUDIO_HandleTypeDef *AUDIO_Handle; 
 3140              		.loc 1 1736 0
 3141 002a 0220     		movs	r0, #2
 3142              	.LVL462:
 3143 002c 7047     		bx	lr
 3144              	.LVL463:
 3145              	.L238:
 3146 002e 0220     		movs	r0, #2
 3147              	.LVL464:
1756:Middlewares/ST/STM32_USB_Host_Library/Class/AUDIO/Src/usbh_audio.c **** 
 3148              		.loc 1 1756 0
 3149 0030 7047     		bx	lr
 3150              		.cfi_endproc
 3151              	.LFE150:
 3153 0032 00BF     		.section	.text.USBH_AUDIO_Suspend,"ax",%progbits
 3154              		.align	2
 3155              		.global	USBH_AUDIO_Suspend
 3156              		.thumb
 3157              		.thumb_func
 3159              	USBH_AUDIO_Suspend:
 3160              	.LFB152:
1778:Middlewares/ST/STM32_USB_Host_Library/Class/AUDIO/Src/usbh_audio.c ****   USBH_StatusTypeDef Status = USBH_FAIL;
 3161              		.loc 1 1778 0
 3162              		.cfi_startproc
 3163              		@ args = 0, pretend = 0, frame = 0
 3164              		@ frame_needed = 0, uses_anonymous_args = 0
 3165              		@ link register save eliminated.
 3166              	.LVL465:
1782:Middlewares/ST/STM32_USB_Host_Library/Class/AUDIO/Src/usbh_audio.c ****   {
 3167              		.loc 1 1782 0
 3168 0000 0378     		ldrb	r3, [r0]	@ zero_extendqisi2
 3169 0002 DBB2     		uxtb	r3, r3
 3170 0004 0A2B     		cmp	r3, #10
 3171 0006 0BD1     		bne	.L241
ARM GAS  /tmp/cc7hx4Eu.s 			page 98


1784:Middlewares/ST/STM32_USB_Host_Library/Class/AUDIO/Src/usbh_audio.c ****     if(AUDIO_Handle->play_state == AUDIO_PLAYBACK_PLAY)
 3172              		.loc 1 1784 0
 3173 0008 D0F84435 		ldr	r3, [r0, #1348]
 3174 000c DB69     		ldr	r3, [r3, #28]
 3175              	.LVL466:
1785:Middlewares/ST/STM32_USB_Host_Library/Class/AUDIO/Src/usbh_audio.c ****     {
 3176              		.loc 1 1785 0
 3177 000e 9A78     		ldrb	r2, [r3, #2]	@ zero_extendqisi2
 3178 0010 042A     		cmp	r2, #4
 3179 0012 07D1     		bne	.L242
1787:Middlewares/ST/STM32_USB_Host_Library/Class/AUDIO/Src/usbh_audio.c ****       AUDIO_Handle->play_state = AUDIO_PLAYBACK_IDLE;
 3180              		.loc 1 1787 0
 3181 0014 0322     		movs	r2, #3
 3182 0016 DA70     		strb	r2, [r3, #3]
1788:Middlewares/ST/STM32_USB_Host_Library/Class/AUDIO/Src/usbh_audio.c ****       Status = USBH_OK;      
 3183              		.loc 1 1788 0
 3184 0018 0522     		movs	r2, #5
 3185 001a 9A70     		strb	r2, [r3, #2]
 3186              	.LVL467:
1789:Middlewares/ST/STM32_USB_Host_Library/Class/AUDIO/Src/usbh_audio.c ****     }
 3187              		.loc 1 1789 0
 3188 001c 0020     		movs	r0, #0
 3189              	.LVL468:
 3190 001e 7047     		bx	lr
 3191              	.LVL469:
 3192              	.L241:
1779:Middlewares/ST/STM32_USB_Host_Library/Class/AUDIO/Src/usbh_audio.c ****   AUDIO_HandleTypeDef *AUDIO_Handle; 
 3193              		.loc 1 1779 0
 3194 0020 0220     		movs	r0, #2
 3195              	.LVL470:
 3196 0022 7047     		bx	lr
 3197              	.LVL471:
 3198              	.L242:
 3199 0024 0220     		movs	r0, #2
 3200              	.LVL472:
1793:Middlewares/ST/STM32_USB_Host_Library/Class/AUDIO/Src/usbh_audio.c **** /**
 3201              		.loc 1 1793 0
 3202 0026 7047     		bx	lr
 3203              		.cfi_endproc
 3204              	.LFE152:
 3206              		.section	.text.USBH_AUDIO_Stop,"ax",%progbits
 3207              		.align	2
 3208              		.global	USBH_AUDIO_Stop
 3209              		.thumb
 3210              		.thumb_func
 3212              	USBH_AUDIO_Stop:
 3213              	.LFB151:
1765:Middlewares/ST/STM32_USB_Host_Library/Class/AUDIO/Src/usbh_audio.c ****   USBH_StatusTypeDef Status = USBH_FAIL;
 3214              		.loc 1 1765 0
 3215              		.cfi_startproc
 3216              		@ args = 0, pretend = 0, frame = 0
 3217              		@ frame_needed = 0, uses_anonymous_args = 0
 3218              	.LVL473:
 3219 0000 08B5     		push	{r3, lr}
 3220              	.LCFI31:
 3221              		.cfi_def_cfa_offset 8
 3222              		.cfi_offset 3, -8
ARM GAS  /tmp/cc7hx4Eu.s 			page 99


 3223              		.cfi_offset 14, -4
 3224              	.LVL474:
1767:Middlewares/ST/STM32_USB_Host_Library/Class/AUDIO/Src/usbh_audio.c ****   return Status;  
 3225              		.loc 1 1767 0
 3226 0002 FFF7FEFF 		bl	USBH_AUDIO_Suspend
 3227              	.LVL475:
1769:Middlewares/ST/STM32_USB_Host_Library/Class/AUDIO/Src/usbh_audio.c **** 
 3228              		.loc 1 1769 0
 3229 0006 08BD     		pop	{r3, pc}
 3230              		.cfi_endproc
 3231              	.LFE151:
 3233              		.section	.text.USBH_AUDIO_Resume,"ax",%progbits
 3234              		.align	2
 3235              		.global	USBH_AUDIO_Resume
 3236              		.thumb
 3237              		.thumb_func
 3239              	USBH_AUDIO_Resume:
 3240              	.LFB153:
1801:Middlewares/ST/STM32_USB_Host_Library/Class/AUDIO/Src/usbh_audio.c ****   USBH_StatusTypeDef Status = USBH_FAIL;
 3241              		.loc 1 1801 0
 3242              		.cfi_startproc
 3243              		@ args = 0, pretend = 0, frame = 0
 3244              		@ frame_needed = 0, uses_anonymous_args = 0
 3245              		@ link register save eliminated.
 3246              	.LVL476:
1805:Middlewares/ST/STM32_USB_Host_Library/Class/AUDIO/Src/usbh_audio.c ****   {
 3247              		.loc 1 1805 0
 3248 0000 0378     		ldrb	r3, [r0]	@ zero_extendqisi2
 3249 0002 DBB2     		uxtb	r3, r3
 3250 0004 0A2B     		cmp	r3, #10
 3251 0006 09D1     		bne	.L246
1807:Middlewares/ST/STM32_USB_Host_Library/Class/AUDIO/Src/usbh_audio.c ****     if(AUDIO_Handle->play_state == AUDIO_PLAYBACK_IDLE)
 3252              		.loc 1 1807 0
 3253 0008 D0F84435 		ldr	r3, [r0, #1348]
 3254 000c DB69     		ldr	r3, [r3, #28]
 3255              	.LVL477:
1808:Middlewares/ST/STM32_USB_Host_Library/Class/AUDIO/Src/usbh_audio.c ****     {
 3256              		.loc 1 1808 0
 3257 000e 9A78     		ldrb	r2, [r3, #2]	@ zero_extendqisi2
 3258 0010 052A     		cmp	r2, #5
 3259 0012 03D1     		bne	.L246
1810:Middlewares/ST/STM32_USB_Host_Library/Class/AUDIO/Src/usbh_audio.c ****       AUDIO_Handle->play_state = AUDIO_PLAYBACK_PLAY;
 3260              		.loc 1 1810 0
 3261 0014 0122     		movs	r2, #1
 3262 0016 DA70     		strb	r2, [r3, #3]
1811:Middlewares/ST/STM32_USB_Host_Library/Class/AUDIO/Src/usbh_audio.c ****     }
 3263              		.loc 1 1811 0
 3264 0018 0422     		movs	r2, #4
 3265 001a 9A70     		strb	r2, [r3, #2]
 3266              	.LVL478:
 3267              	.L246:
1815:Middlewares/ST/STM32_USB_Host_Library/Class/AUDIO/Src/usbh_audio.c **** /**
 3268              		.loc 1 1815 0
 3269 001c 0220     		movs	r0, #2
 3270              	.LVL479:
 3271 001e 7047     		bx	lr
 3272              		.cfi_endproc
ARM GAS  /tmp/cc7hx4Eu.s 			page 100


 3273              	.LFE153:
 3275              		.section	.text.USBH_AUDIO_GetOutOffset,"ax",%progbits
 3276              		.align	2
 3277              		.global	USBH_AUDIO_GetOutOffset
 3278              		.thumb
 3279              		.thumb_func
 3281              	USBH_AUDIO_GetOutOffset:
 3282              	.LFB154:
1823:Middlewares/ST/STM32_USB_Host_Library/Class/AUDIO/Src/usbh_audio.c ****   AUDIO_HandleTypeDef *AUDIO_Handle; 
 3283              		.loc 1 1823 0
 3284              		.cfi_startproc
 3285              		@ args = 0, pretend = 0, frame = 0
 3286              		@ frame_needed = 0, uses_anonymous_args = 0
 3287              		@ link register save eliminated.
 3288              	.LVL480:
1826:Middlewares/ST/STM32_USB_Host_Library/Class/AUDIO/Src/usbh_audio.c ****   {
 3289              		.loc 1 1826 0
 3290 0000 0378     		ldrb	r3, [r0]	@ zero_extendqisi2
 3291 0002 DBB2     		uxtb	r3, r3
 3292 0004 0A2B     		cmp	r3, #10
 3293 0006 08D1     		bne	.L249
1828:Middlewares/ST/STM32_USB_Host_Library/Class/AUDIO/Src/usbh_audio.c ****     if(AUDIO_Handle->play_state == AUDIO_PLAYBACK_PLAY)
 3294              		.loc 1 1828 0
 3295 0008 D0F84435 		ldr	r3, [r0, #1348]
 3296 000c DB69     		ldr	r3, [r3, #28]
 3297              	.LVL481:
1829:Middlewares/ST/STM32_USB_Host_Library/Class/AUDIO/Src/usbh_audio.c ****     {
 3298              		.loc 1 1829 0
 3299 000e 9A78     		ldrb	r2, [r3, #2]	@ zero_extendqisi2
 3300 0010 042A     		cmp	r2, #4
 3301 0012 05D1     		bne	.L250
1831:Middlewares/ST/STM32_USB_Host_Library/Class/AUDIO/Src/usbh_audio.c ****     }
 3302              		.loc 1 1831 0
 3303 0014 D3F81801 		ldr	r0, [r3, #280]
 3304              	.LVL482:
 3305 0018 7047     		bx	lr
 3306              	.LVL483:
 3307              	.L249:
1834:Middlewares/ST/STM32_USB_Host_Library/Class/AUDIO/Src/usbh_audio.c **** }
 3308              		.loc 1 1834 0
 3309 001a 4FF0FF30 		mov	r0, #-1
 3310              	.LVL484:
 3311 001e 7047     		bx	lr
 3312              	.LVL485:
 3313              	.L250:
 3314 0020 4FF0FF30 		mov	r0, #-1
 3315              	.LVL486:
1835:Middlewares/ST/STM32_USB_Host_Library/Class/AUDIO/Src/usbh_audio.c **** 
 3316              		.loc 1 1835 0
 3317 0024 7047     		bx	lr
 3318              		.cfi_endproc
 3319              	.LFE154:
 3321              		.section	.text.USBH_AUDIO_ChangeOutBuffer,"ax",%progbits
 3322              		.align	2
 3323              		.global	USBH_AUDIO_ChangeOutBuffer
 3324              		.thumb
 3325              		.thumb_func
ARM GAS  /tmp/cc7hx4Eu.s 			page 101


 3327              	USBH_AUDIO_ChangeOutBuffer:
 3328              	.LFB155:
1845:Middlewares/ST/STM32_USB_Host_Library/Class/AUDIO/Src/usbh_audio.c ****   USBH_StatusTypeDef Status = USBH_FAIL;
 3329              		.loc 1 1845 0
 3330              		.cfi_startproc
 3331              		@ args = 0, pretend = 0, frame = 0
 3332              		@ frame_needed = 0, uses_anonymous_args = 0
 3333              		@ link register save eliminated.
 3334              	.LVL487:
1849:Middlewares/ST/STM32_USB_Host_Library/Class/AUDIO/Src/usbh_audio.c ****   {
 3335              		.loc 1 1849 0
 3336 0000 0378     		ldrb	r3, [r0]	@ zero_extendqisi2
 3337 0002 DBB2     		uxtb	r3, r3
 3338 0004 0A2B     		cmp	r3, #10
 3339 0006 10D1     		bne	.L253
1851:Middlewares/ST/STM32_USB_Host_Library/Class/AUDIO/Src/usbh_audio.c ****     if(AUDIO_Handle->play_state == AUDIO_PLAYBACK_PLAY)
 3340              		.loc 1 1851 0
 3341 0008 D0F84435 		ldr	r3, [r0, #1348]
 3342 000c DB69     		ldr	r3, [r3, #28]
 3343              	.LVL488:
1852:Middlewares/ST/STM32_USB_Host_Library/Class/AUDIO/Src/usbh_audio.c ****     {
 3344              		.loc 1 1852 0
 3345 000e 9A78     		ldrb	r2, [r3, #2]	@ zero_extendqisi2
 3346 0010 042A     		cmp	r2, #4
 3347 0012 0CD1     		bne	.L254
1854:Middlewares/ST/STM32_USB_Host_Library/Class/AUDIO/Src/usbh_audio.c ****       {
 3348              		.loc 1 1854 0
 3349 0014 D3F81021 		ldr	r2, [r3, #272]
 3350 0018 8A42     		cmp	r2, r1
 3351 001a 0AD8     		bhi	.L255
1856:Middlewares/ST/STM32_USB_Host_Library/Class/AUDIO/Src/usbh_audio.c ****         if ( AUDIO_Handle->headphone.buf == buf)
 3352              		.loc 1 1856 0
 3353 001c C3F81411 		str	r1, [r3, #276]
1857:Middlewares/ST/STM32_USB_Host_Library/Class/AUDIO/Src/usbh_audio.c ****         {
 3354              		.loc 1 1857 0
 3355 0020 09D1     		bne	.L256
1859:Middlewares/ST/STM32_USB_Host_Library/Class/AUDIO/Src/usbh_audio.c ****         }
 3356              		.loc 1 1859 0
 3357 0022 0020     		movs	r0, #0
 3358              	.LVL489:
 3359 0024 C3F81801 		str	r0, [r3, #280]
 3360 0028 7047     		bx	lr
 3361              	.LVL490:
 3362              	.L253:
1846:Middlewares/ST/STM32_USB_Host_Library/Class/AUDIO/Src/usbh_audio.c ****   AUDIO_HandleTypeDef *AUDIO_Handle; 
 3363              		.loc 1 1846 0
 3364 002a 0220     		movs	r0, #2
 3365              	.LVL491:
 3366 002c 7047     		bx	lr
 3367              	.LVL492:
 3368              	.L254:
 3369 002e 0220     		movs	r0, #2
 3370              	.LVL493:
 3371 0030 7047     		bx	lr
 3372              	.LVL494:
 3373              	.L255:
 3374 0032 0220     		movs	r0, #2
ARM GAS  /tmp/cc7hx4Eu.s 			page 102


 3375              	.LVL495:
 3376 0034 7047     		bx	lr
 3377              	.LVL496:
 3378              	.L256:
1861:Middlewares/ST/STM32_USB_Host_Library/Class/AUDIO/Src/usbh_audio.c ****       }    
 3379              		.loc 1 1861 0
 3380 0036 0020     		movs	r0, #0
 3381              	.LVL497:
1866:Middlewares/ST/STM32_USB_Host_Library/Class/AUDIO/Src/usbh_audio.c **** 
 3382              		.loc 1 1866 0
 3383 0038 7047     		bx	lr
 3384              		.cfi_endproc
 3385              	.LFE155:
 3387 003a 00BF     		.section	.text.USBH_AUDIO_SetVolume,"ax",%progbits
 3388              		.align	2
 3389              		.global	USBH_AUDIO_SetVolume
 3390              		.thumb
 3391              		.thumb_func
 3393              	USBH_AUDIO_SetVolume:
 3394              	.LFB157:
1937:Middlewares/ST/STM32_USB_Host_Library/Class/AUDIO/Src/usbh_audio.c ****   AUDIO_HandleTypeDef *AUDIO_Handle = (AUDIO_HandleTypeDef*) phost->pActiveClass->pData;
 3395              		.loc 1 1937 0
 3396              		.cfi_startproc
 3397              		@ args = 0, pretend = 0, frame = 0
 3398              		@ frame_needed = 0, uses_anonymous_args = 0
 3399              		@ link register save eliminated.
 3400              	.LVL498:
1938:Middlewares/ST/STM32_USB_Host_Library/Class/AUDIO/Src/usbh_audio.c ****   
 3401              		.loc 1 1938 0
 3402 0000 D0F84425 		ldr	r2, [r0, #1348]
 3403              	.LVL499:
1940:Middlewares/ST/STM32_USB_Host_Library/Class/AUDIO/Src/usbh_audio.c ****   {
 3404              		.loc 1 1940 0
 3405 0004 4B1E     		subs	r3, r1, #1
 3406 0006 DBB2     		uxtb	r3, r3
 3407 0008 012B     		cmp	r3, #1
 3408 000a 0DD8     		bhi	.L260
1942:Middlewares/ST/STM32_USB_Host_Library/Class/AUDIO/Src/usbh_audio.c ****     {
 3409              		.loc 1 1942 0
 3410 000c 0378     		ldrb	r3, [r0]	@ zero_extendqisi2
 3411 000e DBB2     		uxtb	r3, r3
 3412 0010 0A2B     		cmp	r3, #10
 3413 0012 0BD1     		bne	.L261
1944:Middlewares/ST/STM32_USB_Host_Library/Class/AUDIO/Src/usbh_audio.c ****       if(AUDIO_Handle->play_state == AUDIO_PLAYBACK_PLAY)
 3414              		.loc 1 1944 0
 3415 0014 D369     		ldr	r3, [r2, #28]
1945:Middlewares/ST/STM32_USB_Host_Library/Class/AUDIO/Src/usbh_audio.c ****       {
 3416              		.loc 1 1945 0
 3417 0016 9A78     		ldrb	r2, [r3, #2]	@ zero_extendqisi2
 3418              	.LVL500:
 3419 0018 042A     		cmp	r2, #4
 3420 001a 09D1     		bne	.L262
1947:Middlewares/ST/STM32_USB_Host_Library/Class/AUDIO/Src/usbh_audio.c ****         return USBH_OK;  
 3421              		.loc 1 1947 0
 3422 001c 0129     		cmp	r1, #1
 3423 001e 00D0     		beq	.L259
 3424 0020 0522     		movs	r2, #5
ARM GAS  /tmp/cc7hx4Eu.s 			page 103


 3425              	.L259:
1947:Middlewares/ST/STM32_USB_Host_Library/Class/AUDIO/Src/usbh_audio.c ****         return USBH_OK;  
 3426              		.loc 1 1947 0 is_stmt 0 discriminator 4
 3427 0022 DA70     		strb	r2, [r3, #3]
1948:Middlewares/ST/STM32_USB_Host_Library/Class/AUDIO/Src/usbh_audio.c ****       }
 3428              		.loc 1 1948 0 is_stmt 1 discriminator 4
 3429 0024 0020     		movs	r0, #0
 3430              	.LVL501:
 3431 0026 7047     		bx	lr
 3432              	.LVL502:
 3433              	.L260:
1952:Middlewares/ST/STM32_USB_Host_Library/Class/AUDIO/Src/usbh_audio.c **** }
 3434              		.loc 1 1952 0
 3435 0028 0220     		movs	r0, #2
 3436              	.LVL503:
 3437 002a 7047     		bx	lr
 3438              	.LVL504:
 3439              	.L261:
 3440 002c 0220     		movs	r0, #2
 3441              	.LVL505:
 3442 002e 7047     		bx	lr
 3443              	.LVL506:
 3444              	.L262:
 3445 0030 0220     		movs	r0, #2
 3446              	.LVL507:
1953:Middlewares/ST/STM32_USB_Host_Library/Class/AUDIO/Src/usbh_audio.c **** /**
 3447              		.loc 1 1953 0
 3448 0032 7047     		bx	lr
 3449              		.cfi_endproc
 3450              	.LFE157:
 3452              		.section	.text.USBH_AUDIO_FrequencySet,"ax",%progbits
 3453              		.align	2
 3454              		.weak	USBH_AUDIO_FrequencySet
 3455              		.thumb
 3456              		.thumb_func
 3458              	USBH_AUDIO_FrequencySet:
 3459              	.LFB159:
1982:Middlewares/ST/STM32_USB_Host_Library/Class/AUDIO/Src/usbh_audio.c **** 
1983:Middlewares/ST/STM32_USB_Host_Library/Class/AUDIO/Src/usbh_audio.c **** /**
1984:Middlewares/ST/STM32_USB_Host_Library/Class/AUDIO/Src/usbh_audio.c ****   * @brief  The function informs user that Settings have been changed
1985:Middlewares/ST/STM32_USB_Host_Library/Class/AUDIO/Src/usbh_audio.c ****   *  @param  phost: Selected device
1986:Middlewares/ST/STM32_USB_Host_Library/Class/AUDIO/Src/usbh_audio.c ****   * @retval None
1987:Middlewares/ST/STM32_USB_Host_Library/Class/AUDIO/Src/usbh_audio.c ****   */
1988:Middlewares/ST/STM32_USB_Host_Library/Class/AUDIO/Src/usbh_audio.c **** __weak void USBH_AUDIO_FrequencySet(USBH_HandleTypeDef *phost)
1989:Middlewares/ST/STM32_USB_Host_Library/Class/AUDIO/Src/usbh_audio.c **** {
 3460              		.loc 1 1989 0
 3461              		.cfi_startproc
 3462              		@ args = 0, pretend = 0, frame = 0
 3463              		@ frame_needed = 0, uses_anonymous_args = 0
 3464              		@ link register save eliminated.
 3465              	.LVL508:
 3466 0000 7047     		bx	lr
 3467              		.cfi_endproc
 3468              	.LFE159:
 3470 0002 00BF     		.section	.text.USBH_AUDIO_BufferEmptyCallback,"ax",%progbits
 3471              		.align	2
 3472              		.weak	USBH_AUDIO_BufferEmptyCallback
ARM GAS  /tmp/cc7hx4Eu.s 			page 104


 3473              		.thumb
 3474              		.thumb_func
 3476              	USBH_AUDIO_BufferEmptyCallback:
 3477              	.LFB160:
1990:Middlewares/ST/STM32_USB_Host_Library/Class/AUDIO/Src/usbh_audio.c ****   
1991:Middlewares/ST/STM32_USB_Host_Library/Class/AUDIO/Src/usbh_audio.c **** }
1992:Middlewares/ST/STM32_USB_Host_Library/Class/AUDIO/Src/usbh_audio.c ****                                      
1993:Middlewares/ST/STM32_USB_Host_Library/Class/AUDIO/Src/usbh_audio.c **** /**
1994:Middlewares/ST/STM32_USB_Host_Library/Class/AUDIO/Src/usbh_audio.c ****   * @brief  The function informs user that User data are processed
1995:Middlewares/ST/STM32_USB_Host_Library/Class/AUDIO/Src/usbh_audio.c ****   *  @param  phost: Selected device
1996:Middlewares/ST/STM32_USB_Host_Library/Class/AUDIO/Src/usbh_audio.c ****   * @retval None
1997:Middlewares/ST/STM32_USB_Host_Library/Class/AUDIO/Src/usbh_audio.c ****   */
1998:Middlewares/ST/STM32_USB_Host_Library/Class/AUDIO/Src/usbh_audio.c **** __weak void  USBH_AUDIO_BufferEmptyCallback(USBH_HandleTypeDef *phost)
1999:Middlewares/ST/STM32_USB_Host_Library/Class/AUDIO/Src/usbh_audio.c **** {
 3478              		.loc 1 1999 0
 3479              		.cfi_startproc
 3480              		@ args = 0, pretend = 0, frame = 0
 3481              		@ frame_needed = 0, uses_anonymous_args = 0
 3482              		@ link register save eliminated.
 3483              	.LVL509:
 3484 0000 7047     		bx	lr
 3485              		.cfi_endproc
 3486              	.LFE160:
 3488 0002 00BF     		.section	.text.USBH_AUDIO_Transmit,"ax",%progbits
 3489              		.align	2
 3490              		.thumb
 3491              		.thumb_func
 3493              	USBH_AUDIO_Transmit:
 3494              	.LFB148:
1596:Middlewares/ST/STM32_USB_Host_Library/Class/AUDIO/Src/usbh_audio.c ****   USBH_StatusTypeDef status = USBH_BUSY ;
 3495              		.loc 1 1596 0
 3496              		.cfi_startproc
 3497              		@ args = 0, pretend = 0, frame = 0
 3498              		@ frame_needed = 0, uses_anonymous_args = 0
 3499              	.LVL510:
1596:Middlewares/ST/STM32_USB_Host_Library/Class/AUDIO/Src/usbh_audio.c ****   USBH_StatusTypeDef status = USBH_BUSY ;
 3500              		.loc 1 1596 0
 3501 0000 38B5     		push	{r3, r4, r5, lr}
 3502              	.LCFI32:
 3503              		.cfi_def_cfa_offset 16
 3504              		.cfi_offset 3, -16
 3505              		.cfi_offset 4, -12
 3506              		.cfi_offset 5, -8
 3507              		.cfi_offset 14, -4
 3508 0002 0546     		mov	r5, r0
 3509              	.LVL511:
1598:Middlewares/ST/STM32_USB_Host_Library/Class/AUDIO/Src/usbh_audio.c ****   
 3510              		.loc 1 1598 0
 3511 0004 D0F84435 		ldr	r3, [r0, #1348]
 3512 0008 DC69     		ldr	r4, [r3, #28]
 3513              	.LVL512:
1600:Middlewares/ST/STM32_USB_Host_Library/Class/AUDIO/Src/usbh_audio.c ****   {
 3514              		.loc 1 1600 0
 3515 000a 2379     		ldrb	r3, [r4, #4]	@ zero_extendqisi2
 3516 000c 012B     		cmp	r3, #1
 3517 000e 02D0     		beq	.L268
 3518 0010 022B     		cmp	r3, #2
ARM GAS  /tmp/cc7hx4Eu.s 			page 105


 3519 0012 1ED0     		beq	.L269
 3520 0014 61E0     		b	.L267
 3521              	.L268:
1604:Middlewares/ST/STM32_USB_Host_Library/Class/AUDIO/Src/usbh_audio.c ****     {
 3522              		.loc 1 1604 0
 3523 0016 D0F88835 		ldr	r3, [r0, #1416]
 3524 001a 13F0010F 		tst	r3, #1
 3525 001e 5CD1     		bne	.L267
1606:Middlewares/ST/STM32_USB_Host_Library/Class/AUDIO/Src/usbh_audio.c ****       AUDIO_Handle->processing_state = AUDIO_DATA_OUT;
 3526              		.loc 1 1606 0
 3527 0020 D0F88835 		ldr	r3, [r0, #1416]
 3528 0024 C4F80031 		str	r3, [r4, #256]
1607:Middlewares/ST/STM32_USB_Host_Library/Class/AUDIO/Src/usbh_audio.c ****       USBH_IsocSendData(phost, 
 3529              		.loc 1 1607 0
 3530 0028 0223     		movs	r3, #2
 3531 002a 2371     		strb	r3, [r4, #4]
1608:Middlewares/ST/STM32_USB_Host_Library/Class/AUDIO/Src/usbh_audio.c ****                        AUDIO_Handle->headphone.buf,
 3532              		.loc 1 1608 0
 3533 002c 94F8FB30 		ldrb	r3, [r4, #251]	@ zero_extendqisi2
 3534 0030 B4F82021 		ldrh	r2, [r4, #288]
 3535 0034 D4F81011 		ldr	r1, [r4, #272]
 3536 0038 FFF7FEFF 		bl	USBH_IsocSendData
 3537              	.LVL513:
1613:Middlewares/ST/STM32_USB_Host_Library/Class/AUDIO/Src/usbh_audio.c ****       AUDIO_Handle->headphone.global_ptr = AUDIO_Handle->headphone.frame_length; 
 3538              		.loc 1 1613 0
 3539 003c B4F82031 		ldrh	r3, [r4, #288]
 3540 0040 C4F81831 		str	r3, [r4, #280]
1614:Middlewares/ST/STM32_USB_Host_Library/Class/AUDIO/Src/usbh_audio.c ****       AUDIO_Handle->headphone.cbuf = AUDIO_Handle->headphone.buf;
 3541              		.loc 1 1614 0
 3542 0044 C4F81C31 		str	r3, [r4, #284]
1615:Middlewares/ST/STM32_USB_Host_Library/Class/AUDIO/Src/usbh_audio.c ****     }
 3543              		.loc 1 1615 0
 3544 0048 D4F81031 		ldr	r3, [r4, #272]
 3545 004c C4F81431 		str	r3, [r4, #276]
 3546 0050 43E0     		b	.L267
 3547              	.LVL514:
 3548              	.L269:
1627:Middlewares/ST/STM32_USB_Host_Library/Class/AUDIO/Src/usbh_audio.c ****        (( phost->Timer - AUDIO_Handle->headphone.timer) >= AUDIO_Handle->headphone.Poll))
 3549              		.loc 1 1627 0
 3550 0052 94F8FB10 		ldrb	r1, [r4, #251]	@ zero_extendqisi2
 3551 0056 FFF7FEFF 		bl	USBH_LL_GetURBState
 3552              	.LVL515:
 3553 005a 0128     		cmp	r0, #1
 3554 005c 3DD1     		bne	.L267
1628:Middlewares/ST/STM32_USB_Host_Library/Class/AUDIO/Src/usbh_audio.c ****     {
 3555              		.loc 1 1628 0 discriminator 1
 3556 005e D5F88835 		ldr	r3, [r5, #1416]
 3557 0062 D4F80021 		ldr	r2, [r4, #256]
 3558 0066 9B1A     		subs	r3, r3, r2
 3559 0068 94F8FC20 		ldrb	r2, [r4, #252]	@ zero_extendqisi2
1627:Middlewares/ST/STM32_USB_Host_Library/Class/AUDIO/Src/usbh_audio.c ****        (( phost->Timer - AUDIO_Handle->headphone.timer) >= AUDIO_Handle->headphone.Poll))
 3560              		.loc 1 1627 0 discriminator 1
 3561 006c 9342     		cmp	r3, r2
 3562 006e 34D3     		bcc	.L267
1630:Middlewares/ST/STM32_USB_Host_Library/Class/AUDIO/Src/usbh_audio.c ****       
 3563              		.loc 1 1630 0
 3564 0070 D5F88835 		ldr	r3, [r5, #1416]
ARM GAS  /tmp/cc7hx4Eu.s 			page 106


 3565 0074 C4F80031 		str	r3, [r4, #256]
1632:Middlewares/ST/STM32_USB_Host_Library/Class/AUDIO/Src/usbh_audio.c ****       {
 3566              		.loc 1 1632 0
 3567 0078 94F88931 		ldrb	r3, [r4, #393]	@ zero_extendqisi2
 3568 007c 012B     		cmp	r3, #1
 3569 007e 02D1     		bne	.L270
1634:Middlewares/ST/STM32_USB_Host_Library/Class/AUDIO/Src/usbh_audio.c ****       }
 3570              		.loc 1 1634 0
 3571 0080 2846     		mov	r0, r5
 3572 0082 FFF7FEFF 		bl	USBH_AUDIO_Control
 3573              	.LVL516:
 3574              	.L270:
1637:Middlewares/ST/STM32_USB_Host_Library/Class/AUDIO/Src/usbh_audio.c ****       {
 3575              		.loc 1 1637 0
 3576 0086 D4F81C21 		ldr	r2, [r4, #284]
 3577 008a D4F82431 		ldr	r3, [r4, #292]
 3578 008e 9A42     		cmp	r2, r3
 3579 0090 1AD8     		bhi	.L271
1639:Middlewares/ST/STM32_USB_Host_Library/Class/AUDIO/Src/usbh_audio.c ****                           AUDIO_Handle->headphone.cbuf,
 3580              		.loc 1 1639 0
 3581 0092 94F8FB30 		ldrb	r3, [r4, #251]	@ zero_extendqisi2
 3582 0096 B4F82021 		ldrh	r2, [r4, #288]
 3583 009a D4F81411 		ldr	r1, [r4, #276]
 3584 009e 2846     		mov	r0, r5
 3585 00a0 FFF7FEFF 		bl	USBH_IsocSendData
 3586              	.LVL517:
1644:Middlewares/ST/STM32_USB_Host_Library/Class/AUDIO/Src/usbh_audio.c ****         AUDIO_Handle->headphone.partial_ptr += AUDIO_Handle->headphone.frame_length;
 3587              		.loc 1 1644 0
 3588 00a4 B4F82031 		ldrh	r3, [r4, #288]
 3589 00a8 D4F81421 		ldr	r2, [r4, #276]
 3590 00ac 1A44     		add	r2, r2, r3
 3591 00ae C4F81421 		str	r2, [r4, #276]
1645:Middlewares/ST/STM32_USB_Host_Library/Class/AUDIO/Src/usbh_audio.c ****         AUDIO_Handle->headphone.global_ptr += AUDIO_Handle->headphone.frame_length;
 3592              		.loc 1 1645 0
 3593 00b2 D4F81821 		ldr	r2, [r4, #280]
 3594 00b6 1A44     		add	r2, r2, r3
 3595 00b8 C4F81821 		str	r2, [r4, #280]
1646:Middlewares/ST/STM32_USB_Host_Library/Class/AUDIO/Src/usbh_audio.c ****       }
 3596              		.loc 1 1646 0
 3597 00bc D4F81C21 		ldr	r2, [r4, #284]
 3598 00c0 1344     		add	r3, r3, r2
 3599 00c2 C4F81C31 		str	r3, [r4, #284]
 3600 00c6 08E0     		b	.L267
 3601              	.L271:
1650:Middlewares/ST/STM32_USB_Host_Library/Class/AUDIO/Src/usbh_audio.c ****        AUDIO_Handle->play_state = AUDIO_PLAYBACK_IDLE;
 3602              		.loc 1 1650 0
 3603 00c8 4FF0FF33 		mov	r3, #-1
 3604 00cc C4F81831 		str	r3, [r4, #280]
1651:Middlewares/ST/STM32_USB_Host_Library/Class/AUDIO/Src/usbh_audio.c ****        USBH_AUDIO_BufferEmptyCallback(phost);
 3605              		.loc 1 1651 0
 3606 00d0 0523     		movs	r3, #5
 3607 00d2 A370     		strb	r3, [r4, #2]
1652:Middlewares/ST/STM32_USB_Host_Library/Class/AUDIO/Src/usbh_audio.c ****       }
 3608              		.loc 1 1652 0
 3609 00d4 2846     		mov	r0, r5
 3610 00d6 FFF7FEFF 		bl	USBH_AUDIO_BufferEmptyCallback
 3611              	.LVL518:
ARM GAS  /tmp/cc7hx4Eu.s 			page 107


 3612              	.L267:
1658:Middlewares/ST/STM32_USB_Host_Library/Class/AUDIO/Src/usbh_audio.c **** 
 3613              		.loc 1 1658 0
 3614 00da 0120     		movs	r0, #1
 3615 00dc 38BD     		pop	{r3, r4, r5, pc}
 3616              		.cfi_endproc
 3617              	.LFE148:
 3619 00de 00BF     		.section	.text.USBH_AUDIO_OutputStream,"ax",%progbits
 3620              		.align	2
 3621              		.thumb
 3622              		.thumb_func
 3624              	USBH_AUDIO_OutputStream:
 3625              	.LFB147:
1528:Middlewares/ST/STM32_USB_Host_Library/Class/AUDIO/Src/usbh_audio.c ****   USBH_StatusTypeDef status = USBH_BUSY ;
 3626              		.loc 1 1528 0
 3627              		.cfi_startproc
 3628              		@ args = 0, pretend = 0, frame = 0
 3629              		@ frame_needed = 0, uses_anonymous_args = 0
 3630              	.LVL519:
 3631 0000 70B5     		push	{r4, r5, r6, lr}
 3632              	.LCFI33:
 3633              		.cfi_def_cfa_offset 16
 3634              		.cfi_offset 4, -16
 3635              		.cfi_offset 5, -12
 3636              		.cfi_offset 6, -8
 3637              		.cfi_offset 14, -4
 3638 0002 0546     		mov	r5, r0
 3639              	.LVL520:
1530:Middlewares/ST/STM32_USB_Host_Library/Class/AUDIO/Src/usbh_audio.c ****   uint8_t *buff;
 3640              		.loc 1 1530 0
 3641 0004 D0F84435 		ldr	r3, [r0, #1348]
 3642 0008 DC69     		ldr	r4, [r3, #28]
 3643              	.LVL521:
1534:Middlewares/ST/STM32_USB_Host_Library/Class/AUDIO/Src/usbh_audio.c ****   {
 3644              		.loc 1 1534 0
 3645 000a A378     		ldrb	r3, [r4, #2]	@ zero_extendqisi2
 3646 000c 013B     		subs	r3, r3, #1
 3647 000e 042B     		cmp	r3, #4
 3648 0010 04D8     		bhi	.L274
 3649 0012 DFE803F0 		tbb	[pc, r3]
 3650              	.L276:
 3651 0016 05       		.byte	(.L275-.L276)/2
 3652 0017 25       		.byte	(.L277-.L276)/2
 3653 0018 15       		.byte	(.L278-.L276)/2
 3654 0019 33       		.byte	(.L279-.L276)/2
 3655 001a 37       		.byte	(.L282-.L276)/2
 3656 001b 00       		.p2align 1
 3657              	.L274:
1529:Middlewares/ST/STM32_USB_Host_Library/Class/AUDIO/Src/usbh_audio.c ****   AUDIO_HandleTypeDef *AUDIO_Handle =  (AUDIO_HandleTypeDef*) phost->pActiveClass->pData;   
 3658              		.loc 1 1529 0
 3659 001c 0126     		movs	r6, #1
 3660 001e 32E0     		b	.L280
 3661              	.L275:
1538:Middlewares/ST/STM32_USB_Host_Library/Class/AUDIO/Src/usbh_audio.c ****     {
 3662              		.loc 1 1538 0
 3663 0020 94F80431 		ldrb	r3, [r4, #260]	@ zero_extendqisi2
 3664 0024 1733     		adds	r3, r3, #23
ARM GAS  /tmp/cc7hx4Eu.s 			page 108


 3665 0026 04EBC303 		add	r3, r4, r3, lsl #3
 3666 002a DB68     		ldr	r3, [r3, #12]
 3667 002c DB79     		ldrb	r3, [r3, #7]	@ zero_extendqisi2
 3668 002e 1BB9     		cbnz	r3, .L281
1540:Middlewares/ST/STM32_USB_Host_Library/Class/AUDIO/Src/usbh_audio.c ****     }
 3669              		.loc 1 1540 0
 3670 0030 0323     		movs	r3, #3
 3671 0032 A370     		strb	r3, [r4, #2]
1529:Middlewares/ST/STM32_USB_Host_Library/Class/AUDIO/Src/usbh_audio.c ****   AUDIO_HandleTypeDef *AUDIO_Handle =  (AUDIO_HandleTypeDef*) phost->pActiveClass->pData;   
 3672              		.loc 1 1529 0
 3673 0034 0126     		movs	r6, #1
 3674 0036 26E0     		b	.L280
 3675              	.L281:
1544:Middlewares/ST/STM32_USB_Host_Library/Class/AUDIO/Src/usbh_audio.c ****     }
 3676              		.loc 1 1544 0
 3677 0038 0223     		movs	r3, #2
 3678 003a A370     		strb	r3, [r4, #2]
1529:Middlewares/ST/STM32_USB_Host_Library/Class/AUDIO/Src/usbh_audio.c ****   AUDIO_HandleTypeDef *AUDIO_Handle =  (AUDIO_HandleTypeDef*) phost->pActiveClass->pData;   
 3679              		.loc 1 1529 0
 3680 003c 0126     		movs	r6, #1
 3681 003e 22E0     		b	.L280
 3682              	.L278:
1553:Middlewares/ST/STM32_USB_Host_Library/Class/AUDIO/Src/usbh_audio.c **** 
 3683              		.loc 1 1553 0
 3684 0040 94F80431 		ldrb	r3, [r4, #260]	@ zero_extendqisi2
 3685 0044 1733     		adds	r3, r3, #23
 3686 0046 04EBC303 		add	r3, r4, r3, lsl #3
 3687 004a DA68     		ldr	r2, [r3, #12]
 3688              	.LVL522:
1555:Middlewares/ST/STM32_USB_Host_Library/Class/AUDIO/Src/usbh_audio.c ****     if(status == USBH_OK) 
 3689              		.loc 1 1555 0
 3690 004c 0832     		adds	r2, r2, #8
 3691              	.LVL523:
 3692 004e 94F8F410 		ldrb	r1, [r4, #244]	@ zero_extendqisi2
 3693 0052 FFF7FEFF 		bl	USBH_AUDIO_SetEndpointControls
 3694              	.LVL524:
1556:Middlewares/ST/STM32_USB_Host_Library/Class/AUDIO/Src/usbh_audio.c ****     {
 3695              		.loc 1 1556 0
 3696 0056 0646     		mov	r6, r0
 3697 0058 A8B9     		cbnz	r0, .L280
1558:Middlewares/ST/STM32_USB_Host_Library/Class/AUDIO/Src/usbh_audio.c ****     }
 3698              		.loc 1 1558 0
 3699 005a 0523     		movs	r3, #5
 3700 005c A370     		strb	r3, [r4, #2]
 3701 005e 12E0     		b	.L280
 3702              	.LVL525:
 3703              	.L277:
1564:Middlewares/ST/STM32_USB_Host_Library/Class/AUDIO/Src/usbh_audio.c ****     if(status == USBH_OK)
 3704              		.loc 1 1564 0
 3705 0060 04F58672 		add	r2, r4, #268
 3706              	.LVL526:
 3707 0064 94F8F410 		ldrb	r1, [r4, #244]	@ zero_extendqisi2
 3708 0068 FFF7FEFF 		bl	USBH_AUDIO_SetEndpointControls
 3709              	.LVL527:
1565:Middlewares/ST/STM32_USB_Host_Library/Class/AUDIO/Src/usbh_audio.c ****     {
 3710              		.loc 1 1565 0
 3711 006c 0646     		mov	r6, r0
ARM GAS  /tmp/cc7hx4Eu.s 			page 109


 3712 006e 50B9     		cbnz	r0, .L280
1567:Middlewares/ST/STM32_USB_Host_Library/Class/AUDIO/Src/usbh_audio.c ****       USBH_AUDIO_FrequencySet(phost);
 3713              		.loc 1 1567 0
 3714 0070 0523     		movs	r3, #5
 3715 0072 A370     		strb	r3, [r4, #2]
1568:Middlewares/ST/STM32_USB_Host_Library/Class/AUDIO/Src/usbh_audio.c ****     }
 3716              		.loc 1 1568 0
 3717 0074 2846     		mov	r0, r5
 3718              	.LVL528:
 3719 0076 FFF7FEFF 		bl	USBH_AUDIO_FrequencySet
 3720              	.LVL529:
 3721 007a 04E0     		b	.L280
 3722              	.LVL530:
 3723              	.L279:
1579:Middlewares/ST/STM32_USB_Host_Library/Class/AUDIO/Src/usbh_audio.c ****     status = USBH_OK;
 3724              		.loc 1 1579 0
 3725 007c FFF7FEFF 		bl	USBH_AUDIO_Transmit
 3726              	.LVL531:
1580:Middlewares/ST/STM32_USB_Host_Library/Class/AUDIO/Src/usbh_audio.c ****     break;
 3727              		.loc 1 1580 0
 3728 0080 0026     		movs	r6, #0
1581:Middlewares/ST/STM32_USB_Host_Library/Class/AUDIO/Src/usbh_audio.c ****     
 3729              		.loc 1 1581 0
 3730 0082 00E0     		b	.L280
 3731              	.LVL532:
 3732              	.L282:
1575:Middlewares/ST/STM32_USB_Host_Library/Class/AUDIO/Src/usbh_audio.c ****     break;
 3733              		.loc 1 1575 0
 3734 0084 0026     		movs	r6, #0
 3735              	.LVL533:
 3736              	.L280:
1588:Middlewares/ST/STM32_USB_Host_Library/Class/AUDIO/Src/usbh_audio.c **** 
 3737              		.loc 1 1588 0
 3738 0086 3046     		mov	r0, r6
 3739 0088 70BD     		pop	{r4, r5, r6, pc}
 3740              		.cfi_endproc
 3741              	.LFE147:
 3743 008a 00BF     		.section	.text.USBH_AUDIO_Process,"ax",%progbits
 3744              		.align	2
 3745              		.thumb
 3746              		.thumb_func
 3748              	USBH_AUDIO_Process:
 3749              	.LFB129:
 641:Middlewares/ST/STM32_USB_Host_Library/Class/AUDIO/Src/usbh_audio.c ****   USBH_StatusTypeDef status = USBH_BUSY;
 3750              		.loc 1 641 0
 3751              		.cfi_startproc
 3752              		@ args = 0, pretend = 0, frame = 0
 3753              		@ frame_needed = 0, uses_anonymous_args = 0
 3754              	.LVL534:
 3755 0000 08B5     		push	{r3, lr}
 3756              	.LCFI34:
 3757              		.cfi_def_cfa_offset 8
 3758              		.cfi_offset 3, -8
 3759              		.cfi_offset 14, -4
 3760              	.LVL535:
 643:Middlewares/ST/STM32_USB_Host_Library/Class/AUDIO/Src/usbh_audio.c ****   
 3761              		.loc 1 643 0
ARM GAS  /tmp/cc7hx4Eu.s 			page 110


 3762 0002 D0F84435 		ldr	r3, [r0, #1348]
 3763 0006 DB69     		ldr	r3, [r3, #28]
 3764              	.LVL536:
 645:Middlewares/ST/STM32_USB_Host_Library/Class/AUDIO/Src/usbh_audio.c ****   {
 3765              		.loc 1 645 0
 3766 0008 93F8FA30 		ldrb	r3, [r3, #250]	@ zero_extendqisi2
 3767              	.LVL537:
 3768 000c 012B     		cmp	r3, #1
 3769 000e 01D1     		bne	.L285
 647:Middlewares/ST/STM32_USB_Host_Library/Class/AUDIO/Src/usbh_audio.c ****   }
 3770              		.loc 1 647 0
 3771 0010 FFF7FEFF 		bl	USBH_AUDIO_OutputStream
 3772              	.LVL538:
 3773              	.L285:
 656:Middlewares/ST/STM32_USB_Host_Library/Class/AUDIO/Src/usbh_audio.c **** 
 3774              		.loc 1 656 0
 3775 0014 0120     		movs	r0, #1
 3776 0016 08BD     		pop	{r3, pc}
 3777              		.cfi_endproc
 3778              	.LFE129:
 3780              		.global	AUDIO_Class
 3781              		.section	.rodata.str1.4,"aMS",%progbits,1
 3782              		.align	2
 3783              	.LC0:
 3784 0000 41554449 		.ascii	"AUDIO\000"
 3784      4F00
 3785              		.section	.data.AUDIO_Class,"aw",%progbits
 3786              		.align	2
 3789              	AUDIO_Class:
 3790 0000 00000000 		.word	.LC0
 3791 0004 01       		.byte	1
 3792 0005 000000   		.space	3
 3793 0008 00000000 		.word	USBH_AUDIO_InterfaceInit
 3794 000c 00000000 		.word	USBH_AUDIO_InterfaceDeInit
 3795 0010 00000000 		.word	USBH_AUDIO_ClassRequest
 3796 0014 00000000 		.word	USBH_AUDIO_Process
 3797 0018 00000000 		.word	USBH_AUDIO_SOFProcess
 3798 001c 00000000 		.word	0
 3799              		.text
 3800              	.Letext0:
 3801              		.file 2 "/home/ada/Downloads/gcc-arm-none-eabi-5_4-2016q3/arm-none-eabi/include/machine/_default_t
 3802              		.file 3 "/home/ada/Downloads/gcc-arm-none-eabi-5_4-2016q3/arm-none-eabi/include/sys/_stdint.h"
 3803              		.file 4 "Middlewares/ST/STM32_USB_Host_Library/Core/Inc/usbh_def.h"
 3804              		.file 5 "Middlewares/ST/STM32_USB_Host_Library/Class/AUDIO/Inc/usbh_audio.h"
 3805              		.file 6 "Drivers/CMSIS/Include/core_cm4.h"
 3806              		.file 7 "Middlewares/ST/STM32_USB_Host_Library/Core/Inc/usbh_ctlreq.h"
 3807              		.file 8 "Middlewares/ST/STM32_USB_Host_Library/Core/Inc/usbh_ioreq.h"
 3808              		.file 9 "Middlewares/ST/STM32_USB_Host_Library/Core/Inc/usbh_core.h"
 3809              		.file 10 "Middlewares/ST/STM32_USB_Host_Library/Core/Inc/usbh_pipes.h"
 3810              		.file 11 "/home/ada/Downloads/gcc-arm-none-eabi-5_4-2016q3/arm-none-eabi/include/stdlib.h"
ARM GAS  /tmp/cc7hx4Eu.s 			page 111


DEFINED SYMBOLS
                            *ABS*:00000000 usbh_audio.c
     /tmp/cc7hx4Eu.s:22     .text.USBH_AUDIO_SOFProcess:00000000 $t
     /tmp/cc7hx4Eu.s:26     .text.USBH_AUDIO_SOFProcess:00000000 USBH_AUDIO_SOFProcess
     /tmp/cc7hx4Eu.s:43     .text.USBH_AUDIO_FindAudioStreamingIN:00000000 $t
     /tmp/cc7hx4Eu.s:47     .text.USBH_AUDIO_FindAudioStreamingIN:00000000 USBH_AUDIO_FindAudioStreamingIN
     /tmp/cc7hx4Eu.s:155    .text.USBH_AUDIO_FindAudioStreamingOUT:00000000 $t
     /tmp/cc7hx4Eu.s:159    .text.USBH_AUDIO_FindAudioStreamingOUT:00000000 USBH_AUDIO_FindAudioStreamingOUT
     /tmp/cc7hx4Eu.s:269    .text.ParseCSDescriptors:00000000 $t
     /tmp/cc7hx4Eu.s:273    .text.ParseCSDescriptors:00000000 ParseCSDescriptors
     /tmp/cc7hx4Eu.s:292    .text.ParseCSDescriptors:00000010 $d
     /tmp/cc7hx4Eu.s:298    .text.ParseCSDescriptors:00000016 $t
     /tmp/cc7hx4Eu.s:402    .text.USBH_AUDIO_FindLinkedUnit:00000000 $t
     /tmp/cc7hx4Eu.s:406    .text.USBH_AUDIO_FindLinkedUnit:00000000 USBH_AUDIO_FindLinkedUnit
     /tmp/cc7hx4Eu.s:585    .text.USBH_AUDIO_BuildMicrophonePath:00000000 $t
     /tmp/cc7hx4Eu.s:589    .text.USBH_AUDIO_BuildMicrophonePath:00000000 USBH_AUDIO_BuildMicrophonePath
     /tmp/cc7hx4Eu.s:669    .text.USBH_AUDIO_BuildMicrophonePath:0000005c $d
     /tmp/cc7hx4Eu.s:673    .text.USBH_AUDIO_BuildMicrophonePath:00000060 $t
     /tmp/cc7hx4Eu.s:708    .text.USBH_AUDIO_BuildHeadphonePath:00000000 $t
     /tmp/cc7hx4Eu.s:712    .text.USBH_AUDIO_BuildHeadphonePath:00000000 USBH_AUDIO_BuildHeadphonePath
     /tmp/cc7hx4Eu.s:822    .text.USBH_AUDIO_BuildHeadphonePath:00000084 $d
     /tmp/cc7hx4Eu.s:826    .text.USBH_AUDIO_BuildHeadphonePath:00000088 $t
     /tmp/cc7hx4Eu.s:886    .text.USBH_AUDIO_SetEndpointControls:00000000 $t
     /tmp/cc7hx4Eu.s:890    .text.USBH_AUDIO_SetEndpointControls:00000000 USBH_AUDIO_SetEndpointControls
     /tmp/cc7hx4Eu.s:930    .text.USBH_AC_SetCur:00000000 $t
     /tmp/cc7hx4Eu.s:934    .text.USBH_AC_SetCur:00000000 USBH_AC_SetCur
     /tmp/cc7hx4Eu.s:1024   .text.AUDIO_SetVolume:00000000 $t
     /tmp/cc7hx4Eu.s:1028   .text.AUDIO_SetVolume:00000000 AUDIO_SetVolume
     /tmp/cc7hx4Eu.s:1072   .text.USBH_AUDIO_SetControlAttribute:00000000 $t
     /tmp/cc7hx4Eu.s:1076   .text.USBH_AUDIO_SetControlAttribute:00000000 USBH_AUDIO_SetControlAttribute
     /tmp/cc7hx4Eu.s:1177   .text.USBH_AC_GetCur:00000000 $t
     /tmp/cc7hx4Eu.s:1181   .text.USBH_AC_GetCur:00000000 USBH_AC_GetCur
     /tmp/cc7hx4Eu.s:1296   .text.USBH_AC_GetMin:00000000 $t
     /tmp/cc7hx4Eu.s:1300   .text.USBH_AC_GetMin:00000000 USBH_AC_GetMin
     /tmp/cc7hx4Eu.s:1415   .text.USBH_AC_GetMax:00000000 $t
     /tmp/cc7hx4Eu.s:1419   .text.USBH_AC_GetMax:00000000 USBH_AC_GetMax
     /tmp/cc7hx4Eu.s:1534   .text.USBH_AC_GetRes:00000000 $t
     /tmp/cc7hx4Eu.s:1538   .text.USBH_AC_GetRes:00000000 USBH_AC_GetRes
     /tmp/cc7hx4Eu.s:1653   .text.USBH_AUDIO_CSRequest:00000000 $t
     /tmp/cc7hx4Eu.s:1657   .text.USBH_AUDIO_CSRequest:00000000 USBH_AUDIO_CSRequest
     /tmp/cc7hx4Eu.s:1683   .text.USBH_AUDIO_CSRequest:00000016 $d
     /tmp/cc7hx4Eu.s:1851   .text.USBH_AUDIO_HandleCSRequest:00000000 $t
     /tmp/cc7hx4Eu.s:1855   .text.USBH_AUDIO_HandleCSRequest:00000000 USBH_AUDIO_HandleCSRequest
     /tmp/cc7hx4Eu.s:1917   .text.USBH_AUDIO_Control:00000000 $t
     /tmp/cc7hx4Eu.s:1921   .text.USBH_AUDIO_Control:00000000 USBH_AUDIO_Control
     /tmp/cc7hx4Eu.s:1948   .text.USBH_AUDIO_Control:00000016 $d
     /tmp/cc7hx4Eu.s:2074   .text.USBH_AUDIO_ClassRequest:00000000 $t
     /tmp/cc7hx4Eu.s:2078   .text.USBH_AUDIO_ClassRequest:00000000 USBH_AUDIO_ClassRequest
     /tmp/cc7hx4Eu.s:2101   .text.USBH_AUDIO_ClassRequest:00000014 $d
     /tmp/cc7hx4Eu.s:2299   .text.USBH_AUDIO_InterfaceDeInit:00000000 $t
     /tmp/cc7hx4Eu.s:2303   .text.USBH_AUDIO_InterfaceDeInit:00000000 USBH_AUDIO_InterfaceDeInit
     /tmp/cc7hx4Eu.s:2388   .text.USBH_AUDIO_FindHIDControl:00000000 $t
     /tmp/cc7hx4Eu.s:2392   .text.USBH_AUDIO_FindHIDControl:00000000 USBH_AUDIO_FindHIDControl
     /tmp/cc7hx4Eu.s:2493   .text.USBH_AUDIO_ParseCSDescriptors:00000000 $t
     /tmp/cc7hx4Eu.s:2497   .text.USBH_AUDIO_ParseCSDescriptors:00000000 USBH_AUDIO_ParseCSDescriptors
     /tmp/cc7hx4Eu.s:2607   .text.USBH_AUDIO_InterfaceInit:00000000 $t
     /tmp/cc7hx4Eu.s:2611   .text.USBH_AUDIO_InterfaceInit:00000000 USBH_AUDIO_InterfaceInit
ARM GAS  /tmp/cc7hx4Eu.s 			page 112


     /tmp/cc7hx4Eu.s:2925   .text.USBH_AUDIO_SetFrequency:00000000 $t
     /tmp/cc7hx4Eu.s:2930   .text.USBH_AUDIO_SetFrequency:00000000 USBH_AUDIO_SetFrequency
     /tmp/cc7hx4Eu.s:3088   .text.USBH_AUDIO_SetFrequency:000000cc $d
     /tmp/cc7hx4Eu.s:3094   .text.USBH_AUDIO_Play:00000000 $t
     /tmp/cc7hx4Eu.s:3099   .text.USBH_AUDIO_Play:00000000 USBH_AUDIO_Play
     /tmp/cc7hx4Eu.s:3154   .text.USBH_AUDIO_Suspend:00000000 $t
     /tmp/cc7hx4Eu.s:3159   .text.USBH_AUDIO_Suspend:00000000 USBH_AUDIO_Suspend
     /tmp/cc7hx4Eu.s:3207   .text.USBH_AUDIO_Stop:00000000 $t
     /tmp/cc7hx4Eu.s:3212   .text.USBH_AUDIO_Stop:00000000 USBH_AUDIO_Stop
     /tmp/cc7hx4Eu.s:3234   .text.USBH_AUDIO_Resume:00000000 $t
     /tmp/cc7hx4Eu.s:3239   .text.USBH_AUDIO_Resume:00000000 USBH_AUDIO_Resume
     /tmp/cc7hx4Eu.s:3276   .text.USBH_AUDIO_GetOutOffset:00000000 $t
     /tmp/cc7hx4Eu.s:3281   .text.USBH_AUDIO_GetOutOffset:00000000 USBH_AUDIO_GetOutOffset
     /tmp/cc7hx4Eu.s:3322   .text.USBH_AUDIO_ChangeOutBuffer:00000000 $t
     /tmp/cc7hx4Eu.s:3327   .text.USBH_AUDIO_ChangeOutBuffer:00000000 USBH_AUDIO_ChangeOutBuffer
     /tmp/cc7hx4Eu.s:3388   .text.USBH_AUDIO_SetVolume:00000000 $t
     /tmp/cc7hx4Eu.s:3393   .text.USBH_AUDIO_SetVolume:00000000 USBH_AUDIO_SetVolume
     /tmp/cc7hx4Eu.s:3453   .text.USBH_AUDIO_FrequencySet:00000000 $t
     /tmp/cc7hx4Eu.s:3458   .text.USBH_AUDIO_FrequencySet:00000000 USBH_AUDIO_FrequencySet
     /tmp/cc7hx4Eu.s:3471   .text.USBH_AUDIO_BufferEmptyCallback:00000000 $t
     /tmp/cc7hx4Eu.s:3476   .text.USBH_AUDIO_BufferEmptyCallback:00000000 USBH_AUDIO_BufferEmptyCallback
     /tmp/cc7hx4Eu.s:3489   .text.USBH_AUDIO_Transmit:00000000 $t
     /tmp/cc7hx4Eu.s:3493   .text.USBH_AUDIO_Transmit:00000000 USBH_AUDIO_Transmit
     /tmp/cc7hx4Eu.s:3620   .text.USBH_AUDIO_OutputStream:00000000 $t
     /tmp/cc7hx4Eu.s:3624   .text.USBH_AUDIO_OutputStream:00000000 USBH_AUDIO_OutputStream
     /tmp/cc7hx4Eu.s:3651   .text.USBH_AUDIO_OutputStream:00000016 $d
     /tmp/cc7hx4Eu.s:3744   .text.USBH_AUDIO_Process:00000000 $t
     /tmp/cc7hx4Eu.s:3748   .text.USBH_AUDIO_Process:00000000 USBH_AUDIO_Process
     /tmp/cc7hx4Eu.s:3789   .data.AUDIO_Class:00000000 AUDIO_Class
     /tmp/cc7hx4Eu.s:3782   .rodata.str1.4:00000000 $d
     /tmp/cc7hx4Eu.s:3786   .data.AUDIO_Class:00000000 $d
                     .debug_frame:00000010 $d
     /tmp/cc7hx4Eu.s:1688   .text.USBH_AUDIO_CSRequest:0000001b $d
     /tmp/cc7hx4Eu.s:1688   .text.USBH_AUDIO_CSRequest:0000001c $t
     /tmp/cc7hx4Eu.s:1953   .text.USBH_AUDIO_Control:0000001b $d
     /tmp/cc7hx4Eu.s:1953   .text.USBH_AUDIO_Control:0000001c $t
     /tmp/cc7hx4Eu.s:2108   .text.USBH_AUDIO_ClassRequest:0000001b $d
     /tmp/cc7hx4Eu.s:2108   .text.USBH_AUDIO_ClassRequest:0000001c $t
     /tmp/cc7hx4Eu.s:3656   .text.USBH_AUDIO_OutputStream:0000001b $d
     /tmp/cc7hx4Eu.s:3656   .text.USBH_AUDIO_OutputStream:0000001c $t

UNDEFINED SYMBOLS
USBH_CtlReq
USBH_InterruptReceiveData
USBH_LL_GetURBState
USBH_SetInterface
USBH_ClosePipe
USBH_FreePipe
free
USBH_FindInterface
USBH_GetNextDesc
USBH_FindInterfaceIndex
malloc
memset
USBH_AllocPipe
USBH_OpenPipe
USBH_LL_SetToggle
ARM GAS  /tmp/cc7hx4Eu.s 			page 113


USBH_IsocSendData
